
standby.elf:     file format elf32-littlearm


Disassembly of section .text:

f0000000 <main>:
f0000000:	e92d40f8 	push	{r3, r4, r5, r6, r7, lr}
f0000004:	e2504000 	subs	r4, r0, #0
f0000008:	0a0000c8 	beq	f0000330 <main+0x330>
f000000c:	e59f7324 	ldr	r7, [pc, #804]	; f0000338 <main+0x338>
f0000010:	eb0000e2 	bl	f00003a0 <standby_flush_tlb>
f0000014:	eb0000e5 	bl	f00003b0 <standby_preload_tlb>
f0000018:	e59f631c 	ldr	r6, [pc, #796]	; f000033c <main+0x33c>
f000001c:	e3a05000 	mov	r5, #0
f0000020:	e4c75001 	strb	r5, [r7], #1
f0000024:	e1570006 	cmp	r7, r6
f0000028:	9afffffa 	bls	f0000018 <main+0x18>
f000002c:	e59f030c 	ldr	r0, [pc, #780]	; f0000340 <main+0x340>
f0000030:	e1a01004 	mov	r1, r4
f0000034:	e3a02010 	mov	r2, #16
f0000038:	eb0000c4 	bl	f0000350 <standby_memcpy>
f000003c:	e59f22f4 	ldr	r2, [pc, #756]	; f0000338 <main+0x338>
f0000040:	e59f02fc 	ldr	r0, [pc, #764]	; f0000344 <main+0x344>
f0000044:	e0622006 	rsb	r2, r2, r6
f0000048:	e59f62f0 	ldr	r6, [pc, #752]	; f0000340 <main+0x340>
f000004c:	e59f12f4 	ldr	r1, [pc, #756]	; f0000348 <main+0x348>
f0000050:	eb0000be 	bl	f0000350 <standby_memcpy>
f0000054:	e3a01103 	mov	r1, #-1073741824	; 0xc0000000
f0000058:	e3a02040 	mov	r2, #64	; 0x40
f000005c:	e59f02e8 	ldr	r0, [pc, #744]	; f000034c <main+0x34c>
f0000060:	eb0000ba 	bl	f0000350 <standby_memcpy>
f0000064:	eb000111 	bl	f00004b0 <standby_clk_init>
f0000068:	eb0004b0 	bl	f0001330 <standby_int_init>
f000006c:	eb000609 	bl	f0001898 <standby_tmr_init>
f0000070:	eb00055d 	bl	f00015ec <standby_power_init>
f0000074:	e5963000 	ldr	r3, [r6]
f0000078:	e3130001 	tst	r3, #1
f000007c:	0a000001 	beq	f0000088 <main+0x88>
f0000080:	e1a00005 	mov	r0, r5
f0000084:	eb0004e5 	bl	f0001420 <standby_enable_int>
f0000088:	e5963000 	ldr	r3, [r6]
f000008c:	e3130004 	tst	r3, #4
f0000090:	0a000002 	beq	f00000a0 <main+0xa0>
f0000094:	eb000507 	bl	f00014b8 <standby_key_init>
f0000098:	e3a0001f 	mov	r0, #31
f000009c:	eb0004df 	bl	f0001420 <standby_enable_int>
f00000a0:	e5963000 	ldr	r3, [r6]
f00000a4:	e3130008 	tst	r3, #8
f00000a8:	0a000004 	beq	f00000c0 <main+0xc0>
f00000ac:	eb0004f9 	bl	f0001498 <standby_ir_init>
f00000b0:	e3a00005 	mov	r0, #5
f00000b4:	eb0004d9 	bl	f0001420 <standby_enable_int>
f00000b8:	e3a00006 	mov	r0, #6
f00000bc:	eb0004d7 	bl	f0001420 <standby_enable_int>
f00000c0:	e59f5278 	ldr	r5, [pc, #632]	; f0000340 <main+0x340>
f00000c4:	e5953000 	ldr	r3, [r5]
f00000c8:	e3130010 	tst	r3, #16
f00000cc:	0a000001 	beq	f00000d8 <main+0xd8>
f00000d0:	e3a00018 	mov	r0, #24
f00000d4:	eb0004d1 	bl	f0001420 <standby_enable_int>
f00000d8:	e5953000 	ldr	r3, [r5]
f00000dc:	e3130002 	tst	r3, #2
f00000e0:	0a000002 	beq	f00000f0 <main+0xf0>
f00000e4:	eb000735 	bl	f0001dc0 <standby_usb_init>
f00000e8:	e3a00026 	mov	r0, #38	; 0x26
f00000ec:	eb0004cb 	bl	f0001420 <standby_enable_int>
f00000f0:	e5953000 	ldr	r3, [r5]
f00000f4:	e3130020 	tst	r3, #32
f00000f8:	0a000006 	beq	f0000118 <main+0x118>
f00000fc:	e59f323c 	ldr	r3, [pc, #572]	; f0000340 <main+0x340>
f0000100:	e5930004 	ldr	r0, [r3, #4]
f0000104:	e3500000 	cmp	r0, #0
f0000108:	0a000002 	beq	f0000118 <main+0x118>
f000010c:	eb000616 	bl	f000196c <standby_tmr_set>
f0000110:	e3a00016 	mov	r0, #22
f0000114:	eb0004c1 	bl	f0001420 <standby_enable_int>
f0000118:	eb00009b 	bl	f000038c <save_sp>
f000011c:	e59f5228 	ldr	r5, [pc, #552]	; f000034c <main+0x34c>
f0000120:	e5850040 	str	r0, [r5, #64]	; 0x40
f0000124:	eb0002bf 	bl	f0000c28 <dram_power_save_process>
f0000128:	e3a00000 	mov	r0, #0
f000012c:	eb0001d3 	bl	f0000880 <standby_clk_dramgating>
f0000130:	eb000122 	bl	f00005c0 <standby_clk_core2hosc>
f0000134:	eb00013b 	bl	f0000628 <standby_clk_plldisable>
f0000138:	e3a00001 	mov	r0, #1
f000013c:	eb0005b8 	bl	f0001824 <standby_get_voltage>
f0000140:	e5850044 	str	r0, [r5, #68]	; 0x44
f0000144:	e3a00002 	mov	r0, #2
f0000148:	eb0005b5 	bl	f0001824 <standby_get_voltage>
f000014c:	e3a01ffa 	mov	r1, #1000	; 0x3e8
f0000150:	e5850048 	str	r0, [r5, #72]	; 0x48
f0000154:	e3a00002 	mov	r0, #2
f0000158:	eb000567 	bl	f00016fc <standby_set_voltage>
f000015c:	e3a01ffa 	mov	r1, #1000	; 0x3e8
f0000160:	e3a00001 	mov	r0, #1
f0000164:	eb000564 	bl	f00016fc <standby_set_voltage>
f0000168:	e285004c 	add	r0, r5, #76	; 0x4c
f000016c:	eb0001ad 	bl	f0000828 <standby_clk_getdiv>
f0000170:	e5953050 	ldr	r3, [r5, #80]	; 0x50
f0000174:	e1a00005 	mov	r0, r5
f0000178:	e3c33eff 	bic	r3, r3, #4080	; 0xff0
f000017c:	e7cf361f 	bfc	r3, #12, #4
f0000180:	e5a03050 	str	r3, [r0, #80]!	; 0x50
f0000184:	eb00018f 	bl	f00007c8 <standby_clk_setdiv>
f0000188:	eb0001c8 	bl	f00008b0 <standby_clk_apb2losc>
f000018c:	e3a0000a 	mov	r0, #10
f0000190:	eb000078 	bl	f0000378 <standby_mdelay>
f0000194:	eb0000fd 	bl	f0000590 <standby_clk_core2losc>
f0000198:	eb000156 	bl	f00006f8 <standby_clk_hoscdisable>
f000019c:	eb000165 	bl	f0000738 <standby_clk_ldodisable>
f00001a0:	e320f003 	wfi
f00001a4:	eb000175 	bl	f0000780 <standby_clk_ldoenable>
f00001a8:	e59f6190 	ldr	r6, [pc, #400]	; f0000340 <main+0x340>
f00001ac:	e3a00001 	mov	r0, #1
f00001b0:	eb00070a 	bl	f0001de0 <standby_delay>
f00001b4:	eb000157 	bl	f0000718 <standby_clk_hoscenable>
f00001b8:	e3a00001 	mov	r0, #1
f00001bc:	eb000707 	bl	f0001de0 <standby_delay>
f00001c0:	eb0001c3 	bl	f00008d4 <standby_clk_apb2hosc>
f00001c4:	eb0000fd 	bl	f00005c0 <standby_clk_core2hosc>
f00001c8:	e285004c 	add	r0, r5, #76	; 0x4c
f00001cc:	eb00017d 	bl	f00007c8 <standby_clk_setdiv>
f00001d0:	e3a00000 	mov	r0, #0
f00001d4:	e5860000 	str	r0, [r6]
f00001d8:	eb0004a2 	bl	f0001468 <standby_query_int>
f00001dc:	e2707001 	rsbs	r7, r0, #1
f00001e0:	e3a00026 	mov	r0, #38	; 0x26
f00001e4:	33a07000 	movcc	r7, #0
f00001e8:	e5867000 	str	r7, [r6]
f00001ec:	eb00049d 	bl	f0001468 <standby_query_int>
f00001f0:	e3500000 	cmp	r0, #0
f00001f4:	03a00002 	moveq	r0, #2
f00001f8:	13a00000 	movne	r0, #0
f00001fc:	e1807007 	orr	r7, r0, r7
f0000200:	e3a0001f 	mov	r0, #31
f0000204:	e5867000 	str	r7, [r6]
f0000208:	eb000496 	bl	f0001468 <standby_query_int>
f000020c:	e3500000 	cmp	r0, #0
f0000210:	03a00004 	moveq	r0, #4
f0000214:	13a00000 	movne	r0, #0
f0000218:	e1807007 	orr	r7, r0, r7
f000021c:	e3a00005 	mov	r0, #5
f0000220:	e5867000 	str	r7, [r6]
f0000224:	eb00048f 	bl	f0001468 <standby_query_int>
f0000228:	e3500000 	cmp	r0, #0
f000022c:	03a00008 	moveq	r0, #8
f0000230:	13a00000 	movne	r0, #0
f0000234:	e1807007 	orr	r7, r0, r7
f0000238:	e3a00018 	mov	r0, #24
f000023c:	e5867000 	str	r7, [r6]
f0000240:	eb000488 	bl	f0001468 <standby_query_int>
f0000244:	e3500000 	cmp	r0, #0
f0000248:	03a00010 	moveq	r0, #16
f000024c:	13a00000 	movne	r0, #0
f0000250:	e1807007 	orr	r7, r0, r7
f0000254:	e3a00016 	mov	r0, #22
f0000258:	e5867000 	str	r7, [r6]
f000025c:	eb000481 	bl	f0001468 <standby_query_int>
f0000260:	e5951044 	ldr	r1, [r5, #68]	; 0x44
f0000264:	e3500000 	cmp	r0, #0
f0000268:	03a00020 	moveq	r0, #32
f000026c:	13a00000 	movne	r0, #0
f0000270:	e1807007 	orr	r7, r0, r7
f0000274:	e3a00001 	mov	r0, #1
f0000278:	e5867000 	str	r7, [r6]
f000027c:	eb00051e 	bl	f00016fc <standby_set_voltage>
f0000280:	e5951048 	ldr	r1, [r5, #72]	; 0x48
f0000284:	e3a00002 	mov	r0, #2
f0000288:	eb00051b 	bl	f00016fc <standby_set_voltage>
f000028c:	e3a0000a 	mov	r0, #10
f0000290:	eb000038 	bl	f0000378 <standby_mdelay>
f0000294:	eb0000fd 	bl	f0000690 <standby_clk_pllenable>
f0000298:	e3a0000a 	mov	r0, #10
f000029c:	eb000035 	bl	f0000378 <standby_mdelay>
f00002a0:	eb0000d3 	bl	f00005f4 <standby_clk_core2pll>
f00002a4:	e3a0000a 	mov	r0, #10
f00002a8:	eb000032 	bl	f0000378 <standby_mdelay>
f00002ac:	e3a00001 	mov	r0, #1
f00002b0:	eb000172 	bl	f0000880 <standby_clk_dramgating>
f00002b4:	eb0005c0 	bl	f00019bc <standby_tmr_enable_watchdog>
f00002b8:	eb000261 	bl	f0000c44 <dram_power_up_process>
f00002bc:	eb0005c7 	bl	f00019e0 <standby_tmr_disable_watchdog>
f00002c0:	e5950040 	ldr	r0, [r5, #64]	; 0x40
f00002c4:	eb000033 	bl	f0000398 <restore_sp>
f00002c8:	e5963000 	ldr	r3, [r6]
f00002cc:	e3130002 	tst	r3, #2
f00002d0:	0a000000 	beq	f00002d8 <main+0x2d8>
f00002d4:	eb0006bb 	bl	f0001dc8 <standby_usb_exit>
f00002d8:	e59f5060 	ldr	r5, [pc, #96]	; f0000340 <main+0x340>
f00002dc:	e5953000 	ldr	r3, [r5]
f00002e0:	e3130008 	tst	r3, #8
f00002e4:	0a000000 	beq	f00002ec <main+0x2ec>
f00002e8:	eb00046c 	bl	f00014a0 <standby_ir_exit>
f00002ec:	e5953000 	ldr	r3, [r5]
f00002f0:	e3130004 	tst	r3, #4
f00002f4:	0a000000 	beq	f00002fc <main+0x2fc>
f00002f8:	eb000484 	bl	f0001510 <standby_key_exit>
f00002fc:	eb0004e0 	bl	f0001684 <standby_power_exit>
f0000300:	eb000586 	bl	f0001920 <standby_tmr_exit>
f0000304:	eb00042e 	bl	f00013c4 <standby_int_exit>
f0000308:	eb00008d 	bl	f0000544 <standby_clk_exit>
f000030c:	e3a00103 	mov	r0, #-1073741824	; 0xc0000000
f0000310:	e59f1034 	ldr	r1, [pc, #52]	; f000034c <main+0x34c>
f0000314:	e3a02040 	mov	r2, #64	; 0x40
f0000318:	eb00000c 	bl	f0000350 <standby_memcpy>
f000031c:	e59f301c 	ldr	r3, [pc, #28]	; f0000340 <main+0x340>
f0000320:	e3a00000 	mov	r0, #0
f0000324:	e5933000 	ldr	r3, [r3]
f0000328:	e5843000 	str	r3, [r4]
f000032c:	e8bd80f8 	pop	{r3, r4, r5, r6, r7, pc}
f0000330:	e3e00000 	mvn	r0, #0
f0000334:	e8bd80f8 	pop	{r3, r4, r5, r6, r7, pc}
f0000338:	f0001f60 			; <UNDEFINED> instruction: 0xf0001f60
f000033c:	f0002048 			; <UNDEFINED> instruction: 0xf0002048
f0000340:	f0002034 			; <UNDEFINED> instruction: 0xf0002034
f0000344:	f0002048 			; <UNDEFINED> instruction: 0xf0002048
f0000348:	00000000 	andeq	r0, r0, r0
f000034c:	f0001f60 			; <UNDEFINED> instruction: 0xf0001f60

f0000350 <standby_memcpy>:
f0000350:	e3500000 	cmp	r0, #0
f0000354:	13510000 	cmpne	r1, #0
f0000358:	1a000003 	bne	f000036c <standby_memcpy+0x1c>
f000035c:	e12fff1e 	bx	lr
f0000360:	e4d13001 	ldrb	r3, [r1], #1
f0000364:	e2422001 	sub	r2, r2, #1
f0000368:	e4c03001 	strb	r3, [r0], #1
f000036c:	e3520000 	cmp	r2, #0
f0000370:	cafffffa 	bgt	f0000360 <standby_memcpy+0x10>
f0000374:	e12fff1e 	bx	lr

f0000378 <standby_mdelay>:
f0000378:	e59f3008 	ldr	r3, [pc, #8]	; f0000388 <standby_mdelay+0x10>
f000037c:	e5933000 	ldr	r3, [r3]
f0000380:	e0000093 	mul	r0, r3, r0
f0000384:	ea000695 	b	f0001de0 <standby_delay>
f0000388:	f0002044 			; <UNDEFINED> instruction: 0xf0002044

f000038c <save_sp>:
f000038c:	e1a0000d 	mov	r0, sp
f0000390:	e59fd0dc 	ldr	sp, [pc, #220]	; f0000474 <standby_preload_tlb+0xc4>
f0000394:	e1a0f00e 	mov	pc, lr

f0000398 <restore_sp>:
f0000398:	e1a0d000 	mov	sp, r0
f000039c:	e1a0f00e 	mov	pc, lr

f00003a0 <standby_flush_tlb>:
f00003a0:	e92d000f 	push	{r0, r1, r2, r3}
f00003a4:	ee080f17 	mcr	15, 0, r0, cr8, cr7, {0}
f00003a8:	e8bd000f 	pop	{r0, r1, r2, r3}
f00003ac:	e1a0f00e 	mov	pc, lr

f00003b0 <standby_preload_tlb>:
f00003b0:	e92d000f 	push	{r0, r1, r2, r3}
f00003b4:	e59f00bc 	ldr	r0, [pc, #188]	; f0000478 <standby_preload_tlb+0xc8>
f00003b8:	ee0a0f11 	mcr	15, 0, r0, cr10, cr1, {0}
f00003bc:	e59f00b8 	ldr	r0, [pc, #184]	; f000047c <standby_preload_tlb+0xcc>
f00003c0:	ee0a0f11 	mcr	15, 0, r0, cr10, cr1, {0}
f00003c4:	e59f00b4 	ldr	r0, [pc, #180]	; f0000480 <standby_preload_tlb+0xd0>
f00003c8:	ee0a0f11 	mcr	15, 0, r0, cr10, cr1, {0}
f00003cc:	e59f00b0 	ldr	r0, [pc, #176]	; f0000484 <standby_preload_tlb+0xd4>
f00003d0:	ee0a0f11 	mcr	15, 0, r0, cr10, cr1, {0}
f00003d4:	e59f00ac 	ldr	r0, [pc, #172]	; f0000488 <standby_preload_tlb+0xd8>
f00003d8:	ee0a0f11 	mcr	15, 0, r0, cr10, cr1, {0}
f00003dc:	e59f00a8 	ldr	r0, [pc, #168]	; f000048c <standby_preload_tlb+0xdc>
f00003e0:	ee0a0f11 	mcr	15, 0, r0, cr10, cr1, {0}
f00003e4:	e59f00a4 	ldr	r0, [pc, #164]	; f0000490 <standby_preload_tlb+0xe0>
f00003e8:	ee0a0f11 	mcr	15, 0, r0, cr10, cr1, {0}
f00003ec:	e3a0020f 	mov	r0, #-268435456	; 0xf0000000
f00003f0:	ee0a0f11 	mcr	15, 0, r0, cr10, cr1, {0}
f00003f4:	e59f0098 	ldr	r0, [pc, #152]	; f0000494 <standby_preload_tlb+0xe4>
f00003f8:	ee0a0f11 	mcr	15, 0, r0, cr10, cr1, {0}
f00003fc:	e59f0094 	ldr	r0, [pc, #148]	; f0000498 <standby_preload_tlb+0xe8>
f0000400:	ee0a0f11 	mcr	15, 0, r0, cr10, cr1, {0}
f0000404:	e59f0090 	ldr	r0, [pc, #144]	; f000049c <standby_preload_tlb+0xec>
f0000408:	ee0a0f11 	mcr	15, 0, r0, cr10, cr1, {0}
f000040c:	e59f008c 	ldr	r0, [pc, #140]	; f00004a0 <standby_preload_tlb+0xf0>
f0000410:	ee0a0f11 	mcr	15, 0, r0, cr10, cr1, {0}
f0000414:	e59f0088 	ldr	r0, [pc, #136]	; f00004a4 <standby_preload_tlb+0xf4>
f0000418:	ee0a0f11 	mcr	15, 0, r0, cr10, cr1, {0}
f000041c:	e59f0084 	ldr	r0, [pc, #132]	; f00004a8 <standby_preload_tlb+0xf8>
f0000420:	ee0a0f11 	mcr	15, 0, r0, cr10, cr1, {0}
f0000424:	e59f0080 	ldr	r0, [pc, #128]	; f00004ac <standby_preload_tlb+0xfc>
f0000428:	ee0a0f11 	mcr	15, 0, r0, cr10, cr1, {0}
f000042c:	e3a0020f 	mov	r0, #-268435456	; 0xf0000000
f0000430:	ee0a0f31 	mcr	15, 0, r0, cr10, cr1, {1}
f0000434:	e59f0058 	ldr	r0, [pc, #88]	; f0000494 <standby_preload_tlb+0xe4>
f0000438:	ee0a0f31 	mcr	15, 0, r0, cr10, cr1, {1}
f000043c:	e59f0054 	ldr	r0, [pc, #84]	; f0000498 <standby_preload_tlb+0xe8>
f0000440:	ee0a0f31 	mcr	15, 0, r0, cr10, cr1, {1}
f0000444:	e59f0050 	ldr	r0, [pc, #80]	; f000049c <standby_preload_tlb+0xec>
f0000448:	ee0a0f31 	mcr	15, 0, r0, cr10, cr1, {1}
f000044c:	e59f004c 	ldr	r0, [pc, #76]	; f00004a0 <standby_preload_tlb+0xf0>
f0000450:	ee0a0f31 	mcr	15, 0, r0, cr10, cr1, {1}
f0000454:	e59f0048 	ldr	r0, [pc, #72]	; f00004a4 <standby_preload_tlb+0xf4>
f0000458:	ee0a0f31 	mcr	15, 0, r0, cr10, cr1, {1}
f000045c:	e59f0044 	ldr	r0, [pc, #68]	; f00004a8 <standby_preload_tlb+0xf8>
f0000460:	ee0a0f31 	mcr	15, 0, r0, cr10, cr1, {1}
f0000464:	e59f0040 	ldr	r0, [pc, #64]	; f00004ac <standby_preload_tlb+0xfc>
f0000468:	ee0a0f31 	mcr	15, 0, r0, cr10, cr1, {1}
f000046c:	e8bd000f 	pop	{r0, r1, r2, r3}
f0000470:	e1a0f00e 	mov	pc, lr
f0000474:	f0007ffc 			; <UNDEFINED> instruction: 0xf0007ffc
f0000478:	f1c20000 			; <UNDEFINED> instruction: 0xf1c20000
f000047c:	f1c2ac00 			; <UNDEFINED> instruction: 0xf1c2ac00
f0000480:	f1c2b000 			; <UNDEFINED> instruction: 0xf1c2b000
f0000484:	f1c2b400 			; <UNDEFINED> instruction: 0xf1c2b400
f0000488:	f1c20400 			; <UNDEFINED> instruction: 0xf1c20400
f000048c:	f1c20c00 			; <UNDEFINED> instruction: 0xf1c20c00
f0000490:	f1c22800 			; <UNDEFINED> instruction: 0xf1c22800
f0000494:	f0000400 			; <UNDEFINED> instruction: 0xf0000400
f0000498:	f0000800 			; <UNDEFINED> instruction: 0xf0000800
f000049c:	f0000c00 			; <UNDEFINED> instruction: 0xf0000c00
f00004a0:	f0001000 			; <UNDEFINED> instruction: 0xf0001000
f00004a4:	f0001400 			; <UNDEFINED> instruction: 0xf0001400
f00004a8:	f0001800 			; <UNDEFINED> instruction: 0xf0001800
f00004ac:	f0001c00 			; <UNDEFINED> instruction: 0xf0001c00

f00004b0 <standby_clk_init>:
f00004b0:	e59f3068 	ldr	r3, [pc, #104]	; f0000520 <standby_clk_init+0x70>
f00004b4:	e3a00000 	mov	r0, #0
f00004b8:	e59f2064 	ldr	r2, [pc, #100]	; f0000524 <standby_clk_init+0x74>
f00004bc:	e5832000 	str	r2, [r3]
f00004c0:	e5922000 	ldr	r2, [r2]
f00004c4:	e5832004 	str	r2, [r3, #4]
f00004c8:	e59f2058 	ldr	r2, [pc, #88]	; f0000528 <standby_clk_init+0x78>
f00004cc:	e5922000 	ldr	r2, [r2]
f00004d0:	e5832008 	str	r2, [r3, #8]
f00004d4:	e59f2050 	ldr	r2, [pc, #80]	; f000052c <standby_clk_init+0x7c>
f00004d8:	e5922000 	ldr	r2, [r2]
f00004dc:	e583200c 	str	r2, [r3, #12]
f00004e0:	e59f2048 	ldr	r2, [pc, #72]	; f0000530 <standby_clk_init+0x80>
f00004e4:	e5922000 	ldr	r2, [r2]
f00004e8:	e5832010 	str	r2, [r3, #16]
f00004ec:	e59f2040 	ldr	r2, [pc, #64]	; f0000534 <standby_clk_init+0x84>
f00004f0:	e5922000 	ldr	r2, [r2]
f00004f4:	e5832014 	str	r2, [r3, #20]
f00004f8:	e59f2038 	ldr	r2, [pc, #56]	; f0000538 <standby_clk_init+0x88>
f00004fc:	e5922000 	ldr	r2, [r2]
f0000500:	e5832018 	str	r2, [r3, #24]
f0000504:	e59f2030 	ldr	r2, [pc, #48]	; f000053c <standby_clk_init+0x8c>
f0000508:	e5922000 	ldr	r2, [r2]
f000050c:	e583201c 	str	r2, [r3, #28]
f0000510:	e3002bb8 	movw	r2, #3000	; 0xbb8
f0000514:	e59f3024 	ldr	r3, [pc, #36]	; f0000540 <standby_clk_init+0x90>
f0000518:	e5832000 	str	r2, [r3]
f000051c:	e12fff1e 	bx	lr
f0000520:	f0001fb4 			; <UNDEFINED> instruction: 0xf0001fb4
f0000524:	f1c20000 			; <UNDEFINED> instruction: 0xf1c20000
f0000528:	f1c20008 			; <UNDEFINED> instruction: 0xf1c20008
f000052c:	f1c20010 			; <UNDEFINED> instruction: 0xf1c20010
f0000530:	f1c20018 			; <UNDEFINED> instruction: 0xf1c20018
f0000534:	f1c20020 			; <UNDEFINED> instruction: 0xf1c20020
f0000538:	f1c20028 			; <UNDEFINED> instruction: 0xf1c20028
f000053c:	f1c20030 			; <UNDEFINED> instruction: 0xf1c20030
f0000540:	f0002044 			; <UNDEFINED> instruction: 0xf0002044

f0000544 <standby_clk_exit>:
f0000544:	e59f3040 	ldr	r3, [pc, #64]	; f000058c <standby_clk_exit+0x48>
f0000548:	e3a00000 	mov	r0, #0
f000054c:	e5931004 	ldr	r1, [r3, #4]
f0000550:	e5932000 	ldr	r2, [r3]
f0000554:	e5821000 	str	r1, [r2]
f0000558:	e5931008 	ldr	r1, [r3, #8]
f000055c:	e5821008 	str	r1, [r2, #8]
f0000560:	e593100c 	ldr	r1, [r3, #12]
f0000564:	e5821010 	str	r1, [r2, #16]
f0000568:	e5931010 	ldr	r1, [r3, #16]
f000056c:	e5821018 	str	r1, [r2, #24]
f0000570:	e5931014 	ldr	r1, [r3, #20]
f0000574:	e5821020 	str	r1, [r2, #32]
f0000578:	e5931018 	ldr	r1, [r3, #24]
f000057c:	e5821028 	str	r1, [r2, #40]	; 0x28
f0000580:	e593301c 	ldr	r3, [r3, #28]
f0000584:	e5823030 	str	r3, [r2, #48]	; 0x30
f0000588:	e12fff1e 	bx	lr
f000058c:	f0001fb4 			; <UNDEFINED> instruction: 0xf0001fb4

f0000590 <standby_clk_core2losc>:
f0000590:	e59f3020 	ldr	r3, [pc, #32]	; f00005b8 <standby_clk_core2losc+0x28>
f0000594:	e3a00000 	mov	r0, #0
f0000598:	e5933000 	ldr	r3, [r3]
f000059c:	e5932054 	ldr	r2, [r3, #84]	; 0x54
f00005a0:	e7d1281f 	bfc	r2, #16, #2
f00005a4:	e5832054 	str	r2, [r3, #84]	; 0x54
f00005a8:	e59f300c 	ldr	r3, [pc, #12]	; f00005bc <standby_clk_core2losc+0x2c>
f00005ac:	e3a02001 	mov	r2, #1
f00005b0:	e5832000 	str	r2, [r3]
f00005b4:	e12fff1e 	bx	lr
f00005b8:	f0001fb4 			; <UNDEFINED> instruction: 0xf0001fb4
f00005bc:	f0002044 			; <UNDEFINED> instruction: 0xf0002044

f00005c0 <standby_clk_core2hosc>:
f00005c0:	e59f3024 	ldr	r3, [pc, #36]	; f00005ec <standby_clk_core2hosc+0x2c>
f00005c4:	e3a01001 	mov	r1, #1
f00005c8:	e3a00000 	mov	r0, #0
f00005cc:	e5933000 	ldr	r3, [r3]
f00005d0:	e5932054 	ldr	r2, [r3, #84]	; 0x54
f00005d4:	e7d12811 	bfi	r2, r1, #16, #2
f00005d8:	e5832054 	str	r2, [r3, #84]	; 0x54
f00005dc:	e59f300c 	ldr	r3, [pc, #12]	; f00005f0 <standby_clk_core2hosc+0x30>
f00005e0:	e3a02f96 	mov	r2, #600	; 0x258
f00005e4:	e5832000 	str	r2, [r3]
f00005e8:	e12fff1e 	bx	lr
f00005ec:	f0001fb4 			; <UNDEFINED> instruction: 0xf0001fb4
f00005f0:	f0002044 			; <UNDEFINED> instruction: 0xf0002044

f00005f4 <standby_clk_core2pll>:
f00005f4:	e59f3024 	ldr	r3, [pc, #36]	; f0000620 <standby_clk_core2pll+0x2c>
f00005f8:	e3a01002 	mov	r1, #2
f00005fc:	e3a00000 	mov	r0, #0
f0000600:	e5933000 	ldr	r3, [r3]
f0000604:	e5932054 	ldr	r2, [r3, #84]	; 0x54
f0000608:	e7d12811 	bfi	r2, r1, #16, #2
f000060c:	e5832054 	str	r2, [r3, #84]	; 0x54
f0000610:	e59f300c 	ldr	r3, [pc, #12]	; f0000624 <standby_clk_core2pll+0x30>
f0000614:	e3a02e7d 	mov	r2, #2000	; 0x7d0
f0000618:	e5832000 	str	r2, [r3]
f000061c:	e12fff1e 	bx	lr
f0000620:	f0001fb4 			; <UNDEFINED> instruction: 0xf0001fb4
f0000624:	f0002044 			; <UNDEFINED> instruction: 0xf0002044

f0000628 <standby_clk_plldisable>:
f0000628:	e59f305c 	ldr	r3, [pc, #92]	; f000068c <standby_clk_plldisable+0x64>
f000062c:	e3a00000 	mov	r0, #0
f0000630:	e5933000 	ldr	r3, [r3]
f0000634:	e5932000 	ldr	r2, [r3]
f0000638:	e7df2f9f 	bfc	r2, #31, #1
f000063c:	e5832000 	str	r2, [r3]
f0000640:	e5932008 	ldr	r2, [r3, #8]
f0000644:	e7df2f9f 	bfc	r2, #31, #1
f0000648:	e5832008 	str	r2, [r3, #8]
f000064c:	e5932010 	ldr	r2, [r3, #16]
f0000650:	e7df2f9f 	bfc	r2, #31, #1
f0000654:	e5832010 	str	r2, [r3, #16]
f0000658:	e5932018 	ldr	r2, [r3, #24]
f000065c:	e7df2f9f 	bfc	r2, #31, #1
f0000660:	e5832018 	str	r2, [r3, #24]
f0000664:	e5932020 	ldr	r2, [r3, #32]
f0000668:	e7df2f9f 	bfc	r2, #31, #1
f000066c:	e5832020 	str	r2, [r3, #32]
f0000670:	e5932028 	ldr	r2, [r3, #40]	; 0x28
f0000674:	e7df2f9f 	bfc	r2, #31, #1
f0000678:	e5832028 	str	r2, [r3, #40]	; 0x28
f000067c:	e5932030 	ldr	r2, [r3, #48]	; 0x30
f0000680:	e7df2f9f 	bfc	r2, #31, #1
f0000684:	e5832030 	str	r2, [r3, #48]	; 0x30
f0000688:	e12fff1e 	bx	lr
f000068c:	f0001fb4 			; <UNDEFINED> instruction: 0xf0001fb4

f0000690 <standby_clk_pllenable>:
f0000690:	e59f305c 	ldr	r3, [pc, #92]	; f00006f4 <standby_clk_pllenable+0x64>
f0000694:	e3a00000 	mov	r0, #0
f0000698:	e5933000 	ldr	r3, [r3]
f000069c:	e5932000 	ldr	r2, [r3]
f00006a0:	e3822102 	orr	r2, r2, #-2147483648	; 0x80000000
f00006a4:	e5832000 	str	r2, [r3]
f00006a8:	e5932008 	ldr	r2, [r3, #8]
f00006ac:	e3822102 	orr	r2, r2, #-2147483648	; 0x80000000
f00006b0:	e5832008 	str	r2, [r3, #8]
f00006b4:	e5932010 	ldr	r2, [r3, #16]
f00006b8:	e3822102 	orr	r2, r2, #-2147483648	; 0x80000000
f00006bc:	e5832010 	str	r2, [r3, #16]
f00006c0:	e5932018 	ldr	r2, [r3, #24]
f00006c4:	e3822102 	orr	r2, r2, #-2147483648	; 0x80000000
f00006c8:	e5832018 	str	r2, [r3, #24]
f00006cc:	e5932020 	ldr	r2, [r3, #32]
f00006d0:	e3822102 	orr	r2, r2, #-2147483648	; 0x80000000
f00006d4:	e5832020 	str	r2, [r3, #32]
f00006d8:	e5932028 	ldr	r2, [r3, #40]	; 0x28
f00006dc:	e3822102 	orr	r2, r2, #-2147483648	; 0x80000000
f00006e0:	e5832028 	str	r2, [r3, #40]	; 0x28
f00006e4:	e5932030 	ldr	r2, [r3, #48]	; 0x30
f00006e8:	e3822102 	orr	r2, r2, #-2147483648	; 0x80000000
f00006ec:	e5832030 	str	r2, [r3, #48]	; 0x30
f00006f0:	e12fff1e 	bx	lr
f00006f4:	f0001fb4 			; <UNDEFINED> instruction: 0xf0001fb4

f00006f8 <standby_clk_hoscdisable>:
f00006f8:	e59f3014 	ldr	r3, [pc, #20]	; f0000714 <standby_clk_hoscdisable+0x1c>
f00006fc:	e3a00000 	mov	r0, #0
f0000700:	e5933000 	ldr	r3, [r3]
f0000704:	e5932050 	ldr	r2, [r3, #80]	; 0x50
f0000708:	e7c0201f 	bfc	r2, #0, #1
f000070c:	e5832050 	str	r2, [r3, #80]	; 0x50
f0000710:	e12fff1e 	bx	lr
f0000714:	f0001fb4 			; <UNDEFINED> instruction: 0xf0001fb4

f0000718 <standby_clk_hoscenable>:
f0000718:	e59f3014 	ldr	r3, [pc, #20]	; f0000734 <standby_clk_hoscenable+0x1c>
f000071c:	e3a00000 	mov	r0, #0
f0000720:	e5932000 	ldr	r2, [r3]
f0000724:	e5923050 	ldr	r3, [r2, #80]	; 0x50
f0000728:	e3833001 	orr	r3, r3, #1
f000072c:	e5823050 	str	r3, [r2, #80]	; 0x50
f0000730:	e12fff1e 	bx	lr
f0000734:	f0001fb4 			; <UNDEFINED> instruction: 0xf0001fb4

f0000738 <standby_clk_ldodisable>:
f0000738:	e59f303c 	ldr	r3, [pc, #60]	; f000077c <standby_clk_ldodisable+0x44>
f000073c:	e3001538 	movw	r1, #1336	; 0x538
f0000740:	e3a00000 	mov	r0, #0
f0000744:	e5933000 	ldr	r3, [r3]
f0000748:	e5932050 	ldr	r2, [r3, #80]	; 0x50
f000074c:	e7df2a91 	bfi	r2, r1, #21, #11
f0000750:	e5832050 	str	r2, [r3, #80]	; 0x50
f0000754:	e5932050 	ldr	r2, [r3, #80]	; 0x50
f0000758:	e7d0281f 	bfc	r2, #16, #1
f000075c:	e5832050 	str	r2, [r3, #80]	; 0x50
f0000760:	e5932020 	ldr	r2, [r3, #32]
f0000764:	e7c7239f 	bfc	r2, #7, #1
f0000768:	e5832020 	str	r2, [r3, #32]
f000076c:	e5932050 	ldr	r2, [r3, #80]	; 0x50
f0000770:	e7df2a9f 	bfc	r2, #21, #11
f0000774:	e5832050 	str	r2, [r3, #80]	; 0x50
f0000778:	e12fff1e 	bx	lr
f000077c:	f0001fb4 			; <UNDEFINED> instruction: 0xf0001fb4

f0000780 <standby_clk_ldoenable>:
f0000780:	e59f303c 	ldr	r3, [pc, #60]	; f00007c4 <standby_clk_ldoenable+0x44>
f0000784:	e3001538 	movw	r1, #1336	; 0x538
f0000788:	e3a00000 	mov	r0, #0
f000078c:	e5933000 	ldr	r3, [r3]
f0000790:	e5932050 	ldr	r2, [r3, #80]	; 0x50
f0000794:	e7df2a91 	bfi	r2, r1, #21, #11
f0000798:	e5832050 	str	r2, [r3, #80]	; 0x50
f000079c:	e5932050 	ldr	r2, [r3, #80]	; 0x50
f00007a0:	e3822801 	orr	r2, r2, #65536	; 0x10000
f00007a4:	e5832050 	str	r2, [r3, #80]	; 0x50
f00007a8:	e5932020 	ldr	r2, [r3, #32]
f00007ac:	e3822080 	orr	r2, r2, #128	; 0x80
f00007b0:	e5832020 	str	r2, [r3, #32]
f00007b4:	e5932050 	ldr	r2, [r3, #80]	; 0x50
f00007b8:	e7df2a9f 	bfc	r2, #21, #11
f00007bc:	e5832050 	str	r2, [r3, #80]	; 0x50
f00007c0:	e12fff1e 	bx	lr
f00007c4:	f0001fb4 			; <UNDEFINED> instruction: 0xf0001fb4

f00007c8 <standby_clk_setdiv>:
f00007c8:	e3500000 	cmp	r0, #0
f00007cc:	0a000012 	beq	f000081c <standby_clk_setdiv+0x54>
f00007d0:	e59f304c 	ldr	r3, [pc, #76]	; f0000824 <standby_clk_setdiv+0x5c>
f00007d4:	e5901000 	ldr	r1, [r0]
f00007d8:	e5933000 	ldr	r3, [r3]
f00007dc:	e7e11251 	ubfx	r1, r1, #4, #2
f00007e0:	e5932054 	ldr	r2, [r3, #84]	; 0x54
f00007e4:	e7c12011 	bfi	r2, r1, #0, #2
f00007e8:	e5832054 	str	r2, [r3, #84]	; 0x54
f00007ec:	e5901000 	ldr	r1, [r0]
f00007f0:	e5932054 	ldr	r2, [r3, #84]	; 0x54
f00007f4:	e7e11451 	ubfx	r1, r1, #8, #2
f00007f8:	e7c52211 	bfi	r2, r1, #4, #2
f00007fc:	e5832054 	str	r2, [r3, #84]	; 0x54
f0000800:	e5901000 	ldr	r1, [r0]
f0000804:	e3a00000 	mov	r0, #0
f0000808:	e5932054 	ldr	r2, [r3, #84]	; 0x54
f000080c:	e7e11651 	ubfx	r1, r1, #12, #2
f0000810:	e7c92411 	bfi	r2, r1, #8, #2
f0000814:	e5832054 	str	r2, [r3, #84]	; 0x54
f0000818:	e12fff1e 	bx	lr
f000081c:	e3e00000 	mvn	r0, #0
f0000820:	e12fff1e 	bx	lr
f0000824:	f0001fb4 			; <UNDEFINED> instruction: 0xf0001fb4

f0000828 <standby_clk_getdiv>:
f0000828:	e3500000 	cmp	r0, #0
f000082c:	0a000010 	beq	f0000874 <standby_clk_getdiv+0x4c>
f0000830:	e59f3044 	ldr	r3, [pc, #68]	; f000087c <standby_clk_getdiv+0x54>
f0000834:	e5932000 	ldr	r2, [r3]
f0000838:	e5903000 	ldr	r3, [r0]
f000083c:	e5921054 	ldr	r1, [r2, #84]	; 0x54
f0000840:	e2011003 	and	r1, r1, #3
f0000844:	e7c73211 	bfi	r3, r1, #4, #4
f0000848:	e5803000 	str	r3, [r0]
f000084c:	e5921054 	ldr	r1, [r2, #84]	; 0x54
f0000850:	e7e11251 	ubfx	r1, r1, #4, #2
f0000854:	e7cb3411 	bfi	r3, r1, #8, #4
f0000858:	e5803000 	str	r3, [r0]
f000085c:	e5922054 	ldr	r2, [r2, #84]	; 0x54
f0000860:	e7e12452 	ubfx	r2, r2, #8, #2
f0000864:	e7cf3612 	bfi	r3, r2, #12, #4
f0000868:	e5803000 	str	r3, [r0]
f000086c:	e3a00000 	mov	r0, #0
f0000870:	e12fff1e 	bx	lr
f0000874:	e3e00000 	mvn	r0, #0
f0000878:	e12fff1e 	bx	lr
f000087c:	f0001fb4 			; <UNDEFINED> instruction: 0xf0001fb4

f0000880 <standby_clk_dramgating>:
f0000880:	e59f3024 	ldr	r3, [pc, #36]	; f00008ac <standby_clk_dramgating+0x2c>
f0000884:	e3500000 	cmp	r0, #0
f0000888:	15932000 	ldrne	r2, [r3]
f000088c:	05933000 	ldreq	r3, [r3]
f0000890:	15923020 	ldrne	r3, [r2, #32]
f0000894:	05932020 	ldreq	r2, [r3, #32]
f0000898:	13833202 	orrne	r3, r3, #536870912	; 0x20000000
f000089c:	07dd2e90 	bfieq	r2, r0, #29, #1
f00008a0:	15823020 	strne	r3, [r2, #32]
f00008a4:	05832020 	streq	r2, [r3, #32]
f00008a8:	e12fff1e 	bx	lr
f00008ac:	f0001fb4 			; <UNDEFINED> instruction: 0xf0001fb4

f00008b0 <standby_clk_apb2losc>:
f00008b0:	e59f3018 	ldr	r3, [pc, #24]	; f00008d0 <standby_clk_apb2losc+0x20>
f00008b4:	e3a01002 	mov	r1, #2
f00008b8:	e3a00000 	mov	r0, #0
f00008bc:	e5933000 	ldr	r3, [r3]
f00008c0:	e5932058 	ldr	r2, [r3, #88]	; 0x58
f00008c4:	e7d92c11 	bfi	r2, r1, #24, #2
f00008c8:	e5832058 	str	r2, [r3, #88]	; 0x58
f00008cc:	e12fff1e 	bx	lr
f00008d0:	f0001fb4 			; <UNDEFINED> instruction: 0xf0001fb4

f00008d4 <standby_clk_apb2hosc>:
f00008d4:	e59f3014 	ldr	r3, [pc, #20]	; f00008f0 <standby_clk_apb2hosc+0x1c>
f00008d8:	e3a00000 	mov	r0, #0
f00008dc:	e5933000 	ldr	r3, [r3]
f00008e0:	e5932058 	ldr	r2, [r3, #88]	; 0x58
f00008e4:	e7d92c1f 	bfc	r2, #24, #2
f00008e8:	e5832058 	str	r2, [r3, #88]	; 0x58
f00008ec:	e12fff1e 	bx	lr
f00008f0:	f0001fb4 			; <UNDEFINED> instruction: 0xf0001fb4

f00008f4 <mctl_precharge_all>:
f00008f4:	e59f3020 	ldr	r3, [pc, #32]	; f000091c <mctl_precharge_all+0x28>
f00008f8:	e5932004 	ldr	r2, [r3, #4]
f00008fc:	e3c2233e 	bic	r2, r2, #-134217728	; 0xf8000000
f0000900:	e382232a 	orr	r2, r2, #-1476395008	; 0xa8000000
f0000904:	e5832004 	str	r2, [r3, #4]
f0000908:	e5932004 	ldr	r2, [r3, #4]
f000090c:	e3520000 	cmp	r2, #0
f0000910:	bafffffc 	blt	f0000908 <mctl_precharge_all+0x14>
f0000914:	e3a00c01 	mov	r0, #256	; 0x100
f0000918:	ea000530 	b	f0001de0 <standby_delay>
f000091c:	f1c01000 			; <UNDEFINED> instruction: 0xf1c01000

f0000920 <mctl_mode_exit>:
f0000920:	e59f3020 	ldr	r3, [pc, #32]	; f0000948 <mctl_mode_exit+0x28>
f0000924:	e5932004 	ldr	r2, [r3, #4]
f0000928:	e3c2233e 	bic	r2, r2, #-134217728	; 0xf8000000
f000092c:	e382232e 	orr	r2, r2, #-1207959552	; 0xb8000000
f0000930:	e5832004 	str	r2, [r3, #4]
f0000934:	e5932004 	ldr	r2, [r3, #4]
f0000938:	e3520000 	cmp	r2, #0
f000093c:	bafffffc 	blt	f0000934 <mctl_mode_exit+0x14>
f0000940:	e3a00c01 	mov	r0, #256	; 0x100
f0000944:	ea000525 	b	f0001de0 <standby_delay>
f0000948:	f1c01000 			; <UNDEFINED> instruction: 0xf1c01000

f000094c <DRAMC_enter_power_down>:
f000094c:	e59f3020 	ldr	r3, [pc, #32]	; f0000974 <DRAMC_enter_power_down+0x28>
f0000950:	e5932004 	ldr	r2, [r3, #4]
f0000954:	e3c2233e 	bic	r2, r2, #-134217728	; 0xf8000000
f0000958:	e382220f 	orr	r2, r2, #-268435456	; 0xf0000000
f000095c:	e5832004 	str	r2, [r3, #4]
f0000960:	e5932004 	ldr	r2, [r3, #4]
f0000964:	e3520000 	cmp	r2, #0
f0000968:	bafffffc 	blt	f0000960 <DRAMC_enter_power_down+0x14>
f000096c:	e3a00c01 	mov	r0, #256	; 0x100
f0000970:	ea00051a 	b	f0001de0 <standby_delay>
f0000974:	f1c01000 			; <UNDEFINED> instruction: 0xf1c01000

f0000978 <DRAMC_exit_power_down>:
f0000978:	eaffffe8 	b	f0000920 <mctl_mode_exit>

f000097c <DRAMC_hostport_on_off>:
f000097c:	e350001f 	cmp	r0, #31
f0000980:	812fff1e 	bxhi	lr
f0000984:	e59f3014 	ldr	r3, [pc, #20]	; f00009a0 <DRAMC_hostport_on_off+0x24>
f0000988:	e3510000 	cmp	r1, #0
f000098c:	e7932100 	ldr	r2, [r3, r0, lsl #2]
f0000990:	13822001 	orrne	r2, r2, #1
f0000994:	03c22001 	biceq	r2, r2, #1
f0000998:	e7832100 	str	r2, [r3, r0, lsl #2]
f000099c:	e12fff1e 	bx	lr
f00009a0:	f1c01250 			; <UNDEFINED> instruction: 0xf1c01250

f00009a4 <DRAMC_exit_selfrefresh>:
f00009a4:	e92d4010 	push	{r4, lr}
f00009a8:	ebffffdc 	bl	f0000920 <mctl_mode_exit>
f00009ac:	e59f3050 	ldr	r3, [pc, #80]	; f0000a04 <DRAMC_exit_selfrefresh+0x60>
f00009b0:	e5932004 	ldr	r2, [r3, #4]
f00009b4:	e3c2233e 	bic	r2, r2, #-134217728	; 0xf8000000
f00009b8:	e3822326 	orr	r2, r2, #-1744830464	; 0x98000000
f00009bc:	e5832004 	str	r2, [r3, #4]
f00009c0:	e5932004 	ldr	r2, [r3, #4]
f00009c4:	e59f4038 	ldr	r4, [pc, #56]	; f0000a04 <DRAMC_exit_selfrefresh+0x60>
f00009c8:	e3520000 	cmp	r2, #0
f00009cc:	bafffffb 	blt	f00009c0 <DRAMC_exit_selfrefresh+0x1c>
f00009d0:	e3a00c01 	mov	r0, #256	; 0x100
f00009d4:	eb000501 	bl	f0001de0 <standby_delay>
f00009d8:	e5943010 	ldr	r3, [r4, #16]
f00009dc:	e3c33102 	bic	r3, r3, #-2147483648	; 0x80000000
f00009e0:	e5843010 	str	r3, [r4, #16]
f00009e4:	e3a04000 	mov	r4, #0
f00009e8:	e1a00004 	mov	r0, r4
f00009ec:	e3a01001 	mov	r1, #1
f00009f0:	e2844001 	add	r4, r4, #1
f00009f4:	ebffffe0 	bl	f000097c <DRAMC_hostport_on_off>
f00009f8:	e354001f 	cmp	r4, #31
f00009fc:	1afffff9 	bne	f00009e8 <DRAMC_exit_selfrefresh+0x44>
f0000a00:	e8bd8010 	pop	{r4, pc}
f0000a04:	f1c01000 			; <UNDEFINED> instruction: 0xf1c01000

f0000a08 <DRAMC_enter_selfrefresh>:
f0000a08:	e92d4010 	push	{r4, lr}
f0000a0c:	e3a04000 	mov	r4, #0
f0000a10:	e1a00004 	mov	r0, r4
f0000a14:	e3a01000 	mov	r1, #0
f0000a18:	e2844001 	add	r4, r4, #1
f0000a1c:	ebffffd6 	bl	f000097c <DRAMC_hostport_on_off>
f0000a20:	e354001f 	cmp	r4, #31
f0000a24:	1afffff9 	bne	f0000a10 <DRAMC_enter_selfrefresh+0x8>
f0000a28:	e59f4034 	ldr	r4, [pc, #52]	; f0000a64 <DRAMC_enter_selfrefresh+0x5c>
f0000a2c:	e5943010 	ldr	r3, [r4, #16]
f0000a30:	e3833102 	orr	r3, r3, #-2147483648	; 0x80000000
f0000a34:	e5843010 	str	r3, [r4, #16]
f0000a38:	ebffffad 	bl	f00008f4 <mctl_precharge_all>
f0000a3c:	e5943004 	ldr	r3, [r4, #4]
f0000a40:	e3c3333e 	bic	r3, r3, #-134217728	; 0xf8000000
f0000a44:	e3833209 	orr	r3, r3, #-1879048192	; 0x90000000
f0000a48:	e5843004 	str	r3, [r4, #4]
f0000a4c:	e5943004 	ldr	r3, [r4, #4]
f0000a50:	e3530000 	cmp	r3, #0
f0000a54:	bafffffc 	blt	f0000a4c <DRAMC_enter_selfrefresh+0x44>
f0000a58:	e3a00c01 	mov	r0, #256	; 0x100
f0000a5c:	e8bd4010 	pop	{r4, lr}
f0000a60:	ea0004de 	b	f0001de0 <standby_delay>
f0000a64:	f1c01000 			; <UNDEFINED> instruction: 0xf1c01000

f0000a68 <DRAMC_hostport_check_ahb_fifo_status>:
f0000a68:	e350001f 	cmp	r0, #31
f0000a6c:	83a00000 	movhi	r0, #0
f0000a70:	959f300c 	ldrls	r3, [pc, #12]	; f0000a84 <DRAMC_hostport_check_ahb_fifo_status+0x1c>
f0000a74:	95933234 	ldrls	r3, [r3, #564]	; 0x234
f0000a78:	91a00033 	lsrls	r0, r3, r0
f0000a7c:	92000001 	andls	r0, r0, #1
f0000a80:	e12fff1e 	bx	lr
f0000a84:	f1c01000 			; <UNDEFINED> instruction: 0xf1c01000

f0000a88 <DRAMC_hostport_setup>:
f0000a88:	e350001f 	cmp	r0, #31
f0000a8c:	e92d4010 	push	{r4, lr}
f0000a90:	88bd8010 	pophi	{r4, pc}
f0000a94:	e59fc030 	ldr	ip, [pc, #48]	; f0000acc <DRAMC_hostport_setup+0x44>
f0000a98:	e2011003 	and	r1, r1, #3
f0000a9c:	e1a02202 	lsl	r2, r2, #4
f0000aa0:	e2033003 	and	r3, r3, #3
f0000aa4:	e20220ff 	and	r2, r2, #255	; 0xff
f0000aa8:	e79c4100 	ldr	r4, [ip, r0, lsl #2]
f0000aac:	e3c4400c 	bic	r4, r4, #12
f0000ab0:	e1841101 	orr	r1, r4, r1, lsl #2
f0000ab4:	e3c110f0 	bic	r1, r1, #240	; 0xf0
f0000ab8:	e1812002 	orr	r2, r1, r2
f0000abc:	e3c22cff 	bic	r2, r2, #65280	; 0xff00
f0000ac0:	e1823403 	orr	r3, r2, r3, lsl #8
f0000ac4:	e78c3100 	str	r3, [ip, r0, lsl #2]
f0000ac8:	e8bd8010 	pop	{r4, pc}
f0000acc:	f1c01250 			; <UNDEFINED> instruction: 0xf1c01250

f0000ad0 <mctl_ahb_reset>:
f0000ad0:	e92d4010 	push	{r4, lr}
f0000ad4:	e3a00010 	mov	r0, #16
f0000ad8:	e59f401c 	ldr	r4, [pc, #28]	; f0000afc <mctl_ahb_reset+0x2c>
f0000adc:	e5943060 	ldr	r3, [r4, #96]	; 0x60
f0000ae0:	e3c33901 	bic	r3, r3, #16384	; 0x4000
f0000ae4:	e5843060 	str	r3, [r4, #96]	; 0x60
f0000ae8:	eb0004bc 	bl	f0001de0 <standby_delay>
f0000aec:	e5943060 	ldr	r3, [r4, #96]	; 0x60
f0000af0:	e3833901 	orr	r3, r3, #16384	; 0x4000
f0000af4:	e5843060 	str	r3, [r4, #96]	; 0x60
f0000af8:	e8bd8010 	pop	{r4, pc}
f0000afc:	f1c20000 			; <UNDEFINED> instruction: 0xf1c20000

f0000b00 <DRAMC_retraining>:
f0000b00:	e59f3118 	ldr	r3, [pc, #280]	; f0000c20 <DRAMC_retraining+0x120>
f0000b04:	e92d4ff0 	push	{r4, r5, r6, r7, r8, r9, sl, fp, lr}
f0000b08:	e24dd014 	sub	sp, sp, #20
f0000b0c:	e5932004 	ldr	r2, [r3, #4]
f0000b10:	e58d2000 	str	r2, [sp]
f0000b14:	e5932010 	ldr	r2, [r3, #16]
f0000b18:	e593b014 	ldr	fp, [r3, #20]
f0000b1c:	e5939018 	ldr	r9, [r3, #24]
f0000b20:	e58d2004 	str	r2, [sp, #4]
f0000b24:	e593a01c 	ldr	sl, [r3, #28]
f0000b28:	e59381f0 	ldr	r8, [r3, #496]	; 0x1f0
f0000b2c:	e59371f4 	ldr	r7, [r3, #500]	; 0x1f4
f0000b30:	e59361f8 	ldr	r6, [r3, #504]	; 0x1f8
f0000b34:	e59351fc 	ldr	r5, [r3, #508]	; 0x1fc
f0000b38:	e59320a8 	ldr	r2, [r3, #168]	; 0xa8
f0000b3c:	e5933008 	ldr	r3, [r3, #8]
f0000b40:	e58d2008 	str	r2, [sp, #8]
f0000b44:	e58d300c 	str	r3, [sp, #12]
f0000b48:	ebffffe0 	bl	f0000ad0 <mctl_ahb_reset>
f0000b4c:	e59f40cc 	ldr	r4, [pc, #204]	; f0000c20 <DRAMC_retraining+0x120>
f0000b50:	eb000052 	bl	f0000ca0 <mctl_ddr3_reset>
f0000b54:	eb00006c 	bl	f0000d0c <mctl_set_drive>
f0000b58:	e3a00000 	mov	r0, #0
f0000b5c:	eb000137 	bl	f0001040 <DRAMC_clock_output_en>
f0000b60:	e59f30bc 	ldr	r3, [pc, #188]	; f0000c24 <DRAMC_retraining+0x124>
f0000b64:	e58432e0 	str	r3, [r4, #736]	; 0x2e0
f0000b68:	eb00006f 	bl	f0000d2c <mctl_itm_disable>
f0000b6c:	eb00007a 	bl	f0000d5c <mctl_enable_dll0>
f0000b70:	e59d3000 	ldr	r3, [sp]
f0000b74:	e3a00001 	mov	r0, #1
f0000b78:	e5843004 	str	r3, [r4, #4]
f0000b7c:	eb00012f 	bl	f0001040 <DRAMC_clock_output_en>
f0000b80:	e3a00010 	mov	r0, #16
f0000b84:	eb000495 	bl	f0001de0 <standby_delay>
f0000b88:	e1a03004 	mov	r3, r4
f0000b8c:	e5932000 	ldr	r2, [r3]
f0000b90:	e59f4088 	ldr	r4, [pc, #136]	; f0000c20 <DRAMC_retraining+0x120>
f0000b94:	e3520000 	cmp	r2, #0
f0000b98:	bafffffb 	blt	f0000b8c <DRAMC_retraining+0x8c>
f0000b9c:	eb000083 	bl	f0000db0 <mctl_enable_dllx>
f0000ba0:	e59d2008 	ldr	r2, [sp, #8]
f0000ba4:	e59d300c 	ldr	r3, [sp, #12]
f0000ba8:	e58420a8 	str	r2, [r4, #168]	; 0xa8
f0000bac:	e59d2004 	ldr	r2, [sp, #4]
f0000bb0:	e5843008 	str	r3, [r4, #8]
f0000bb4:	e5842010 	str	r2, [r4, #16]
f0000bb8:	e584b014 	str	fp, [r4, #20]
f0000bbc:	e5849018 	str	r9, [r4, #24]
f0000bc0:	e584a01c 	str	sl, [r4, #28]
f0000bc4:	e58481f0 	str	r8, [r4, #496]	; 0x1f0
f0000bc8:	e58471f4 	str	r7, [r4, #500]	; 0x1f4
f0000bcc:	e58461f8 	str	r6, [r4, #504]	; 0x1f8
f0000bd0:	e58451fc 	str	r5, [r4, #508]	; 0x1fc
f0000bd4:	e5943000 	ldr	r3, [r4]
f0000bd8:	e3833901 	orr	r3, r3, #16384	; 0x4000
f0000bdc:	e5843000 	str	r3, [r4]
f0000be0:	e5943000 	ldr	r3, [r4]
f0000be4:	e3833102 	orr	r3, r3, #-2147483648	; 0x80000000
f0000be8:	e5843000 	str	r3, [r4]
f0000bec:	e59f302c 	ldr	r3, [pc, #44]	; f0000c20 <DRAMC_retraining+0x120>
f0000bf0:	e5933000 	ldr	r3, [r3]
f0000bf4:	e3530000 	cmp	r3, #0
f0000bf8:	bafffffb 	blt	f0000bec <DRAMC_retraining+0xec>
f0000bfc:	eb000050 	bl	f0000d44 <mctl_itm_enable>
f0000c00:	eb000101 	bl	f000100c <DRAMC_scan_readpipe>
f0000c04:	e1a04000 	mov	r4, r0
f0000c08:	eb0000a8 	bl	f0000eb0 <mctl_configure_hostport>
f0000c0c:	e3540000 	cmp	r4, #0
f0000c10:	1affffcc 	bne	f0000b48 <DRAMC_retraining+0x48>
f0000c14:	e1a00004 	mov	r0, r4
f0000c18:	e28dd014 	add	sp, sp, #20
f0000c1c:	e8bd8ff0 	pop	{r4, r5, r6, r7, r8, r9, sl, fp, pc}
f0000c20:	f1c01000 			; <UNDEFINED> instruction: 0xf1c01000
f0000c24:	16237495 			; <UNDEFINED> instruction: 0x16237495

f0000c28 <dram_power_save_process>:
f0000c28:	e92d4010 	push	{r4, lr}
f0000c2c:	ebffff75 	bl	f0000a08 <DRAMC_enter_selfrefresh>
f0000c30:	eb00003d 	bl	f0000d2c <mctl_itm_disable>
f0000c34:	e3a00000 	mov	r0, #0
f0000c38:	eb000100 	bl	f0001040 <DRAMC_clock_output_en>
f0000c3c:	e8bd4010 	pop	{r4, lr}
f0000c40:	ea000083 	b	f0000e54 <mctl_disable_dll>

f0000c44 <dram_power_up_process>:
f0000c44:	e92d4010 	push	{r4, lr}
f0000c48:	eb000037 	bl	f0000d2c <mctl_itm_disable>
f0000c4c:	eb000042 	bl	f0000d5c <mctl_enable_dll0>
f0000c50:	e3a00001 	mov	r0, #1
f0000c54:	eb0000f9 	bl	f0001040 <DRAMC_clock_output_en>
f0000c58:	e3a00010 	mov	r0, #16
f0000c5c:	eb00045f 	bl	f0001de0 <standby_delay>
f0000c60:	eb000052 	bl	f0000db0 <mctl_enable_dllx>
f0000c64:	eb000036 	bl	f0000d44 <mctl_itm_enable>
f0000c68:	ebffff4d 	bl	f00009a4 <DRAMC_exit_selfrefresh>
f0000c6c:	eb0000e6 	bl	f000100c <DRAMC_scan_readpipe>
f0000c70:	e2504000 	subs	r4, r0, #0
f0000c74:	0a000000 	beq	f0000c7c <dram_power_up_process+0x38>
f0000c78:	ebffffa0 	bl	f0000b00 <DRAMC_retraining>
f0000c7c:	e1a00004 	mov	r0, r4
f0000c80:	e8bd8010 	pop	{r4, pc}

f0000c84 <dram_enter_selfrefresh>:
f0000c84:	eaffff5f 	b	f0000a08 <DRAMC_enter_selfrefresh>

f0000c88 <dram_exit_selfrefresh>:
f0000c88:	eaffff45 	b	f00009a4 <DRAMC_exit_selfrefresh>

f0000c8c <dram_enter_power_down>:
f0000c8c:	eaffff2e 	b	f000094c <DRAMC_enter_power_down>

f0000c90 <dram_exit_power_down>:
f0000c90:	eaffff38 	b	f0000978 <DRAMC_exit_power_down>

f0000c94 <dram_hostport_on_off>:
f0000c94:	eaffff38 	b	f000097c <DRAMC_hostport_on_off>

f0000c98 <dram_hostport_check_ahb_fifo_status>:
f0000c98:	eaffff72 	b	f0000a68 <DRAMC_hostport_check_ahb_fifo_status>

f0000c9c <dram_hostport_setup>:
f0000c9c:	eaffff79 	b	f0000a88 <DRAMC_hostport_setup>

f0000ca0 <mctl_ddr3_reset>:
f0000ca0:	e59f305c 	ldr	r3, [pc, #92]	; f0000d04 <mctl_ddr3_reset+0x64>
f0000ca4:	e3a02000 	mov	r2, #0
f0000ca8:	e92d4010 	push	{r4, lr}
f0000cac:	e5832d3c 	str	r2, [r3, #3388]	; 0xd3c
f0000cb0:	e5933d3c 	ldr	r3, [r3, #3388]	; 0xd3c
f0000cb4:	e59f404c 	ldr	r4, [pc, #76]	; f0000d08 <mctl_ddr3_reset+0x68>
f0000cb8:	e31300c0 	tst	r3, #192	; 0xc0
f0000cbc:	1a000007 	bne	f0000ce0 <mctl_ddr3_reset+0x40>
f0000cc0:	e5943230 	ldr	r3, [r4, #560]	; 0x230
f0000cc4:	e3a00c01 	mov	r0, #256	; 0x100
f0000cc8:	e3c33a01 	bic	r3, r3, #4096	; 0x1000
f0000ccc:	e5843230 	str	r3, [r4, #560]	; 0x230
f0000cd0:	eb000442 	bl	f0001de0 <standby_delay>
f0000cd4:	e5943230 	ldr	r3, [r4, #560]	; 0x230
f0000cd8:	e3833a01 	orr	r3, r3, #4096	; 0x1000
f0000cdc:	ea000006 	b	f0000cfc <mctl_ddr3_reset+0x5c>
f0000ce0:	e5943230 	ldr	r3, [r4, #560]	; 0x230
f0000ce4:	e3a00c01 	mov	r0, #256	; 0x100
f0000ce8:	e3833a01 	orr	r3, r3, #4096	; 0x1000
f0000cec:	e5843230 	str	r3, [r4, #560]	; 0x230
f0000cf0:	eb00043a 	bl	f0001de0 <standby_delay>
f0000cf4:	e5943230 	ldr	r3, [r4, #560]	; 0x230
f0000cf8:	e3c33a01 	bic	r3, r3, #4096	; 0x1000
f0000cfc:	e5843230 	str	r3, [r4, #560]	; 0x230
f0000d00:	e8bd8010 	pop	{r4, pc}
f0000d04:	f1c20000 			; <UNDEFINED> instruction: 0xf1c20000
f0000d08:	f1c01000 			; <UNDEFINED> instruction: 0xf1c01000

f0000d0c <mctl_set_drive>:
f0000d0c:	e59f3014 	ldr	r3, [pc, #20]	; f0000d28 <mctl_set_drive+0x1c>
f0000d10:	e5932230 	ldr	r2, [r3, #560]	; 0x230
f0000d14:	e3822c6f 	orr	r2, r2, #28416	; 0x6f00
f0000d18:	e38220fc 	orr	r2, r2, #252	; 0xfc
f0000d1c:	e3c22003 	bic	r2, r2, #3
f0000d20:	e5832230 	str	r2, [r3, #560]	; 0x230
f0000d24:	e12fff1e 	bx	lr
f0000d28:	f1c01000 			; <UNDEFINED> instruction: 0xf1c01000

f0000d2c <mctl_itm_disable>:
f0000d2c:	e59f300c 	ldr	r3, [pc, #12]	; f0000d40 <mctl_itm_disable+0x14>
f0000d30:	e5932000 	ldr	r2, [r3]
f0000d34:	e3822201 	orr	r2, r2, #268435456	; 0x10000000
f0000d38:	e5832000 	str	r2, [r3]
f0000d3c:	e12fff1e 	bx	lr
f0000d40:	f1c01000 			; <UNDEFINED> instruction: 0xf1c01000

f0000d44 <mctl_itm_enable>:
f0000d44:	e59f300c 	ldr	r3, [pc, #12]	; f0000d58 <mctl_itm_enable+0x14>
f0000d48:	e5932000 	ldr	r2, [r3]
f0000d4c:	e3c22201 	bic	r2, r2, #268435456	; 0x10000000
f0000d50:	e5832000 	str	r2, [r3]
f0000d54:	e12fff1e 	bx	lr
f0000d58:	f1c01000 			; <UNDEFINED> instruction: 0xf1c01000

f0000d5c <mctl_enable_dll0>:
f0000d5c:	e92d4010 	push	{r4, lr}
f0000d60:	e3a00c01 	mov	r0, #256	; 0x100
f0000d64:	e59f4040 	ldr	r4, [pc, #64]	; f0000dac <mctl_enable_dll0+0x50>
f0000d68:	e5943204 	ldr	r3, [r4, #516]	; 0x204
f0000d6c:	e3c33103 	bic	r3, r3, #-1073741824	; 0xc0000000
f0000d70:	e3833102 	orr	r3, r3, #-2147483648	; 0x80000000
f0000d74:	e5843204 	str	r3, [r4, #516]	; 0x204
f0000d78:	eb000418 	bl	f0001de0 <standby_delay>
f0000d7c:	e5943204 	ldr	r3, [r4, #516]	; 0x204
f0000d80:	e3a00a01 	mov	r0, #4096	; 0x1000
f0000d84:	e3c33103 	bic	r3, r3, #-1073741824	; 0xc0000000
f0000d88:	e5843204 	str	r3, [r4, #516]	; 0x204
f0000d8c:	eb000413 	bl	f0001de0 <standby_delay>
f0000d90:	e5943204 	ldr	r3, [r4, #516]	; 0x204
f0000d94:	e3a00a01 	mov	r0, #4096	; 0x1000
f0000d98:	e3c33103 	bic	r3, r3, #-1073741824	; 0xc0000000
f0000d9c:	e3833101 	orr	r3, r3, #1073741824	; 0x40000000
f0000da0:	e5843204 	str	r3, [r4, #516]	; 0x204
f0000da4:	e8bd4010 	pop	{r4, lr}
f0000da8:	ea00040c 	b	f0001de0 <standby_delay>
f0000dac:	f1c01000 			; <UNDEFINED> instruction: 0xf1c01000

f0000db0 <mctl_enable_dllx>:
f0000db0:	e3a03001 	mov	r3, #1
f0000db4:	e92d4010 	push	{r4, lr}
f0000db8:	e59f2090 	ldr	r2, [pc, #144]	; f0000e50 <mctl_enable_dllx+0xa0>
f0000dbc:	e1a01103 	lsl	r1, r3, #2
f0000dc0:	e2833001 	add	r3, r3, #1
f0000dc4:	e0812002 	add	r2, r1, r2
f0000dc8:	e3530005 	cmp	r3, #5
f0000dcc:	e5921000 	ldr	r1, [r2]
f0000dd0:	e3c11103 	bic	r1, r1, #-1073741824	; 0xc0000000
f0000dd4:	e3811102 	orr	r1, r1, #-2147483648	; 0x80000000
f0000dd8:	e5821000 	str	r1, [r2]
f0000ddc:	1afffff5 	bne	f0000db8 <mctl_enable_dllx+0x8>
f0000de0:	e3a00c01 	mov	r0, #256	; 0x100
f0000de4:	eb0003fd 	bl	f0001de0 <standby_delay>
f0000de8:	e3a03001 	mov	r3, #1
f0000dec:	e59f205c 	ldr	r2, [pc, #92]	; f0000e50 <mctl_enable_dllx+0xa0>
f0000df0:	e1a01103 	lsl	r1, r3, #2
f0000df4:	e2833001 	add	r3, r3, #1
f0000df8:	e0812002 	add	r2, r1, r2
f0000dfc:	e3530005 	cmp	r3, #5
f0000e00:	e5921000 	ldr	r1, [r2]
f0000e04:	e3c11103 	bic	r1, r1, #-1073741824	; 0xc0000000
f0000e08:	e5821000 	str	r1, [r2]
f0000e0c:	1afffff6 	bne	f0000dec <mctl_enable_dllx+0x3c>
f0000e10:	e3a00a01 	mov	r0, #4096	; 0x1000
f0000e14:	eb0003f1 	bl	f0001de0 <standby_delay>
f0000e18:	e3a03001 	mov	r3, #1
f0000e1c:	e59f202c 	ldr	r2, [pc, #44]	; f0000e50 <mctl_enable_dllx+0xa0>
f0000e20:	e1a01103 	lsl	r1, r3, #2
f0000e24:	e2833001 	add	r3, r3, #1
f0000e28:	e0812002 	add	r2, r1, r2
f0000e2c:	e3530005 	cmp	r3, #5
f0000e30:	e5921000 	ldr	r1, [r2]
f0000e34:	e3c11103 	bic	r1, r1, #-1073741824	; 0xc0000000
f0000e38:	e3811101 	orr	r1, r1, #1073741824	; 0x40000000
f0000e3c:	e5821000 	str	r1, [r2]
f0000e40:	1afffff5 	bne	f0000e1c <mctl_enable_dllx+0x6c>
f0000e44:	e3a00a01 	mov	r0, #4096	; 0x1000
f0000e48:	e8bd4010 	pop	{r4, lr}
f0000e4c:	ea0003e3 	b	f0001de0 <standby_delay>
f0000e50:	f1c01204 			; <UNDEFINED> instruction: 0xf1c01204

f0000e54 <mctl_disable_dll>:
f0000e54:	e59f3050 	ldr	r3, [pc, #80]	; f0000eac <mctl_disable_dll+0x58>
f0000e58:	e5932204 	ldr	r2, [r3, #516]	; 0x204
f0000e5c:	e3c22101 	bic	r2, r2, #1073741824	; 0x40000000
f0000e60:	e3822102 	orr	r2, r2, #-2147483648	; 0x80000000
f0000e64:	e5832204 	str	r2, [r3, #516]	; 0x204
f0000e68:	e5932208 	ldr	r2, [r3, #520]	; 0x208
f0000e6c:	e3c22101 	bic	r2, r2, #1073741824	; 0x40000000
f0000e70:	e3822102 	orr	r2, r2, #-2147483648	; 0x80000000
f0000e74:	e5832208 	str	r2, [r3, #520]	; 0x208
f0000e78:	e593220c 	ldr	r2, [r3, #524]	; 0x20c
f0000e7c:	e3c22101 	bic	r2, r2, #1073741824	; 0x40000000
f0000e80:	e3822102 	orr	r2, r2, #-2147483648	; 0x80000000
f0000e84:	e583220c 	str	r2, [r3, #524]	; 0x20c
f0000e88:	e5932210 	ldr	r2, [r3, #528]	; 0x210
f0000e8c:	e3c22101 	bic	r2, r2, #1073741824	; 0x40000000
f0000e90:	e3822102 	orr	r2, r2, #-2147483648	; 0x80000000
f0000e94:	e5832210 	str	r2, [r3, #528]	; 0x210
f0000e98:	e5932214 	ldr	r2, [r3, #532]	; 0x214
f0000e9c:	e3c22101 	bic	r2, r2, #1073741824	; 0x40000000
f0000ea0:	e3822102 	orr	r2, r2, #-2147483648	; 0x80000000
f0000ea4:	e5832214 	str	r2, [r3, #532]	; 0x214
f0000ea8:	e12fff1e 	bx	lr
f0000eac:	f1c01000 			; <UNDEFINED> instruction: 0xf1c01000

f0000eb0 <mctl_configure_hostport>:
f0000eb0:	e59f1024 	ldr	r1, [pc, #36]	; f0000edc <mctl_configure_hostport+0x2c>
f0000eb4:	e3a03000 	mov	r3, #0
f0000eb8:	e59f2020 	ldr	r2, [pc, #32]	; f0000ee0 <mctl_configure_hostport+0x30>
f0000ebc:	e1a00103 	lsl	r0, r3, #2
f0000ec0:	e2833001 	add	r3, r3, #1
f0000ec4:	e0802002 	add	r2, r0, r2
f0000ec8:	e5b10004 	ldr	r0, [r1, #4]!
f0000ecc:	e3530020 	cmp	r3, #32
f0000ed0:	e5820000 	str	r0, [r2]
f0000ed4:	1afffff7 	bne	f0000eb8 <mctl_configure_hostport+0x8>
f0000ed8:	e12fff1e 	bx	lr
f0000edc:	f0001e34 			; <UNDEFINED> instruction: 0xf0001e34
f0000ee0:	f1c01250 			; <UNDEFINED> instruction: 0xf1c01250

f0000ee4 <mctl_setup_dram_clock>:
f0000ee4:	e59f3114 	ldr	r3, [pc, #276]	; f0001000 <mctl_setup_dram_clock+0x11c>
f0000ee8:	e3a01000 	mov	r1, #0
f0000eec:	e92d41f0 	push	{r4, r5, r6, r7, r8, lr}
f0000ef0:	e3a0e000 	mov	lr, #0
f0000ef4:	e593c020 	ldr	ip, [r3, #32]
f0000ef8:	e3a04018 	mov	r4, #24
f0000efc:	e3a05000 	mov	r5, #0
f0000f00:	e3ccc033 	bic	ip, ip, #51	; 0x33
f0000f04:	e38cc011 	orr	ip, ip, #17
f0000f08:	e3cccc1f 	bic	ip, ip, #7936	; 0x1f00
f0000f0c:	ea000002 	b	f0000f1c <mctl_setup_dram_clock+0x38>
f0000f10:	e0944004 	adds	r4, r4, r4
f0000f14:	e28ee001 	add	lr, lr, #1
f0000f18:	e0a55005 	adc	r5, r5, r5
f0000f1c:	e35e003b 	cmp	lr, #59	; 0x3b
f0000f20:	1afffffa 	bne	f0000f10 <mctl_setup_dram_clock+0x2c>
f0000f24:	e3a02000 	mov	r2, #0
f0000f28:	e3a03000 	mov	r3, #0
f0000f2c:	e1510005 	cmp	r1, r5
f0000f30:	01500004 	cmpeq	r0, r4
f0000f34:	3a000008 	bcc	f0000f5c <mctl_setup_dram_clock+0x78>
f0000f38:	e0500004 	subs	r0, r0, r4
f0000f3c:	e0c11005 	sbc	r1, r1, r5
f0000f40:	e0922002 	adds	r2, r2, r2
f0000f44:	e0a33003 	adc	r3, r3, r3
f0000f48:	e3a06001 	mov	r6, #1
f0000f4c:	e3a07000 	mov	r7, #0
f0000f50:	e1822006 	orr	r2, r2, r6
f0000f54:	e1833007 	orr	r3, r3, r7
f0000f58:	ea000001 	b	f0000f64 <mctl_setup_dram_clock+0x80>
f0000f5c:	e0922002 	adds	r2, r2, r2
f0000f60:	e0a33003 	adc	r3, r3, r3
f0000f64:	e25ee001 	subs	lr, lr, #1
f0000f68:	4a000002 	bmi	f0000f78 <mctl_setup_dram_clock+0x94>
f0000f6c:	e1b050a5 	lsrs	r5, r5, #1
f0000f70:	e1a04064 	rrx	r4, r4
f0000f74:	eaffffec 	b	f0000f2c <mctl_setup_dram_clock+0x48>
f0000f78:	e202301f 	and	r3, r2, #31
f0000f7c:	e59f407c 	ldr	r4, [pc, #124]	; f0001000 <mctl_setup_dram_clock+0x11c>
f0000f80:	e3a00601 	mov	r0, #1048576	; 0x100000
f0000f84:	e18c3403 	orr	r3, ip, r3, lsl #8
f0000f88:	e3c33803 	bic	r3, r3, #196608	; 0x30000
f0000f8c:	e3833801 	orr	r3, r3, #65536	; 0x10000
f0000f90:	e3c33202 	bic	r3, r3, #536870912	; 0x20000000
f0000f94:	e3833102 	orr	r3, r3, #-2147483648	; 0x80000000
f0000f98:	e5843020 	str	r3, [r4, #32]
f0000f9c:	eb00038f 	bl	f0001de0 <standby_delay>
f0000fa0:	e5943020 	ldr	r3, [r4, #32]
f0000fa4:	e3a00020 	mov	r0, #32
f0000fa8:	e3833202 	orr	r3, r3, #536870912	; 0x20000000
f0000fac:	e5843020 	str	r3, [r4, #32]
f0000fb0:	e59430d0 	ldr	r3, [r4, #208]	; 0xd0
f0000fb4:	e3c33003 	bic	r3, r3, #3
f0000fb8:	e58430d0 	str	r3, [r4, #208]	; 0xd0
f0000fbc:	e5943060 	ldr	r3, [r4, #96]	; 0x60
f0000fc0:	e3833301 	orr	r3, r3, #67108864	; 0x4000000
f0000fc4:	e5843060 	str	r3, [r4, #96]	; 0x60
f0000fc8:	eb000384 	bl	f0001de0 <standby_delay>
f0000fcc:	e5943060 	ldr	r3, [r4, #96]	; 0x60
f0000fd0:	e3a00a01 	mov	r0, #4096	; 0x1000
f0000fd4:	e3c33301 	bic	r3, r3, #67108864	; 0x4000000
f0000fd8:	e5843060 	str	r3, [r4, #96]	; 0x60
f0000fdc:	e5945060 	ldr	r5, [r4, #96]	; 0x60
f0000fe0:	e3c55901 	bic	r5, r5, #16384	; 0x4000
f0000fe4:	e5845060 	str	r5, [r4, #96]	; 0x60
f0000fe8:	eb00037c 	bl	f0001de0 <standby_delay>
f0000fec:	e3855901 	orr	r5, r5, #16384	; 0x4000
f0000ff0:	e3a00a01 	mov	r0, #4096	; 0x1000
f0000ff4:	e5845060 	str	r5, [r4, #96]	; 0x60
f0000ff8:	e8bd41f0 	pop	{r4, r5, r6, r7, r8, lr}
f0000ffc:	ea000377 	b	f0001de0 <standby_delay>
f0001000:	f1c20000 			; <UNDEFINED> instruction: 0xf1c20000

f0001004 <DRAMC_exit>:
f0001004:	e3a00000 	mov	r0, #0
f0001008:	e12fff1e 	bx	lr

f000100c <DRAMC_scan_readpipe>:
f000100c:	e59f3028 	ldr	r3, [pc, #40]	; f000103c <DRAMC_scan_readpipe+0x30>
f0001010:	e5932000 	ldr	r2, [r3]
f0001014:	e3822101 	orr	r2, r2, #1073741824	; 0x40000000
f0001018:	e5832000 	str	r2, [r3]
f000101c:	e5932000 	ldr	r2, [r3]
f0001020:	e3120101 	tst	r2, #1073741824	; 0x40000000
f0001024:	1afffffc 	bne	f000101c <DRAMC_scan_readpipe+0x10>
f0001028:	e59f300c 	ldr	r3, [pc, #12]	; f000103c <DRAMC_scan_readpipe+0x30>
f000102c:	e593000c 	ldr	r0, [r3, #12]
f0001030:	e2100601 	ands	r0, r0, #1048576	; 0x100000
f0001034:	13e00000 	mvnne	r0, #0
f0001038:	e12fff1e 	bx	lr
f000103c:	f1c01000 			; <UNDEFINED> instruction: 0xf1c01000

f0001040 <DRAMC_clock_output_en>:
f0001040:	e59f2014 	ldr	r2, [pc, #20]	; f000105c <DRAMC_clock_output_en+0x1c>
f0001044:	e3500000 	cmp	r0, #0
f0001048:	e5923100 	ldr	r3, [r2, #256]	; 0x100
f000104c:	13833902 	orrne	r3, r3, #32768	; 0x8000
f0001050:	03c33902 	biceq	r3, r3, #32768	; 0x8000
f0001054:	e5823100 	str	r3, [r2, #256]	; 0x100
f0001058:	e12fff1e 	bx	lr
f000105c:	f1c20000 			; <UNDEFINED> instruction: 0xf1c20000

f0001060 <DRAMC_set_autorefresh_cycle>:
f0001060:	e59f3050 	ldr	r3, [pc, #80]	; f00010b8 <DRAMC_set_autorefresh_cycle+0x58>
f0001064:	e3500f96 	cmp	r0, #600	; 0x258
f0001068:	e5932004 	ldr	r2, [r3, #4]
f000106c:	23a02000 	movcs	r2, #0
f0001070:	25832010 	strcs	r2, [r3, #16]
f0001074:	212fff1e 	bxcs	lr
f0001078:	e7e231d2 	ubfx	r3, r2, #3, #3
f000107c:	e3012f33 	movw	r2, #7987	; 0x1f33
f0001080:	e3530002 	cmp	r3, #2
f0001084:	93a03083 	movls	r3, #131	; 0x83
f0001088:	83a03e15 	movhi	r3, #336	; 0x150
f000108c:	e0030093 	mul	r3, r3, r0
f0001090:	e0000092 	mul	r0, r2, r0
f0001094:	e59f201c 	ldr	r2, [pc, #28]	; f00010b8 <DRAMC_set_autorefresh_cycle+0x58>
f0001098:	e1a03523 	lsr	r3, r3, #10
f000109c:	e1a00520 	lsr	r0, r0, #10
f00010a0:	e0800180 	add	r0, r0, r0, lsl #3
f00010a4:	e24000c8 	sub	r0, r0, #200	; 0xc8
f00010a8:	e1833400 	orr	r3, r3, r0, lsl #8
f00010ac:	e3833302 	orr	r3, r3, #134217728	; 0x8000000
f00010b0:	e5823010 	str	r3, [r2, #16]
f00010b4:	e12fff1e 	bx	lr
f00010b8:	f1c01000 			; <UNDEFINED> instruction: 0xf1c01000

f00010bc <DRAMC_get_dram_size>:
f00010bc:	e59f3068 	ldr	r3, [pc, #104]	; f000112c <DRAMC_get_dram_size+0x70>
f00010c0:	e5933004 	ldr	r3, [r3, #4]
f00010c4:	e7e201d3 	ubfx	r0, r3, #3, #3
f00010c8:	e3500000 	cmp	r0, #0
f00010cc:	03a00020 	moveq	r0, #32
f00010d0:	0a00000b 	beq	f0001104 <DRAMC_get_dram_size+0x48>
f00010d4:	e3500001 	cmp	r0, #1
f00010d8:	03a00040 	moveq	r0, #64	; 0x40
f00010dc:	0a000008 	beq	f0001104 <DRAMC_get_dram_size+0x48>
f00010e0:	e3500002 	cmp	r0, #2
f00010e4:	03a00080 	moveq	r0, #128	; 0x80
f00010e8:	0a000005 	beq	f0001104 <DRAMC_get_dram_size+0x48>
f00010ec:	e3500003 	cmp	r0, #3
f00010f0:	03a00c01 	moveq	r0, #256	; 0x100
f00010f4:	0a000002 	beq	f0001104 <DRAMC_get_dram_size+0x48>
f00010f8:	e3500004 	cmp	r0, #4
f00010fc:	13a00b01 	movne	r0, #1024	; 0x400
f0001100:	03a00c02 	moveq	r0, #512	; 0x200
f0001104:	e7e120d3 	ubfx	r2, r3, #1, #2
f0001108:	e3520001 	cmp	r2, #1
f000110c:	e7e22353 	ubfx	r2, r3, #6, #3
f0001110:	01a00080 	lsleq	r0, r0, #1
f0001114:	e3520003 	cmp	r2, #3
f0001118:	e7e13553 	ubfx	r3, r3, #10, #2
f000111c:	01a00080 	lsleq	r0, r0, #1
f0001120:	e3530001 	cmp	r3, #1
f0001124:	01a00080 	lsleq	r0, r0, #1
f0001128:	e12fff1e 	bx	lr
f000112c:	f1c01000 			; <UNDEFINED> instruction: 0xf1c01000

f0001130 <DRAMC_init>:
f0001130:	e92d4070 	push	{r4, r5, r6, lr}
f0001134:	e2504000 	subs	r4, r0, #0
f0001138:	03e00000 	mvneq	r0, #0
f000113c:	08bd8070 	popeq	{r4, r5, r6, pc}
f0001140:	e5940004 	ldr	r0, [r4, #4]
f0001144:	ebffff66 	bl	f0000ee4 <mctl_setup_dram_clock>
f0001148:	ebfffed4 	bl	f0000ca0 <mctl_ddr3_reset>
f000114c:	ebfffeee 	bl	f0000d0c <mctl_set_drive>
f0001150:	e3a00000 	mov	r0, #0
f0001154:	ebffffb9 	bl	f0001040 <DRAMC_clock_output_en>
f0001158:	e59f21a4 	ldr	r2, [pc, #420]	; f0001304 <DRAMC_init+0x1d4>
f000115c:	e59f31a4 	ldr	r3, [pc, #420]	; f0001308 <DRAMC_init+0x1d8>
f0001160:	e58322e0 	str	r2, [r3, #736]	; 0x2e0
f0001164:	ebfffef0 	bl	f0000d2c <mctl_itm_disable>
f0001168:	ebfffefb 	bl	f0000d5c <mctl_enable_dll0>
f000116c:	e5943008 	ldr	r3, [r4, #8]
f0001170:	e5942014 	ldr	r2, [r4, #20]
f0001174:	e2431003 	sub	r1, r3, #3
f0001178:	e2713000 	rsbs	r3, r1, #0
f000117c:	e1a021a2 	lsr	r2, r2, #3
f0001180:	e0a33001 	adc	r3, r3, r1
f0001184:	e1833082 	orr	r3, r3, r2, lsl #1
f0001188:	e5942010 	ldr	r2, [r4, #16]
f000118c:	e3520c01 	cmp	r2, #256	; 0x100
f0001190:	0a00000d 	beq	f00011cc <DRAMC_init+0x9c>
f0001194:	e3520c02 	cmp	r2, #512	; 0x200
f0001198:	03833008 	orreq	r3, r3, #8
f000119c:	0a00000a 	beq	f00011cc <DRAMC_init+0x9c>
f00011a0:	e3520b01 	cmp	r2, #1024	; 0x400
f00011a4:	03833010 	orreq	r3, r3, #16
f00011a8:	0a000007 	beq	f00011cc <DRAMC_init+0x9c>
f00011ac:	e3520b02 	cmp	r2, #2048	; 0x800
f00011b0:	03833018 	orreq	r3, r3, #24
f00011b4:	0a000004 	beq	f00011cc <DRAMC_init+0x9c>
f00011b8:	e3520a01 	cmp	r2, #4096	; 0x1000
f00011bc:	03833020 	orreq	r3, r3, #32
f00011c0:	0a000001 	beq	f00011cc <DRAMC_init+0x9c>
f00011c4:	e3520a02 	cmp	r2, #8192	; 0x2000
f00011c8:	03833028 	orreq	r3, r3, #40	; 0x28
f00011cc:	e594100c 	ldr	r1, [r4, #12]
f00011d0:	e3a00001 	mov	r0, #1
f00011d4:	e5942018 	ldr	r2, [r4, #24]
f00011d8:	e2411001 	sub	r1, r1, #1
f00011dc:	e59f5124 	ldr	r5, [pc, #292]	; f0001308 <DRAMC_init+0x1d8>
f00011e0:	e1a021a2 	lsr	r2, r2, #3
f00011e4:	e1a01501 	lsl	r1, r1, #10
f00011e8:	e2422001 	sub	r2, r2, #1
f00011ec:	e3811a03 	orr	r1, r1, #12288	; 0x3000
f00011f0:	e1812302 	orr	r2, r1, r2, lsl #6
f00011f4:	e1823003 	orr	r3, r2, r3
f00011f8:	e5853004 	str	r3, [r5, #4]
f00011fc:	ebffff8f 	bl	f0001040 <DRAMC_clock_output_en>
f0001200:	e3a00010 	mov	r0, #16
f0001204:	eb0002f5 	bl	f0001de0 <standby_delay>
f0001208:	e1a03005 	mov	r3, r5
f000120c:	e5932000 	ldr	r2, [r3]
f0001210:	e59f50f0 	ldr	r5, [pc, #240]	; f0001308 <DRAMC_init+0x1d8>
f0001214:	e3520000 	cmp	r2, #0
f0001218:	bafffffb 	blt	f000120c <DRAMC_init+0xdc>
f000121c:	ebfffee3 	bl	f0000db0 <mctl_enable_dllx>
f0001220:	e59530a8 	ldr	r3, [r5, #168]	; 0xa8
f0001224:	e5d42020 	ldrb	r2, [r4, #32]
f0001228:	e3c336ff 	bic	r3, r3, #267386880	; 0xff00000
f000122c:	e1833a02 	orr	r3, r3, r2, lsl #20
f0001230:	e58530a8 	str	r3, [r5, #168]	; 0xa8
f0001234:	e5943024 	ldr	r3, [r4, #36]	; 0x24
f0001238:	e2036003 	and	r6, r3, #3
f000123c:	e1866f03 	orr	r6, r6, r3, lsl #30
f0001240:	e3866733 	orr	r6, r6, #13369344	; 0xcc0000
f0001244:	e5856008 	str	r6, [r5, #8]
f0001248:	e5940004 	ldr	r0, [r4, #4]
f000124c:	ebffff83 	bl	f0001060 <DRAMC_set_autorefresh_cycle>
f0001250:	e594302c 	ldr	r3, [r4, #44]	; 0x2c
f0001254:	e5853014 	str	r3, [r5, #20]
f0001258:	e5943030 	ldr	r3, [r4, #48]	; 0x30
f000125c:	e5853018 	str	r3, [r5, #24]
f0001260:	e5943034 	ldr	r3, [r4, #52]	; 0x34
f0001264:	e585301c 	str	r3, [r5, #28]
f0001268:	e5943008 	ldr	r3, [r4, #8]
f000126c:	e3530003 	cmp	r3, #3
f0001270:	0594601c 	ldreq	r6, [r4, #28]
f0001274:	02466004 	subeq	r6, r6, #4
f0001278:	01a06206 	lsleq	r6, r6, #4
f000127c:	03866c0a 	orreq	r6, r6, #2560	; 0xa00
f0001280:	0a000004 	beq	f0001298 <DRAMC_init+0x168>
f0001284:	e3530002 	cmp	r3, #2
f0001288:	0594601c 	ldreq	r6, [r4, #28]
f000128c:	01a06206 	lsleq	r6, r6, #4
f0001290:	03866c0a 	orreq	r6, r6, #2560	; 0xa00
f0001294:	03866002 	orreq	r6, r6, #2
f0001298:	e59f3068 	ldr	r3, [pc, #104]	; f0001308 <DRAMC_init+0x1d8>
f000129c:	e58361f0 	str	r6, [r3, #496]	; 0x1f0
f00012a0:	e5942044 	ldr	r2, [r4, #68]	; 0x44
f00012a4:	e58321f4 	str	r2, [r3, #500]	; 0x1f4
f00012a8:	e5942048 	ldr	r2, [r4, #72]	; 0x48
f00012ac:	e58321f8 	str	r2, [r3, #504]	; 0x1f8
f00012b0:	e594204c 	ldr	r2, [r4, #76]	; 0x4c
f00012b4:	e58321fc 	str	r2, [r3, #508]	; 0x1fc
f00012b8:	e5932000 	ldr	r2, [r3]
f00012bc:	e3822901 	orr	r2, r2, #16384	; 0x4000
f00012c0:	e3c22802 	bic	r2, r2, #131072	; 0x20000
f00012c4:	e5832000 	str	r2, [r3]
f00012c8:	e5932000 	ldr	r2, [r3]
f00012cc:	e3822102 	orr	r2, r2, #-2147483648	; 0x80000000
f00012d0:	e5832000 	str	r2, [r3]
f00012d4:	e5932000 	ldr	r2, [r3]
f00012d8:	e3520000 	cmp	r2, #0
f00012dc:	bafffffc 	blt	f00012d4 <DRAMC_init+0x1a4>
f00012e0:	ebfffe97 	bl	f0000d44 <mctl_itm_enable>
f00012e4:	ebffff48 	bl	f000100c <DRAMC_scan_readpipe>
f00012e8:	e3500000 	cmp	r0, #0
f00012ec:	ba000002 	blt	f00012fc <DRAMC_init+0x1cc>
f00012f0:	ebfffeee 	bl	f0000eb0 <mctl_configure_hostport>
f00012f4:	e8bd4070 	pop	{r4, r5, r6, lr}
f00012f8:	eaffff6f 	b	f00010bc <DRAMC_get_dram_size>
f00012fc:	e3a00000 	mov	r0, #0
f0001300:	e8bd8070 	pop	{r4, r5, r6, pc}
f0001304:	16237495 			; <UNDEFINED> instruction: 0x16237495
f0001308:	f1c01000 			; <UNDEFINED> instruction: 0xf1c01000

f000130c <dram_init>:
f000130c:	e3a00000 	mov	r0, #0
f0001310:	e12fff1e 	bx	lr

f0001314 <dram_exit>:
f0001314:	e3a00000 	mov	r0, #0
f0001318:	e12fff1e 	bx	lr

f000131c <dram_get_size>:
f000131c:	eaffff66 	b	f00010bc <DRAMC_get_dram_size>

f0001320 <dram_set_clock>:
f0001320:	eafffeef 	b	f0000ee4 <mctl_setup_dram_clock>

f0001324 <dram_set_drive>:
f0001324:	eafffe78 	b	f0000d0c <mctl_set_drive>

f0001328 <dram_set_autorefresh_cycle>:
f0001328:	eaffff4c 	b	f0001060 <DRAMC_set_autorefresh_cycle>

f000132c <dram_scan_readpipe>:
f000132c:	eaffff36 	b	f000100c <DRAMC_scan_readpipe>

f0001330 <standby_int_init>:
f0001330:	e59f3084 	ldr	r3, [pc, #132]	; f00013bc <standby_int_init+0x8c>
f0001334:	e3a00000 	mov	r0, #0
f0001338:	e59f2080 	ldr	r2, [pc, #128]	; f00013c0 <standby_int_init+0x90>
f000133c:	e5823000 	str	r3, [r2]
f0001340:	e5931040 	ldr	r1, [r3, #64]	; 0x40
f0001344:	e5821004 	str	r1, [r2, #4]
f0001348:	e5931044 	ldr	r1, [r3, #68]	; 0x44
f000134c:	e5821008 	str	r1, [r2, #8]
f0001350:	e5931048 	ldr	r1, [r3, #72]	; 0x48
f0001354:	e582100c 	str	r1, [r2, #12]
f0001358:	e5931050 	ldr	r1, [r3, #80]	; 0x50
f000135c:	e5821010 	str	r1, [r2, #16]
f0001360:	e5931054 	ldr	r1, [r3, #84]	; 0x54
f0001364:	e5821014 	str	r1, [r2, #20]
f0001368:	e5931058 	ldr	r1, [r3, #88]	; 0x58
f000136c:	e5821018 	str	r1, [r2, #24]
f0001370:	e5931030 	ldr	r1, [r3, #48]	; 0x30
f0001374:	e582101c 	str	r1, [r2, #28]
f0001378:	e5931034 	ldr	r1, [r3, #52]	; 0x34
f000137c:	e5821020 	str	r1, [r2, #32]
f0001380:	e5931038 	ldr	r1, [r3, #56]	; 0x38
f0001384:	e5821024 	str	r1, [r2, #36]	; 0x24
f0001388:	e3e02000 	mvn	r2, #0
f000138c:	e5830040 	str	r0, [r3, #64]	; 0x40
f0001390:	e5830044 	str	r0, [r3, #68]	; 0x44
f0001394:	e5830048 	str	r0, [r3, #72]	; 0x48
f0001398:	e5832050 	str	r2, [r3, #80]	; 0x50
f000139c:	e5832054 	str	r2, [r3, #84]	; 0x54
f00013a0:	e5832058 	str	r2, [r3, #88]	; 0x58
f00013a4:	e2822002 	add	r2, r2, #2
f00013a8:	e5830030 	str	r0, [r3, #48]	; 0x30
f00013ac:	e5830034 	str	r0, [r3, #52]	; 0x34
f00013b0:	e5830038 	str	r0, [r3, #56]	; 0x38
f00013b4:	e5832010 	str	r2, [r3, #16]
f00013b8:	e12fff1e 	bx	lr
f00013bc:	f1c20400 			; <UNDEFINED> instruction: 0xf1c20400
f00013c0:	f0001fd4 			; <UNDEFINED> instruction: 0xf0001fd4

f00013c4 <standby_int_exit>:
f00013c4:	e59f3050 	ldr	r3, [pc, #80]	; f000141c <standby_int_exit+0x58>
f00013c8:	e3a00000 	mov	r0, #0
f00013cc:	e5932000 	ldr	r2, [r3]
f00013d0:	e5931004 	ldr	r1, [r3, #4]
f00013d4:	e5821040 	str	r1, [r2, #64]	; 0x40
f00013d8:	e5931008 	ldr	r1, [r3, #8]
f00013dc:	e5821044 	str	r1, [r2, #68]	; 0x44
f00013e0:	e593100c 	ldr	r1, [r3, #12]
f00013e4:	e5821048 	str	r1, [r2, #72]	; 0x48
f00013e8:	e5931010 	ldr	r1, [r3, #16]
f00013ec:	e5821050 	str	r1, [r2, #80]	; 0x50
f00013f0:	e5931014 	ldr	r1, [r3, #20]
f00013f4:	e5821054 	str	r1, [r2, #84]	; 0x54
f00013f8:	e5931018 	ldr	r1, [r3, #24]
f00013fc:	e5821058 	str	r1, [r2, #88]	; 0x58
f0001400:	e593101c 	ldr	r1, [r3, #28]
f0001404:	e5821030 	str	r1, [r2, #48]	; 0x30
f0001408:	e5931020 	ldr	r1, [r3, #32]
f000140c:	e5933024 	ldr	r3, [r3, #36]	; 0x24
f0001410:	e5821034 	str	r1, [r2, #52]	; 0x34
f0001414:	e5823038 	str	r3, [r2, #56]	; 0x38
f0001418:	e12fff1e 	bx	lr
f000141c:	f0001fd4 			; <UNDEFINED> instruction: 0xf0001fd4

f0001420 <standby_enable_int>:
f0001420:	e59f303c 	ldr	r3, [pc, #60]	; f0001464 <standby_enable_int+0x44>
f0001424:	e1a022a0 	lsr	r2, r0, #5
f0001428:	e2821010 	add	r1, r2, #16
f000142c:	e200001f 	and	r0, r0, #31
f0001430:	e92d4010 	push	{r4, lr}
f0001434:	e3a04001 	mov	r4, #1
f0001438:	e5933000 	ldr	r3, [r3]
f000143c:	e2822014 	add	r2, r2, #20
f0001440:	e1a00014 	lsl	r0, r4, r0
f0001444:	e793c101 	ldr	ip, [r3, r1, lsl #2]
f0001448:	e180c00c 	orr	ip, r0, ip
f000144c:	e783c101 	str	ip, [r3, r1, lsl #2]
f0001450:	e7931102 	ldr	r1, [r3, r2, lsl #2]
f0001454:	e1c10000 	bic	r0, r1, r0
f0001458:	e7830102 	str	r0, [r3, r2, lsl #2]
f000145c:	e3a00000 	mov	r0, #0
f0001460:	e8bd8010 	pop	{r4, pc}
f0001464:	f0001fd4 			; <UNDEFINED> instruction: 0xf0001fd4

f0001468 <standby_query_int>:
f0001468:	e59f3024 	ldr	r3, [pc, #36]	; f0001494 <standby_query_int+0x2c>
f000146c:	e1a022a0 	lsr	r2, r0, #5
f0001470:	e2822004 	add	r2, r2, #4
f0001474:	e200001f 	and	r0, r0, #31
f0001478:	e5933000 	ldr	r3, [r3]
f000147c:	e7933102 	ldr	r3, [r3, r2, lsl #2]
f0001480:	e3a02001 	mov	r2, #1
f0001484:	e0132012 	ands	r2, r3, r2, lsl r0
f0001488:	03e00000 	mvneq	r0, #0
f000148c:	13a00000 	movne	r0, #0
f0001490:	e12fff1e 	bx	lr
f0001494:	f0001fd4 			; <UNDEFINED> instruction: 0xf0001fd4

f0001498 <standby_ir_init>:
f0001498:	e3a00000 	mov	r0, #0
f000149c:	e12fff1e 	bx	lr

f00014a0 <standby_ir_exit>:
f00014a0:	e3a00000 	mov	r0, #0
f00014a4:	e12fff1e 	bx	lr

f00014a8 <standby_ir_detect>:
f00014a8:	e3a00000 	mov	r0, #0
f00014ac:	e12fff1e 	bx	lr

f00014b0 <standby_ir_verify>:
f00014b0:	e3e00000 	mvn	r0, #0
f00014b4:	e12fff1e 	bx	lr

f00014b8 <standby_key_init>:
f00014b8:	e92d4038 	push	{r3, r4, r5, lr}
f00014bc:	e3a0000a 	mov	r0, #10
f00014c0:	e59f3040 	ldr	r3, [pc, #64]	; f0001508 <standby_key_init+0x50>
f00014c4:	e3a05000 	mov	r5, #0
f00014c8:	e59f403c 	ldr	r4, [pc, #60]	; f000150c <standby_key_init+0x54>
f00014cc:	e5843000 	str	r3, [r4]
f00014d0:	e5932000 	ldr	r2, [r3]
f00014d4:	e5842004 	str	r2, [r4, #4]
f00014d8:	e5932004 	ldr	r2, [r3, #4]
f00014dc:	e5842008 	str	r2, [r4, #8]
f00014e0:	e5835000 	str	r5, [r3]
f00014e4:	ebfffba3 	bl	f0000378 <standby_mdelay>
f00014e8:	e5943000 	ldr	r3, [r4]
f00014ec:	e3a02041 	mov	r2, #65	; 0x41
f00014f0:	e1a00005 	mov	r0, r5
f00014f4:	e5832000 	str	r2, [r3]
f00014f8:	e3a02002 	mov	r2, #2
f00014fc:	e5832004 	str	r2, [r3, #4]
f0001500:	e5832008 	str	r2, [r3, #8]
f0001504:	e8bd8038 	pop	{r3, r4, r5, pc}
f0001508:	f1c22800 			; <UNDEFINED> instruction: 0xf1c22800
f000150c:	f0001ffc 			; <UNDEFINED> instruction: 0xf0001ffc

f0001510 <standby_key_exit>:
f0001510:	e59f3014 	ldr	r3, [pc, #20]	; f000152c <standby_key_exit+0x1c>
f0001514:	e3a00000 	mov	r0, #0
f0001518:	e5932000 	ldr	r2, [r3]
f000151c:	e993000a 	ldmib	r3, {r1, r3}
f0001520:	e5821000 	str	r1, [r2]
f0001524:	e5823004 	str	r3, [r2, #4]
f0001528:	e12fff1e 	bx	lr
f000152c:	f0001ffc 			; <UNDEFINED> instruction: 0xf0001ffc

f0001530 <standby_query_key>:
f0001530:	e59f301c 	ldr	r3, [pc, #28]	; f0001554 <standby_query_key+0x24>
f0001534:	e5933000 	ldr	r3, [r3]
f0001538:	e5932008 	ldr	r2, [r3, #8]
f000153c:	e3120002 	tst	r2, #2
f0001540:	13a02002 	movne	r2, #2
f0001544:	13a00000 	movne	r0, #0
f0001548:	15832008 	strne	r2, [r3, #8]
f000154c:	03e00000 	mvneq	r0, #0
f0001550:	e12fff1e 	bx	lr
f0001554:	f0001ffc 			; <UNDEFINED> instruction: 0xf0001ffc

f0001558 <raw_lib_udiv>:
f0001558:	e2512000 	subs	r2, r1, #0
f000155c:	e1a03000 	mov	r3, r0
f0001560:	13a01000 	movne	r1, #0
f0001564:	1a000002 	bne	f0001574 <raw_lib_udiv+0x1c>
f0001568:	ea00000c 	b	f00015a0 <raw_lib_udiv+0x48>
f000156c:	e1a02082 	lsl	r2, r2, #1
f0001570:	e2811001 	add	r1, r1, #1
f0001574:	e3520000 	cmp	r2, #0
f0001578:	aafffffb 	bge	f000156c <raw_lib_udiv+0x14>
f000157c:	e3a00000 	mov	r0, #0
f0001580:	e1530002 	cmp	r3, r2
f0001584:	e1a00080 	lsl	r0, r0, #1
f0001588:	20623003 	rsbcs	r3, r2, r3
f000158c:	23800001 	orrcs	r0, r0, #1
f0001590:	e2511001 	subs	r1, r1, #1
f0001594:	412fff1e 	bxmi	lr
f0001598:	e1a020a2 	lsr	r2, r2, #1
f000159c:	eafffff7 	b	f0001580 <raw_lib_udiv+0x28>
f00015a0:	e1a00002 	mov	r0, r2
f00015a4:	e12fff1e 	bx	lr

f00015a8 <find_info>:
f00015a8:	e3a02000 	mov	r2, #0
f00015ac:	e1a0c000 	mov	ip, r0
f00015b0:	e1a03002 	mov	r3, r2
f00015b4:	ea000007 	b	f00015d8 <find_info+0x30>
f00015b8:	e59f1028 	ldr	r1, [pc, #40]	; f00015e8 <find_info+0x40>
f00015bc:	e3a0001c 	mov	r0, #28
f00015c0:	e0201390 	mla	r0, r0, r3, r1
f00015c4:	e7911002 	ldr	r1, [r1, r2]
f00015c8:	e282201c 	add	r2, r2, #28
f00015cc:	e151000c 	cmp	r1, ip
f00015d0:	012fff1e 	bxeq	lr
f00015d4:	e2833001 	add	r3, r3, #1
f00015d8:	e3530006 	cmp	r3, #6
f00015dc:	1afffff5 	bne	f00015b8 <find_info+0x10>
f00015e0:	e3a00000 	mov	r0, #0
f00015e4:	e12fff1e 	bx	lr
f00015e8:	f0001eb8 			; <UNDEFINED> instruction: 0xf0001eb8

f00015ec <standby_power_init>:
f00015ec:	e92d4007 	push	{r0, r1, r2, lr}
f00015f0:	e3a00000 	mov	r0, #0
f00015f4:	eb000123 	bl	f0001a88 <standby_twi_init>
f00015f8:	e28d3007 	add	r3, sp, #7
f00015fc:	e3a01034 	mov	r1, #52	; 0x34
f0001600:	e3a02042 	mov	r2, #66	; 0x42
f0001604:	e3a00000 	mov	r0, #0
f0001608:	eb000142 	bl	f0001b18 <twi_byte_rw>
f000160c:	e5dd3007 	ldrb	r3, [sp, #7]
f0001610:	e3a01034 	mov	r1, #52	; 0x34
f0001614:	e3a02042 	mov	r2, #66	; 0x42
f0001618:	e3833003 	orr	r3, r3, #3
f000161c:	e3a00001 	mov	r0, #1
f0001620:	e5cd3007 	strb	r3, [sp, #7]
f0001624:	e28d3007 	add	r3, sp, #7
f0001628:	eb00013a 	bl	f0001b18 <twi_byte_rw>
f000162c:	e28d3007 	add	r3, sp, #7
f0001630:	e3a01034 	mov	r1, #52	; 0x34
f0001634:	e3a02043 	mov	r2, #67	; 0x43
f0001638:	e3a00000 	mov	r0, #0
f000163c:	eb000135 	bl	f0001b18 <twi_byte_rw>
f0001640:	e5dd3007 	ldrb	r3, [sp, #7]
f0001644:	e3a01034 	mov	r1, #52	; 0x34
f0001648:	e3a02043 	mov	r2, #67	; 0x43
f000164c:	e3833003 	orr	r3, r3, #3
f0001650:	e3a00001 	mov	r0, #1
f0001654:	e5cd3007 	strb	r3, [sp, #7]
f0001658:	e28d3007 	add	r3, sp, #7
f000165c:	eb00012d 	bl	f0001b18 <twi_byte_rw>
f0001660:	e3a03003 	mov	r3, #3
f0001664:	e3a01034 	mov	r1, #52	; 0x34
f0001668:	e5cd3007 	strb	r3, [sp, #7]
f000166c:	e3a0204b 	mov	r2, #75	; 0x4b
f0001670:	e28d3007 	add	r3, sp, #7
f0001674:	e3a00001 	mov	r0, #1
f0001678:	eb000126 	bl	f0001b18 <twi_byte_rw>
f000167c:	e3a00000 	mov	r0, #0
f0001680:	e8bd800e 	pop	{r1, r2, r3, pc}

f0001684 <standby_power_exit>:
f0001684:	e92d4007 	push	{r0, r1, r2, lr}
f0001688:	e3a01034 	mov	r1, #52	; 0x34
f000168c:	e28d3007 	add	r3, sp, #7
f0001690:	e3a02042 	mov	r2, #66	; 0x42
f0001694:	e3a00000 	mov	r0, #0
f0001698:	eb00011e 	bl	f0001b18 <twi_byte_rw>
f000169c:	e5dd3007 	ldrb	r3, [sp, #7]
f00016a0:	e3a01034 	mov	r1, #52	; 0x34
f00016a4:	e3a02042 	mov	r2, #66	; 0x42
f00016a8:	e3c33003 	bic	r3, r3, #3
f00016ac:	e3a00001 	mov	r0, #1
f00016b0:	e5cd3007 	strb	r3, [sp, #7]
f00016b4:	e28d3007 	add	r3, sp, #7
f00016b8:	eb000116 	bl	f0001b18 <twi_byte_rw>
f00016bc:	e28d3007 	add	r3, sp, #7
f00016c0:	e3a01034 	mov	r1, #52	; 0x34
f00016c4:	e3a02043 	mov	r2, #67	; 0x43
f00016c8:	e3a00000 	mov	r0, #0
f00016cc:	eb000111 	bl	f0001b18 <twi_byte_rw>
f00016d0:	e5dd3007 	ldrb	r3, [sp, #7]
f00016d4:	e3a01034 	mov	r1, #52	; 0x34
f00016d8:	e3a02043 	mov	r2, #67	; 0x43
f00016dc:	e3c33003 	bic	r3, r3, #3
f00016e0:	e3a00001 	mov	r0, #1
f00016e4:	e5cd3007 	strb	r3, [sp, #7]
f00016e8:	e28d3007 	add	r3, sp, #7
f00016ec:	eb000109 	bl	f0001b18 <twi_byte_rw>
f00016f0:	eb0000f6 	bl	f0001ad0 <standby_twi_exit>
f00016f4:	e3a00000 	mov	r0, #0
f00016f8:	e8bd800e 	pop	{r1, r2, r3, pc}

f00016fc <standby_set_voltage>:
f00016fc:	e92d40f7 	push	{r0, r1, r2, r4, r5, r6, r7, lr}
f0001700:	e1a05000 	mov	r5, r0
f0001704:	e1a06001 	mov	r6, r1
f0001708:	ebffffa6 	bl	f00015a8 <find_info>
f000170c:	e2504000 	subs	r4, r0, #0
f0001710:	0a000040 	beq	f0001818 <standby_set_voltage+0x11c>
f0001714:	e5943004 	ldr	r3, [r4, #4]
f0001718:	e1560003 	cmp	r6, r3
f000171c:	ba00003d 	blt	f0001818 <standby_set_voltage+0x11c>
f0001720:	e5942008 	ldr	r2, [r4, #8]
f0001724:	e1560002 	cmp	r6, r2
f0001728:	da000037 	ble	f000180c <standby_set_voltage+0x110>
f000172c:	ea000039 	b	f0001818 <standby_set_voltage+0x11c>
f0001730:	e594100c 	ldr	r1, [r4, #12]
f0001734:	e2412001 	sub	r2, r1, #1
f0001738:	e0633002 	rsb	r3, r3, r2
f000173c:	e0830006 	add	r0, r3, r6
f0001740:	ebffff84 	bl	f0001558 <raw_lib_udiv>
f0001744:	ea00000f 	b	f0001788 <standby_set_voltage+0x8c>
f0001748:	e59f30cc 	ldr	r3, [pc, #204]	; f000181c <standby_set_voltage+0x120>
f000174c:	e1560003 	cmp	r6, r3
f0001750:	03a00000 	moveq	r0, #0
f0001754:	0a000011 	beq	f00017a0 <standby_set_voltage+0xa4>
f0001758:	e594100c 	ldr	r1, [r4, #12]
f000175c:	e59f00bc 	ldr	r0, [pc, #188]	; f0001820 <standby_set_voltage+0x124>
f0001760:	e0810000 	add	r0, r1, r0
f0001764:	e0800006 	add	r0, r0, r6
f0001768:	ebffff7a 	bl	f0001558 <raw_lib_udiv>
f000176c:	e6ef0070 	uxtb	r0, r0
f0001770:	e3500010 	cmp	r0, #16
f0001774:	82400006 	subhi	r0, r0, #6
f0001778:	8a000002 	bhi	f0001788 <standby_set_voltage+0x8c>
f000177c:	e350000d 	cmp	r0, #13
f0001780:	9a000002 	bls	f0001790 <standby_set_voltage+0x94>
f0001784:	e2400005 	sub	r0, r0, #5
f0001788:	e6ef0070 	uxtb	r0, r0
f000178c:	ea000003 	b	f00017a0 <standby_set_voltage+0xa4>
f0001790:	03a00009 	moveq	r0, #9
f0001794:	0a000001 	beq	f00017a0 <standby_set_voltage+0xa4>
f0001798:	e3500008 	cmp	r0, #8
f000179c:	23a00008 	movcs	r0, #8
f00017a0:	e5947018 	ldr	r7, [r4, #24]
f00017a4:	e3a05001 	mov	r5, #1
f00017a8:	e5943014 	ldr	r3, [r4, #20]
f00017ac:	e3a01034 	mov	r1, #52	; 0x34
f00017b0:	e1a07715 	lsl	r7, r5, r7
f00017b4:	e5d42010 	ldrb	r2, [r4, #16]
f00017b8:	e2477001 	sub	r7, r7, #1
f00017bc:	e1a06310 	lsl	r6, r0, r3
f00017c0:	e3a00000 	mov	r0, #0
f00017c4:	e1a07317 	lsl	r7, r7, r3
f00017c8:	e28d3007 	add	r3, sp, #7
f00017cc:	eb0000d1 	bl	f0001b18 <twi_byte_rw>
f00017d0:	e5dd3007 	ldrb	r3, [sp, #7]
f00017d4:	e6ef7077 	uxtb	r7, r7
f00017d8:	e6ef6076 	uxtb	r6, r6
f00017dc:	e0072003 	and	r2, r7, r3
f00017e0:	e1520006 	cmp	r2, r6
f00017e4:	0a00000b 	beq	f0001818 <standby_set_voltage+0x11c>
f00017e8:	e1c37007 	bic	r7, r3, r7
f00017ec:	e1a00005 	mov	r0, r5
f00017f0:	e1866007 	orr	r6, r6, r7
f00017f4:	e3a01034 	mov	r1, #52	; 0x34
f00017f8:	e5cd6007 	strb	r6, [sp, #7]
f00017fc:	e28d3007 	add	r3, sp, #7
f0001800:	e5d42010 	ldrb	r2, [r4, #16]
f0001804:	eb0000c3 	bl	f0001b18 <twi_byte_rw>
f0001808:	ea000002 	b	f0001818 <standby_set_voltage+0x11c>
f000180c:	e3550006 	cmp	r5, #6
f0001810:	1affffc6 	bne	f0001730 <standby_set_voltage+0x34>
f0001814:	eaffffcb 	b	f0001748 <standby_set_voltage+0x4c>
f0001818:	e8bd80fe 	pop	{r1, r2, r3, r4, r5, r6, r7, pc}
f000181c:	001312d0 			; <UNDEFINED> instruction: 0x001312d0
f0001820:	ffedb07f 			; <UNDEFINED> instruction: 0xffedb07f

f0001824 <standby_get_voltage>:
f0001824:	e92d4037 	push	{r0, r1, r2, r4, r5, lr}
f0001828:	e1a05000 	mov	r5, r0
f000182c:	ebffff5d 	bl	f00015a8 <find_info>
f0001830:	e2504000 	subs	r4, r0, #0
f0001834:	03e00000 	mvneq	r0, #0
f0001838:	0a000014 	beq	f0001890 <standby_get_voltage+0x6c>
f000183c:	e3a01034 	mov	r1, #52	; 0x34
f0001840:	e5d42010 	ldrb	r2, [r4, #16]
f0001844:	e28d3007 	add	r3, sp, #7
f0001848:	e3a00000 	mov	r0, #0
f000184c:	eb0000b1 	bl	f0001b18 <twi_byte_rw>
f0001850:	e3e01000 	mvn	r1, #0
f0001854:	e5943018 	ldr	r3, [r4, #24]
f0001858:	e3550006 	cmp	r5, #6
f000185c:	e5942014 	ldr	r2, [r4, #20]
f0001860:	03a00ffa 	moveq	r0, #1000	; 0x3e8
f0001864:	e1e03311 	mvn	r3, r1, lsl r3
f0001868:	e5dd1007 	ldrb	r1, [sp, #7]
f000186c:	1594000c 	ldrne	r0, [r4, #12]
f0001870:	e0013213 	and	r3, r1, r3, lsl r2
f0001874:	e1a03253 	asr	r3, r3, r2
f0001878:	059f2014 	ldreq	r2, [pc, #20]	; f0001894 <standby_get_voltage+0x70>
f000187c:	15942004 	ldrne	r2, [r4, #4]
f0001880:	e6ef3073 	uxtb	r3, r3
f0001884:	07923103 	ldreq	r3, [r2, r3, lsl #2]
f0001888:	10202390 	mlane	r0, r0, r3, r2
f000188c:	00000390 	muleq	r0, r0, r3
f0001890:	e8bd803e 	pop	{r1, r2, r3, r4, r5, pc}
f0001894:	f0001dec 			; <UNDEFINED> instruction: 0xf0001dec

f0001898 <standby_tmr_init>:
f0001898:	e92d4038 	push	{r3, r4, r5, lr}
f000189c:	e3a00ffa 	mov	r0, #1000	; 0x3e8
f00018a0:	e59f3070 	ldr	r3, [pc, #112]	; f0001918 <standby_tmr_init+0x80>
f00018a4:	e3a05000 	mov	r5, #0
f00018a8:	e59f406c 	ldr	r4, [pc, #108]	; f000191c <standby_tmr_init+0x84>
f00018ac:	e5843000 	str	r3, [r4]
f00018b0:	e5932000 	ldr	r2, [r3]
f00018b4:	e5842004 	str	r2, [r4, #4]
f00018b8:	e5932010 	ldr	r2, [r3, #16]
f00018bc:	e5842008 	str	r2, [r4, #8]
f00018c0:	e5932014 	ldr	r2, [r3, #20]
f00018c4:	e584200c 	str	r2, [r4, #12]
f00018c8:	e5932018 	ldr	r2, [r3, #24]
f00018cc:	e5842010 	str	r2, [r4, #16]
f00018d0:	e5932020 	ldr	r2, [r3, #32]
f00018d4:	e5842014 	str	r2, [r4, #20]
f00018d8:	e5932024 	ldr	r2, [r3, #36]	; 0x24
f00018dc:	e5842018 	str	r2, [r4, #24]
f00018e0:	e5932028 	ldr	r2, [r3, #40]	; 0x28
f00018e4:	e584201c 	str	r2, [r4, #28]
f00018e8:	e3a02001 	mov	r2, #1
f00018ec:	e5835000 	str	r5, [r3]
f00018f0:	e5832004 	str	r2, [r3, #4]
f00018f4:	e5835020 	str	r5, [r3, #32]
f00018f8:	eb000138 	bl	f0001de0 <standby_delay>
f00018fc:	e5943000 	ldr	r3, [r4]
f0001900:	e3a020d0 	mov	r2, #208	; 0xd0
f0001904:	e3a00ffa 	mov	r0, #1000	; 0x3e8
f0001908:	e5832020 	str	r2, [r3, #32]
f000190c:	eb000133 	bl	f0001de0 <standby_delay>
f0001910:	e1a00005 	mov	r0, r5
f0001914:	e8bd8038 	pop	{r3, r4, r5, pc}
f0001918:	f1c20c00 			; <UNDEFINED> instruction: 0xf1c20c00
f000191c:	f0002008 			; <UNDEFINED> instruction: 0xf0002008

f0001920 <standby_tmr_exit>:
f0001920:	e59f3040 	ldr	r3, [pc, #64]	; f0001968 <standby_tmr_exit+0x48>
f0001924:	e3a00000 	mov	r0, #0
f0001928:	e5932000 	ldr	r2, [r3]
f000192c:	e593100c 	ldr	r1, [r3, #12]
f0001930:	e5821014 	str	r1, [r2, #20]
f0001934:	e5931010 	ldr	r1, [r3, #16]
f0001938:	e5821018 	str	r1, [r2, #24]
f000193c:	e5931008 	ldr	r1, [r3, #8]
f0001940:	e5821010 	str	r1, [r2, #16]
f0001944:	e5931018 	ldr	r1, [r3, #24]
f0001948:	e5821024 	str	r1, [r2, #36]	; 0x24
f000194c:	e593101c 	ldr	r1, [r3, #28]
f0001950:	e5821028 	str	r1, [r2, #40]	; 0x28
f0001954:	e5931014 	ldr	r1, [r3, #20]
f0001958:	e5933004 	ldr	r3, [r3, #4]
f000195c:	e5821020 	str	r1, [r2, #32]
f0001960:	e5823000 	str	r3, [r2]
f0001964:	e12fff1e 	bx	lr
f0001968:	f0002008 			; <UNDEFINED> instruction: 0xf0002008

f000196c <standby_tmr_set>:
f000196c:	e59f3044 	ldr	r3, [pc, #68]	; f00019b8 <standby_tmr_set+0x4c>
f0001970:	e3a02001 	mov	r2, #1
f0001974:	e1a00500 	lsl	r0, r0, #10
f0001978:	e3a010d0 	mov	r1, #208	; 0xd0
f000197c:	e5933000 	ldr	r3, [r3]
f0001980:	e5832004 	str	r2, [r3, #4]
f0001984:	e5832000 	str	r2, [r3]
f0001988:	e3a02000 	mov	r2, #0
f000198c:	e5832010 	str	r2, [r3, #16]
f0001990:	e5830014 	str	r0, [r3, #20]
f0001994:	e1a00002 	mov	r0, r2
f0001998:	e5831010 	str	r1, [r3, #16]
f000199c:	e5931010 	ldr	r1, [r3, #16]
f00019a0:	e3811002 	orr	r1, r1, #2
f00019a4:	e5831010 	str	r1, [r3, #16]
f00019a8:	e5931010 	ldr	r1, [r3, #16]
f00019ac:	e3811001 	orr	r1, r1, #1
f00019b0:	e5831010 	str	r1, [r3, #16]
f00019b4:	e12fff1e 	bx	lr
f00019b8:	f0002008 			; <UNDEFINED> instruction: 0xf0002008

f00019bc <standby_tmr_enable_watchdog>:
f00019bc:	e59f3018 	ldr	r3, [pc, #24]	; f00019dc <standby_tmr_enable_watchdog+0x20>
f00019c0:	e3a02012 	mov	r2, #18
f00019c4:	e5933000 	ldr	r3, [r3]
f00019c8:	e5832094 	str	r2, [r3, #148]	; 0x94
f00019cc:	e5932094 	ldr	r2, [r3, #148]	; 0x94
f00019d0:	e3822001 	orr	r2, r2, #1
f00019d4:	e5832094 	str	r2, [r3, #148]	; 0x94
f00019d8:	e12fff1e 	bx	lr
f00019dc:	f0002008 			; <UNDEFINED> instruction: 0xf0002008

f00019e0 <standby_tmr_disable_watchdog>:
f00019e0:	e59f301c 	ldr	r3, [pc, #28]	; f0001a04 <standby_tmr_disable_watchdog+0x24>
f00019e4:	e5933000 	ldr	r3, [r3]
f00019e8:	e5932094 	ldr	r2, [r3, #148]	; 0x94
f00019ec:	e3c22002 	bic	r2, r2, #2
f00019f0:	e5832094 	str	r2, [r3, #148]	; 0x94
f00019f4:	e5932094 	ldr	r2, [r3, #148]	; 0x94
f00019f8:	e3c22001 	bic	r2, r2, #1
f00019fc:	e5832094 	str	r2, [r3, #148]	; 0x94
f0001a00:	e12fff1e 	bx	lr
f0001a04:	f0002008 			; <UNDEFINED> instruction: 0xf0002008

f0001a08 <standby_tmr_query>:
f0001a08:	e3500000 	cmp	r0, #0
f0001a0c:	13e00000 	mvnne	r0, #0
f0001a10:	112fff1e 	bxne	lr
f0001a14:	e59f3018 	ldr	r3, [pc, #24]	; f0001a34 <standby_tmr_query+0x2c>
f0001a18:	e5933000 	ldr	r3, [r3]
f0001a1c:	e5932004 	ldr	r2, [r3, #4]
f0001a20:	e3120001 	tst	r2, #1
f0001a24:	13a02001 	movne	r2, #1
f0001a28:	03e00000 	mvneq	r0, #0
f0001a2c:	15832004 	strne	r2, [r3, #4]
f0001a30:	e12fff1e 	bx	lr
f0001a34:	f0002008 			; <UNDEFINED> instruction: 0xf0002008

f0001a38 <standby_tmr_mdlay>:
f0001a38:	e92d4010 	push	{r4, lr}
f0001a3c:	e350001e 	cmp	r0, #30
f0001a40:	b3a0001e 	movlt	r0, #30
f0001a44:	e59f4038 	ldr	r4, [pc, #56]	; f0001a84 <standby_tmr_mdlay+0x4c>
f0001a48:	e5943000 	ldr	r3, [r4]
f0001a4c:	e5830024 	str	r0, [r3, #36]	; 0x24
f0001a50:	e3000bb8 	movw	r0, #3000	; 0xbb8
f0001a54:	e5932020 	ldr	r2, [r3, #32]
f0001a58:	e3822002 	orr	r2, r2, #2
f0001a5c:	e5832020 	str	r2, [r3, #32]
f0001a60:	e5932020 	ldr	r2, [r3, #32]
f0001a64:	e3822001 	orr	r2, r2, #1
f0001a68:	e5832020 	str	r2, [r3, #32]
f0001a6c:	eb0000db 	bl	f0001de0 <standby_delay>
f0001a70:	e5943000 	ldr	r3, [r4]
f0001a74:	e5932028 	ldr	r2, [r3, #40]	; 0x28
f0001a78:	e3520000 	cmp	r2, #0
f0001a7c:	1afffffc 	bne	f0001a74 <standby_tmr_mdlay+0x3c>
f0001a80:	e8bd8010 	pop	{r4, pc}
f0001a84:	f0002008 			; <UNDEFINED> instruction: 0xf0002008

f0001a88 <standby_twi_init>:
f0001a88:	e59f3038 	ldr	r3, [pc, #56]	; f0001ac8 <standby_twi_init+0x40>
f0001a8c:	e59f2038 	ldr	r2, [pc, #56]	; f0001acc <standby_twi_init+0x44>
f0001a90:	e7933100 	ldr	r3, [r3, r0, lsl #2]
f0001a94:	e3a00000 	mov	r0, #0
f0001a98:	e5823000 	str	r3, [r2]
f0001a9c:	e5931014 	ldr	r1, [r3, #20]
f0001aa0:	e5821004 	str	r1, [r2, #4]
f0001aa4:	e593100c 	ldr	r1, [r3, #12]
f0001aa8:	e2011080 	and	r1, r1, #128	; 0x80
f0001aac:	e5821008 	str	r1, [r2, #8]
f0001ab0:	e3a02013 	mov	r2, #19
f0001ab4:	e5832014 	str	r2, [r3, #20]
f0001ab8:	e5932018 	ldr	r2, [r3, #24]
f0001abc:	e3822001 	orr	r2, r2, #1
f0001ac0:	e5832018 	str	r2, [r3, #24]
f0001ac4:	e12fff1e 	bx	lr
f0001ac8:	f0001e2c 			; <UNDEFINED> instruction: 0xf0001e2c
f0001acc:	f0002028 			; <UNDEFINED> instruction: 0xf0002028

f0001ad0 <standby_twi_exit>:
f0001ad0:	e92d4010 	push	{r4, lr}
f0001ad4:	e3a0000a 	mov	r0, #10
f0001ad8:	e59f4034 	ldr	r4, [pc, #52]	; f0001b14 <standby_twi_exit+0x44>
f0001adc:	e5943000 	ldr	r3, [r4]
f0001ae0:	e5932018 	ldr	r2, [r3, #24]
f0001ae4:	e3822001 	orr	r2, r2, #1
f0001ae8:	e5832018 	str	r2, [r3, #24]
f0001aec:	ebfffa21 	bl	f0000378 <standby_mdelay>
f0001af0:	e5943000 	ldr	r3, [r4]
f0001af4:	e5942004 	ldr	r2, [r4, #4]
f0001af8:	e3a00000 	mov	r0, #0
f0001afc:	e5832014 	str	r2, [r3, #20]
f0001b00:	e5942008 	ldr	r2, [r4, #8]
f0001b04:	e593100c 	ldr	r1, [r3, #12]
f0001b08:	e1812002 	orr	r2, r1, r2
f0001b0c:	e583200c 	str	r2, [r3, #12]
f0001b10:	e8bd8010 	pop	{r4, pc}
f0001b14:	f0002028 			; <UNDEFINED> instruction: 0xf0002028

f0001b18 <twi_byte_rw>:
f0001b18:	e59fc29c 	ldr	ip, [pc, #668]	; f0001dbc <twi_byte_rw+0x2a4>
f0001b1c:	e92d4030 	push	{r4, r5, lr}
f0001b20:	e3a04000 	mov	r4, #0
f0001b24:	e59cc000 	ldr	ip, [ip]
f0001b28:	e58c401c 	str	r4, [ip, #28]
f0001b2c:	e59c4010 	ldr	r4, [ip, #16]
f0001b30:	e6ef4074 	uxtb	r4, r4
f0001b34:	e35400f8 	cmp	r4, #248	; 0xf8
f0001b38:	1a00007d 	bne	f0001d34 <twi_byte_rw+0x21c>
f0001b3c:	e59c400c 	ldr	r4, [ip, #12]
f0001b40:	e3844020 	orr	r4, r4, #32
f0001b44:	e58c400c 	str	r4, [ip, #12]
f0001b48:	e30042ff 	movw	r4, #767	; 0x2ff
f0001b4c:	e59c500c 	ldr	r5, [ip, #12]
f0001b50:	e3150008 	tst	r5, #8
f0001b54:	0a000002 	beq	f0001b64 <twi_byte_rw+0x4c>
f0001b58:	e3540000 	cmp	r4, #0
f0001b5c:	0a000074 	beq	f0001d34 <twi_byte_rw+0x21c>
f0001b60:	ea000001 	b	f0001b6c <twi_byte_rw+0x54>
f0001b64:	e2544001 	subs	r4, r4, #1
f0001b68:	2afffff7 	bcs	f0001b4c <twi_byte_rw+0x34>
f0001b6c:	e59c4010 	ldr	r4, [ip, #16]
f0001b70:	e6ef4074 	uxtb	r4, r4
f0001b74:	e3540008 	cmp	r4, #8
f0001b78:	1a00006d 	bne	f0001d34 <twi_byte_rw+0x21c>
f0001b7c:	e1a01081 	lsl	r1, r1, #1
f0001b80:	e58c1008 	str	r1, [ip, #8]
f0001b84:	e59c400c 	ldr	r4, [ip, #12]
f0001b88:	e20440f7 	and	r4, r4, #247	; 0xf7
f0001b8c:	e58c400c 	str	r4, [ip, #12]
f0001b90:	e30042ff 	movw	r4, #767	; 0x2ff
f0001b94:	e59c500c 	ldr	r5, [ip, #12]
f0001b98:	e3150008 	tst	r5, #8
f0001b9c:	0a000002 	beq	f0001bac <twi_byte_rw+0x94>
f0001ba0:	e3540000 	cmp	r4, #0
f0001ba4:	0a000062 	beq	f0001d34 <twi_byte_rw+0x21c>
f0001ba8:	ea000001 	b	f0001bb4 <twi_byte_rw+0x9c>
f0001bac:	e2544001 	subs	r4, r4, #1
f0001bb0:	2afffff7 	bcs	f0001b94 <twi_byte_rw+0x7c>
f0001bb4:	e59c4010 	ldr	r4, [ip, #16]
f0001bb8:	e6ef4074 	uxtb	r4, r4
f0001bbc:	e3540018 	cmp	r4, #24
f0001bc0:	1a00005b 	bne	f0001d34 <twi_byte_rw+0x21c>
f0001bc4:	e58c2008 	str	r2, [ip, #8]
f0001bc8:	e59c200c 	ldr	r2, [ip, #12]
f0001bcc:	e20220f7 	and	r2, r2, #247	; 0xf7
f0001bd0:	e58c200c 	str	r2, [ip, #12]
f0001bd4:	e30022ff 	movw	r2, #767	; 0x2ff
f0001bd8:	e59c400c 	ldr	r4, [ip, #12]
f0001bdc:	e3140008 	tst	r4, #8
f0001be0:	0a000002 	beq	f0001bf0 <twi_byte_rw+0xd8>
f0001be4:	e3520000 	cmp	r2, #0
f0001be8:	0a000051 	beq	f0001d34 <twi_byte_rw+0x21c>
f0001bec:	ea000001 	b	f0001bf8 <twi_byte_rw+0xe0>
f0001bf0:	e2522001 	subs	r2, r2, #1
f0001bf4:	2afffff7 	bcs	f0001bd8 <twi_byte_rw+0xc0>
f0001bf8:	e59c2010 	ldr	r2, [ip, #16]
f0001bfc:	e6ef2072 	uxtb	r2, r2
f0001c00:	e3520028 	cmp	r2, #40	; 0x28
f0001c04:	1a00004a 	bne	f0001d34 <twi_byte_rw+0x21c>
f0001c08:	e3500001 	cmp	r0, #1
f0001c0c:	1a000011 	bne	f0001c58 <twi_byte_rw+0x140>
f0001c10:	e5d33000 	ldrb	r3, [r3]
f0001c14:	e58c3008 	str	r3, [ip, #8]
f0001c18:	e59c300c 	ldr	r3, [ip, #12]
f0001c1c:	e20330f7 	and	r3, r3, #247	; 0xf7
f0001c20:	e58c300c 	str	r3, [ip, #12]
f0001c24:	e30032ff 	movw	r3, #767	; 0x2ff
f0001c28:	e59c200c 	ldr	r2, [ip, #12]
f0001c2c:	e3120008 	tst	r2, #8
f0001c30:	0a000002 	beq	f0001c40 <twi_byte_rw+0x128>
f0001c34:	e3530000 	cmp	r3, #0
f0001c38:	0a00003d 	beq	f0001d34 <twi_byte_rw+0x21c>
f0001c3c:	ea000001 	b	f0001c48 <twi_byte_rw+0x130>
f0001c40:	e2533001 	subs	r3, r3, #1
f0001c44:	2afffff7 	bcs	f0001c28 <twi_byte_rw+0x110>
f0001c48:	e59c3010 	ldr	r3, [ip, #16]
f0001c4c:	e6ef3073 	uxtb	r3, r3
f0001c50:	e3530028 	cmp	r3, #40	; 0x28
f0001c54:	ea000033 	b	f0001d28 <twi_byte_rw+0x210>
f0001c58:	e59c200c 	ldr	r2, [ip, #12]
f0001c5c:	e20220c0 	and	r2, r2, #192	; 0xc0
f0001c60:	e3822020 	orr	r2, r2, #32
f0001c64:	e58c200c 	str	r2, [ip, #12]
f0001c68:	e30022ff 	movw	r2, #767	; 0x2ff
f0001c6c:	e59c000c 	ldr	r0, [ip, #12]
f0001c70:	e3100008 	tst	r0, #8
f0001c74:	0a000002 	beq	f0001c84 <twi_byte_rw+0x16c>
f0001c78:	e3520000 	cmp	r2, #0
f0001c7c:	0a00002c 	beq	f0001d34 <twi_byte_rw+0x21c>
f0001c80:	ea000001 	b	f0001c8c <twi_byte_rw+0x174>
f0001c84:	e2522001 	subs	r2, r2, #1
f0001c88:	2afffff7 	bcs	f0001c6c <twi_byte_rw+0x154>
f0001c8c:	e59c2010 	ldr	r2, [ip, #16]
f0001c90:	e6ef2072 	uxtb	r2, r2
f0001c94:	e3520010 	cmp	r2, #16
f0001c98:	1a000025 	bne	f0001d34 <twi_byte_rw+0x21c>
f0001c9c:	e3811001 	orr	r1, r1, #1
f0001ca0:	e58c1008 	str	r1, [ip, #8]
f0001ca4:	e59c200c 	ldr	r2, [ip, #12]
f0001ca8:	e20220f7 	and	r2, r2, #247	; 0xf7
f0001cac:	e58c200c 	str	r2, [ip, #12]
f0001cb0:	e30022ff 	movw	r2, #767	; 0x2ff
f0001cb4:	e59c100c 	ldr	r1, [ip, #12]
f0001cb8:	e3110008 	tst	r1, #8
f0001cbc:	0a000002 	beq	f0001ccc <twi_byte_rw+0x1b4>
f0001cc0:	e3520000 	cmp	r2, #0
f0001cc4:	0a00001a 	beq	f0001d34 <twi_byte_rw+0x21c>
f0001cc8:	ea000001 	b	f0001cd4 <twi_byte_rw+0x1bc>
f0001ccc:	e2522001 	subs	r2, r2, #1
f0001cd0:	2afffff7 	bcs	f0001cb4 <twi_byte_rw+0x19c>
f0001cd4:	e59c2010 	ldr	r2, [ip, #16]
f0001cd8:	e6ef2072 	uxtb	r2, r2
f0001cdc:	e3520040 	cmp	r2, #64	; 0x40
f0001ce0:	1a000013 	bne	f0001d34 <twi_byte_rw+0x21c>
f0001ce4:	e59c200c 	ldr	r2, [ip, #12]
f0001ce8:	e20220f7 	and	r2, r2, #247	; 0xf7
f0001cec:	e58c200c 	str	r2, [ip, #12]
f0001cf0:	e30022ff 	movw	r2, #767	; 0x2ff
f0001cf4:	e59c100c 	ldr	r1, [ip, #12]
f0001cf8:	e3110008 	tst	r1, #8
f0001cfc:	0a000002 	beq	f0001d0c <twi_byte_rw+0x1f4>
f0001d00:	e3520000 	cmp	r2, #0
f0001d04:	0a00000a 	beq	f0001d34 <twi_byte_rw+0x21c>
f0001d08:	ea000001 	b	f0001d14 <twi_byte_rw+0x1fc>
f0001d0c:	e2522001 	subs	r2, r2, #1
f0001d10:	2afffff7 	bcs	f0001cf4 <twi_byte_rw+0x1dc>
f0001d14:	e59c2008 	ldr	r2, [ip, #8]
f0001d18:	e5c32000 	strb	r2, [r3]
f0001d1c:	e59c3010 	ldr	r3, [ip, #16]
f0001d20:	e6ef3073 	uxtb	r3, r3
f0001d24:	e3530058 	cmp	r3, #88	; 0x58
f0001d28:	03a00000 	moveq	r0, #0
f0001d2c:	13e00000 	mvnne	r0, #0
f0001d30:	ea000000 	b	f0001d38 <twi_byte_rw+0x220>
f0001d34:	e3e00000 	mvn	r0, #0
f0001d38:	e59f307c 	ldr	r3, [pc, #124]	; f0001dbc <twi_byte_rw+0x2a4>
f0001d3c:	e5933000 	ldr	r3, [r3]
f0001d40:	e593200c 	ldr	r2, [r3, #12]
f0001d44:	e20220c0 	and	r2, r2, #192	; 0xc0
f0001d48:	e3822010 	orr	r2, r2, #16
f0001d4c:	e583200c 	str	r2, [r3, #12]
f0001d50:	e593200c 	ldr	r2, [r3, #12]
f0001d54:	e30022ff 	movw	r2, #767	; 0x2ff
f0001d58:	e593100c 	ldr	r1, [r3, #12]
f0001d5c:	e3110010 	tst	r1, #16
f0001d60:	1a000003 	bne	f0001d74 <twi_byte_rw+0x25c>
f0001d64:	e3520000 	cmp	r2, #0
f0001d68:	130022ff 	movwne	r2, #767	; 0x2ff
f0001d6c:	08bd8030 	popeq	{r4, r5, pc}
f0001d70:	ea000002 	b	f0001d80 <twi_byte_rw+0x268>
f0001d74:	e2522001 	subs	r2, r2, #1
f0001d78:	2afffff6 	bcs	f0001d58 <twi_byte_rw+0x240>
f0001d7c:	e2822c03 	add	r2, r2, #768	; 0x300
f0001d80:	e5931010 	ldr	r1, [r3, #16]
f0001d84:	e35100f8 	cmp	r1, #248	; 0xf8
f0001d88:	1a000002 	bne	f0001d98 <twi_byte_rw+0x280>
f0001d8c:	e3520000 	cmp	r2, #0
f0001d90:	08bd8030 	popeq	{r4, r5, pc}
f0001d94:	ea000001 	b	f0001da0 <twi_byte_rw+0x288>
f0001d98:	e2522001 	subs	r2, r2, #1
f0001d9c:	2afffff7 	bcs	f0001d80 <twi_byte_rw+0x268>
f0001da0:	e3a02c03 	mov	r2, #768	; 0x300
f0001da4:	e5931020 	ldr	r1, [r3, #32]
f0001da8:	e351003a 	cmp	r1, #58	; 0x3a
f0001dac:	08bd8030 	popeq	{r4, r5, pc}
f0001db0:	e2522001 	subs	r2, r2, #1
f0001db4:	1afffffa 	bne	f0001da4 <twi_byte_rw+0x28c>
f0001db8:	e8bd8030 	pop	{r4, r5, pc}
f0001dbc:	f0002028 			; <UNDEFINED> instruction: 0xf0002028

f0001dc0 <standby_usb_init>:
f0001dc0:	e3a00000 	mov	r0, #0
f0001dc4:	e12fff1e 	bx	lr

f0001dc8 <standby_usb_exit>:
f0001dc8:	e3a00000 	mov	r0, #0
f0001dcc:	e12fff1e 	bx	lr

f0001dd0 <standby_is_usb_status_change>:
f0001dd0:	e3a00000 	mov	r0, #0
f0001dd4:	e12fff1e 	bx	lr

f0001dd8 <standby_query_usb_event>:
f0001dd8:	e3e00000 	mvn	r0, #0
f0001ddc:	e12fff1e 	bx	lr

f0001de0 <standby_delay>:
f0001de0:	e2500001 	subs	r0, r0, #1
f0001de4:	8afffffd 	bhi	f0001de0 <standby_delay>
f0001de8:	e1a0f00e 	mov	pc, lr

Disassembly of section .rodata:

f0001dec <axp20_ldo4_data>:
f0001dec:	000004e2 	andeq	r0, r0, r2, ror #9
f0001df0:	00000514 	andeq	r0, r0, r4, lsl r5
f0001df4:	00000578 	andeq	r0, r0, r8, ror r5
f0001df8:	000005dc 	ldrdeq	r0, [r0], -ip
f0001dfc:	00000640 	andeq	r0, r0, r0, asr #12
f0001e00:	000006a4 	andeq	r0, r0, r4, lsr #13
f0001e04:	00000708 	andeq	r0, r0, r8, lsl #14
f0001e08:	0000076c 	andeq	r0, r0, ip, ror #14
f0001e0c:	000007d0 	ldrdeq	r0, [r0], -r0	; <UNPREDICTABLE>
f0001e10:	000009c4 	andeq	r0, r0, r4, asr #19
f0001e14:	00000a8c 	andeq	r0, r0, ip, lsl #21
f0001e18:	00000af0 	strdeq	r0, [r0], -r0	; <UNPREDICTABLE>
f0001e1c:	00000bb8 			; <UNDEFINED> instruction: 0x00000bb8
f0001e20:	00000c1c 	andeq	r0, r0, ip, lsl ip
f0001e24:	00000c80 	andeq	r0, r0, r0, lsl #25
f0001e28:	00000ce4 	andeq	r0, r0, r4, ror #25

f0001e2c <TWI_REG_BASE>:
f0001e2c:	f1c2ac00 			; <UNDEFINED> instruction: 0xf1c2ac00
f0001e30:	f1c2b000 			; <UNDEFINED> instruction: 0xf1c2b000
f0001e34:	f1c2b400 			; <UNDEFINED> instruction: 0xf1c2b400

Disassembly of section .data:

f0001e38 <hpcr_value>:
f0001e38:	00000301 	andeq	r0, r0, r1, lsl #6
f0001e3c:	00000301 	andeq	r0, r0, r1, lsl #6
f0001e40:	00000301 	andeq	r0, r0, r1, lsl #6
f0001e44:	00000301 	andeq	r0, r0, r1, lsl #6
f0001e48:	00000301 	andeq	r0, r0, r1, lsl #6
f0001e4c:	00000301 	andeq	r0, r0, r1, lsl #6
	...
f0001e78:	00001031 	andeq	r1, r0, r1, lsr r0
f0001e7c:	00001031 	andeq	r1, r0, r1, lsr r0
f0001e80:	00000735 	andeq	r0, r0, r5, lsr r7
f0001e84:	00001035 	andeq	r1, r0, r5, lsr r0
f0001e88:	00001035 	andeq	r1, r0, r5, lsr r0
f0001e8c:	00000731 	andeq	r0, r0, r1, lsr r7
f0001e90:	00001031 	andeq	r1, r0, r1, lsr r0
f0001e94:	00000735 	andeq	r0, r0, r5, lsr r7
f0001e98:	00001035 	andeq	r1, r0, r5, lsr r0
f0001e9c:	00001031 	andeq	r1, r0, r1, lsr r0
f0001ea0:	00000731 	andeq	r0, r0, r1, lsr r7
f0001ea4:	00001035 	andeq	r1, r0, r5, lsr r0
f0001ea8:	00001031 	andeq	r1, r0, r1, lsr r0
f0001eac:	00000301 	andeq	r0, r0, r1, lsl #6
f0001eb0:	00000301 	andeq	r0, r0, r1, lsl #6
f0001eb4:	00000731 	andeq	r0, r0, r1, lsr r7

f0001eb8 <axp20_info>:
f0001eb8:	00000003 	andeq	r0, r0, r3
f0001ebc:	00000514 	andeq	r0, r0, r4, lsl r5
f0001ec0:	00000514 	andeq	r0, r0, r4, lsl r5
	...
f0001ed4:	00000004 	andeq	r0, r0, r4
f0001ed8:	00000708 	andeq	r0, r0, r8, lsl #14
f0001edc:	00000ce4 	andeq	r0, r0, r4, ror #25
f0001ee0:	00000064 	andeq	r0, r0, r4, rrx
f0001ee4:	00000028 	andeq	r0, r0, r8, lsr #32
f0001ee8:	00000004 	andeq	r0, r0, r4
f0001eec:	00000004 	andeq	r0, r0, r4
f0001ef0:	00000005 	andeq	r0, r0, r5
f0001ef4:	000002bc 			; <UNDEFINED> instruction: 0x000002bc
f0001ef8:	00000dac 	andeq	r0, r0, ip, lsr #27
f0001efc:	00000019 	andeq	r0, r0, r9, lsl r0
f0001f00:	00000029 	andeq	r0, r0, r9, lsr #32
f0001f04:	00000000 	andeq	r0, r0, r0
f0001f08:	00000007 	andeq	r0, r0, r7
f0001f0c:	00000006 	andeq	r0, r0, r6
f0001f10:	000004e2 	andeq	r0, r0, r2, ror #9
f0001f14:	00000ce4 	andeq	r0, r0, r4, ror #25
f0001f18:	00000064 	andeq	r0, r0, r4, rrx
f0001f1c:	00000028 	andeq	r0, r0, r8, lsr #32
f0001f20:	00000000 	andeq	r0, r0, r0
f0001f24:	00000004 	andeq	r0, r0, r4
f0001f28:	00000001 	andeq	r0, r0, r1
f0001f2c:	000002bc 			; <UNDEFINED> instruction: 0x000002bc
f0001f30:	000008e3 	andeq	r0, r0, r3, ror #17
f0001f34:	00000019 	andeq	r0, r0, r9, lsl r0
f0001f38:	00000023 	andeq	r0, r0, r3, lsr #32
f0001f3c:	00000000 	andeq	r0, r0, r0
f0001f40:	00000006 	andeq	r0, r0, r6
f0001f44:	00000002 	andeq	r0, r0, r2
f0001f48:	000002bc 			; <UNDEFINED> instruction: 0x000002bc
f0001f4c:	00000dac 	andeq	r0, r0, ip, lsr #27
f0001f50:	00000019 	andeq	r0, r0, r9, lsl r0
f0001f54:	00000027 	andeq	r0, r0, r7, lsr #32
f0001f58:	00000000 	andeq	r0, r0, r0
f0001f5c:	00000007 	andeq	r0, r0, r7

Disassembly of section .bss:

f0001f60 <dram_traning_area_back>:
	...

f0001fa0 <sp_backup>:
f0001fa0:	00000000 	andeq	r0, r0, r0

f0001fa4 <dcdc2>:
f0001fa4:	00000000 	andeq	r0, r0, r0

f0001fa8 <dcdc3>:
f0001fa8:	00000000 	andeq	r0, r0, r0

f0001fac <clk_div>:
f0001fac:	00000000 	andeq	r0, r0, r0

f0001fb0 <tmp_clk_div>:
f0001fb0:	00000000 	andeq	r0, r0, r0

f0001fb4 <CmuReg>:
f0001fb4:	00000000 	andeq	r0, r0, r0

f0001fb8 <ccu_reg_back>:
	...

f0001fd4 <IntcReg>:
f0001fd4:	00000000 	andeq	r0, r0, r0

f0001fd8 <IrqEnReg>:
	...

f0001fe4 <IrqMaskReg>:
	...

f0001ff0 <IrqSelReg>:
	...

f0001ffc <KeyReg>:
f0001ffc:	00000000 	andeq	r0, r0, r0

f0002000 <KeyCtrl>:
f0002000:	00000000 	andeq	r0, r0, r0

f0002004 <KeyIntc>:
f0002004:	00000000 	andeq	r0, r0, r0

f0002008 <TmrReg>:
f0002008:	00000000 	andeq	r0, r0, r0

f000200c <TmrIntCtl>:
f000200c:	00000000 	andeq	r0, r0, r0

f0002010 <Tmr0Ctl>:
f0002010:	00000000 	andeq	r0, r0, r0

f0002014 <Tmr0IntVal>:
f0002014:	00000000 	andeq	r0, r0, r0

f0002018 <Tmr0CntVal>:
f0002018:	00000000 	andeq	r0, r0, r0

f000201c <Tmr1Ctl>:
f000201c:	00000000 	andeq	r0, r0, r0

f0002020 <Tmr1IntVal>:
f0002020:	00000000 	andeq	r0, r0, r0

f0002024 <Tmr1CntVal>:
f0002024:	00000000 	andeq	r0, r0, r0

f0002028 <twi_reg>:
f0002028:	00000000 	andeq	r0, r0, r0

f000202c <TwiClkRegBak>:
f000202c:	00000000 	andeq	r0, r0, r0

f0002030 <TwiCtlRegBak>:
f0002030:	00000000 	andeq	r0, r0, r0

f0002034 <pm_info>:
	...

f0002044 <cpu_ms_loopcnt>:
f0002044:	00000000 	andeq	r0, r0, r0

Disassembly of section .debug_abbrev:

00000000 <.debug_abbrev>:
   0:	25011101 	strcs	r1, [r1, #-257]	; 0xfffffeff
   4:	030b130e 	movweq	r1, #45838	; 0xb30e
   8:	110e1b0e 	tstne	lr, lr, lsl #22
   c:	10011201 	andne	r1, r1, r1, lsl #4
  10:	02000006 	andeq	r0, r0, #6
  14:	0e030113 	mcreq	1, 0, r0, cr3, cr3, {0}
  18:	0b3a0b0b 	bleq	e82c4c <__standby_start+0xe82c4c>
  1c:	13010b3b 	movwne	r0, #6971	; 0x1b3b
  20:	0d030000 	stceq	0, cr0, [r3, #-0]
  24:	3a0e0300 	bcc	380c2c <__standby_start+0x380c2c>
  28:	490b3b0b 	stmdbmi	fp, {r0, r1, r3, r8, r9, fp, ip, sp}
  2c:	000a3813 	andeq	r3, sl, r3, lsl r8
  30:	00240400 	eoreq	r0, r4, r0, lsl #8
  34:	0b3e0b0b 	bleq	f82c68 <__standby_start+0xf82c68>
  38:	00000e03 	andeq	r0, r0, r3, lsl #28
  3c:	0b002405 	bleq	9058 <__standby_start+0x9058>
  40:	030b3e0b 	movweq	r3, #48651	; 0xbe0b
  44:	06000008 	streq	r0, [r0], -r8
  48:	0e030016 	mcreq	0, 0, r0, cr3, cr6, {0}
  4c:	0b3b0b3a 	bleq	ec2d3c <__standby_start+0xec2d3c>
  50:	00001349 	andeq	r1, r0, r9, asr #6
  54:	03000d07 	movweq	r0, #3335	; 0xd07
  58:	3b0b3a0e 	blcc	2ce898 <__standby_start+0x2ce898>
  5c:	0b13490b 	bleq	4d2490 <__standby_start+0x4d2490>
  60:	0c0b0d0b 	stceq	13, cr0, [fp], {11}
  64:	000a380b 	andeq	r3, sl, fp, lsl #16
  68:	01040800 	tsteq	r4, r0, lsl #16
  6c:	0b0b0e03 	bleq	2c3880 <__standby_start+0x2c3880>
  70:	0b3b0b3a 	bleq	ec2d60 <__standby_start+0xec2d60>
  74:	00001301 	andeq	r1, r0, r1, lsl #6
  78:	03002809 	movweq	r2, #2057	; 0x809
  7c:	000d1c0e 	andeq	r1, sp, lr, lsl #24
  80:	002e0a00 	eoreq	r0, lr, r0, lsl #20
  84:	0b3a0e03 	bleq	e83898 <__standby_start+0xe83898>
  88:	0c270b3b 	stceq	11, cr0, [r7], #-236	; 0xffffff14
  8c:	00000b20 	andeq	r0, r0, r0, lsr #22
  90:	3f012e0b 	svccc	0x00012e0b
  94:	3a0e030c 	bcc	380ccc <__standby_start+0x380ccc>
  98:	270b3b0b 	strcs	r3, [fp, -fp, lsl #22]
  9c:	1113490c 	tstne	r3, ip, lsl #18
  a0:	40011201 	andmi	r1, r1, r1, lsl #4
  a4:	00130106 	andseq	r0, r3, r6, lsl #2
  a8:	00050c00 	andeq	r0, r5, r0, lsl #24
  ac:	0b3a0803 	bleq	e820c0 <__standby_start+0xe820c0>
  b0:	13490b3b 	movtne	r0, #39739	; 0x9b3b
  b4:	00000602 	andeq	r0, r0, r2, lsl #12
  b8:	0300340d 	movweq	r3, #1037	; 0x40d
  bc:	3b0b3a0e 	blcc	2ce8fc <__standby_start+0x2ce8fc>
  c0:	0213490b 	andseq	r4, r3, #180224	; 0x2c000
  c4:	0e000006 	cdpeq	0, 0, cr0, cr0, cr6, {0}
  c8:	0c3f012e 	ldfeqs	f0, [pc], #-184	; 18 <__standby_start+0x18>
  cc:	0b3a0e03 	bleq	e838e0 <__standby_start+0xe838e0>
  d0:	13490b3b 	movtne	r0, #39739	; 0x9b3b
  d4:	13010c3c 	movwne	r0, #7228	; 0x1c3c
  d8:	180f0000 	stmdane	pc, {}	; <UNPREDICTABLE>
  dc:	10000000 	andne	r0, r0, r0
  e0:	0111010b 	tsteq	r1, fp, lsl #2
  e4:	13010112 	movwne	r0, #4370	; 0x1112
  e8:	2e110000 	cdpcs	0, 1, cr0, cr1, cr0, {0}
  ec:	030c3f01 	movweq	r3, #52993	; 0xcf01
  f0:	3b0b3a0e 	blcc	2ce930 <__standby_start+0x2ce930>
  f4:	3c13490b 	ldccc	9, cr4, [r3], {11}
  f8:	1200000c 	andne	r0, r0, #12
  fc:	1331001d 	teqne	r1, #29
 100:	01120111 	tsteq	r2, r1, lsl r1
 104:	0b590b58 	bleq	1642e6c <__standby_start+0x1642e6c>
 108:	0f130000 	svceq	0x00130000
 10c:	490b0b00 	stmdbmi	fp, {r8, r9, fp}
 110:	14000013 	strne	r0, [r0], #-19	; 0xffffffed
 114:	0e030034 	mcreq	0, 0, r0, cr3, cr4, {1}
 118:	0b3b0b3a 	bleq	ec2e08 <__standby_start+0xec2e08>
 11c:	0c3f1349 	ldceq	3, cr1, [pc], #-292	; 0 <__standby_start>
 120:	00000c3c 	andeq	r0, r0, ip, lsr ip
 124:	03003415 	movweq	r3, #1045	; 0x415
 128:	3b0b3a0e 	blcc	2ce968 <__standby_start+0x2ce968>
 12c:	0213490b 	andseq	r4, r3, #180224	; 0x2c000
 130:	1600000a 	strne	r0, [r0], -sl
 134:	13490101 	movtne	r0, #37121	; 0x9101
 138:	00001301 	andeq	r1, r0, r1, lsl #6
 13c:	49002117 	stmdbmi	r0, {r0, r1, r2, r4, r8, sp}
 140:	000b2f13 	andeq	r2, fp, r3, lsl pc
 144:	00341800 	eorseq	r1, r4, r0, lsl #16
 148:	0b3a0e03 	bleq	e8395c <__standby_start+0xe8395c>
 14c:	13490b3b 	movtne	r0, #39739	; 0x9b3b
 150:	0a020c3f 	beq	83254 <__standby_start+0x83254>
 154:	01000000 	tsteq	r0, r0
 158:	0e250111 	mcreq	1, 1, r0, cr5, cr1, {0}
 15c:	0e030b13 	vmoveq.32	d3[0], r0
 160:	01110e1b 	tsteq	r1, fp, lsl lr
 164:	06100112 			; <UNDEFINED> instruction: 0x06100112
 168:	24020000 	strcs	r0, [r2], #-0
 16c:	3e0b0b00 	vmlacc.f64	d0, d11, d0
 170:	000e030b 	andeq	r0, lr, fp, lsl #6
 174:	00240300 	eoreq	r0, r4, r0, lsl #6
 178:	0b3e0b0b 	bleq	f82dac <__standby_start+0xf82dac>
 17c:	00000803 	andeq	r0, r0, r3, lsl #16
 180:	03001604 	movweq	r1, #1540	; 0x604
 184:	3b0b3a0e 	blcc	2ce9c4 <__standby_start+0x2ce9c4>
 188:	0013490b 	andseq	r4, r3, fp, lsl #18
 18c:	012e0500 	teqeq	lr, r0, lsl #10
 190:	0e030c3f 	mcreq	12, 0, r0, cr3, cr15, {1}
 194:	0b3b0b3a 	bleq	ec2e84 <__standby_start+0xec2e84>
 198:	01110c27 	tsteq	r1, r7, lsr #24
 19c:	0a400112 	beq	10005ec <__standby_start+0x10005ec>
 1a0:	00001301 	andeq	r1, r0, r1, lsl #6
 1a4:	03000506 	movweq	r0, #1286	; 0x506
 1a8:	3b0b3a0e 	blcc	2ce9e8 <__standby_start+0x2ce9e8>
 1ac:	0213490b 	andseq	r4, r3, #180224	; 0x2c000
 1b0:	07000006 	streq	r0, [r0, -r6]
 1b4:	08030005 	stmdaeq	r3, {r0, r2}
 1b8:	0b3b0b3a 	bleq	ec2ea8 <__standby_start+0xec2ea8>
 1bc:	06021349 	streq	r1, [r2], -r9, asr #6
 1c0:	34080000 	strcc	r0, [r8], #-0
 1c4:	3a0e0300 	bcc	380dcc <__standby_start+0x380dcc>
 1c8:	490b3b0b 	stmdbmi	fp, {r0, r1, r3, r8, r9, fp, ip, sp}
 1cc:	00060213 	andeq	r0, r6, r3, lsl r2
 1d0:	000f0900 	andeq	r0, pc, r0, lsl #18
 1d4:	00000b0b 	andeq	r0, r0, fp, lsl #22
 1d8:	0b000f0a 	bleq	3e08 <__standby_start+0x3e08>
 1dc:	0013490b 	andseq	r4, r3, fp, lsl #18
 1e0:	00340b00 	eorseq	r0, r4, r0, lsl #22
 1e4:	0b3a0e03 	bleq	e839f8 <__standby_start+0xe839f8>
 1e8:	13490b3b 	movtne	r0, #39739	; 0x9b3b
 1ec:	0c3c0c3f 	ldceq	12, cr0, [ip], #-252	; 0xffffff04
 1f0:	01000000 	tsteq	r0, r0
 1f4:	06100011 			; <UNDEFINED> instruction: 0x06100011
 1f8:	01120111 	tsteq	r2, r1, lsl r1
 1fc:	081b0803 	ldmdaeq	fp, {r0, r1, fp}
 200:	05130825 	ldreq	r0, [r3, #-2085]	; 0xfffff7db
 204:	01000000 	tsteq	r0, r0
 208:	0e250111 	mcreq	1, 1, r0, cr5, cr1, {0}
 20c:	0e030b13 	vmoveq.32	d3[0], r0
 210:	01110e1b 	tsteq	r1, fp, lsl lr
 214:	06100112 			; <UNDEFINED> instruction: 0x06100112
 218:	24020000 	strcs	r0, [r2], #-0
 21c:	3e0b0b00 	vmlacc.f64	d0, d11, d0
 220:	000e030b 	andeq	r0, lr, fp, lsl #6
 224:	00240300 	eoreq	r0, r4, r0, lsl #6
 228:	0b3e0b0b 	bleq	f82e5c <__standby_start+0xf82e5c>
 22c:	00000803 	andeq	r0, r0, r3, lsl #16
 230:	03001604 	movweq	r1, #1540	; 0x604
 234:	3b0b3a0e 	blcc	2cea74 <__standby_start+0x2cea74>
 238:	0013490b 	andseq	r4, r3, fp, lsl #18
 23c:	01130500 	tsteq	r3, r0, lsl #10
 240:	0b0b0e03 	bleq	2c3a54 <__standby_start+0x2c3a54>
 244:	0b3b0b3a 	bleq	ec2f34 <__standby_start+0xec2f34>
 248:	00001301 	andeq	r1, r0, r1, lsl #6
 24c:	03000d06 	movweq	r0, #3334	; 0xd06
 250:	3b0b3a0e 	blcc	2cea90 <__standby_start+0x2cea90>
 254:	0b13490b 	bleq	4d2688 <__standby_start+0x4d2688>
 258:	0c0b0d0b 	stceq	13, cr0, [fp], {11}
 25c:	000a380b 	andeq	r3, sl, fp, lsl #16
 260:	000d0700 	andeq	r0, sp, r0, lsl #14
 264:	0b3a0e03 	bleq	e83a78 <__standby_start+0xe83a78>
 268:	1349053b 	movtne	r0, #38203	; 0x953b
 26c:	0b0d0b0b 	bleq	342ea0 <__standby_start+0x342ea0>
 270:	0a380b0c 	beq	e02ea8 <__standby_start+0xe02ea8>
 274:	16080000 	strne	r0, [r8], -r0
 278:	3a0e0300 	bcc	380e80 <__standby_start+0x380e80>
 27c:	49053b0b 	stmdbmi	r5, {r0, r1, r3, r8, r9, fp, ip, sp}
 280:	09000013 	stmdbeq	r0, {r0, r1, r4}
 284:	0e030113 	mcreq	1, 0, r0, cr3, cr3, {0}
 288:	0b3a0b0b 	bleq	e82ebc <__standby_start+0xe82ebc>
 28c:	1301053b 	movwne	r0, #5435	; 0x153b
 290:	130a0000 	movwne	r0, #40960	; 0xa000
 294:	0b0e0301 	bleq	380ea0 <__standby_start+0x380ea0>
 298:	3b0b3a05 	blcc	2ceab4 <__standby_start+0x2ceab4>
 29c:	00130105 	andseq	r0, r3, r5, lsl #2
 2a0:	000d0b00 	andeq	r0, sp, r0, lsl #22
 2a4:	0b3a0e03 	bleq	e83ab8 <__standby_start+0xe83ab8>
 2a8:	1349053b 	movtne	r0, #38203	; 0x953b
 2ac:	00000a38 	andeq	r0, r0, r8, lsr sl
 2b0:	4900350c 	stmdbmi	r0, {r2, r3, r8, sl, ip, sp}
 2b4:	0d000013 	stceq	0, cr0, [r0, #-76]	; 0xffffffb4
 2b8:	13490101 	movtne	r0, #37121	; 0x9101
 2bc:	00001301 	andeq	r1, r0, r1, lsl #6
 2c0:	4900210e 	stmdbmi	r0, {r1, r2, r3, r8, sp}
 2c4:	000b2f13 	andeq	r2, fp, r3, lsl pc
 2c8:	002e0f00 	eoreq	r0, lr, r0, lsl #30
 2cc:	0e030c3f 	mcreq	12, 0, r0, cr3, cr15, {1}
 2d0:	0b3b0b3a 	bleq	ec2fc0 <__standby_start+0xec2fc0>
 2d4:	13490c27 	movtne	r0, #39975	; 0x9c27
 2d8:	01120111 	tsteq	r2, r1, lsl r1
 2dc:	00000a40 	andeq	r0, r0, r0, asr #20
 2e0:	3f002e10 	svccc	0x00002e10
 2e4:	3a0e030c 	bcc	380f1c <__standby_start+0x380f1c>
 2e8:	27053b0b 	strcs	r3, [r5, -fp, lsl #22]
 2ec:	1113490c 	tstne	r3, ip, lsl #18
 2f0:	40011201 	andmi	r1, r1, r1, lsl #4
 2f4:	1100000a 	tstne	r0, sl
 2f8:	0c3f012e 	ldfeqs	f0, [pc], #-184	; 248 <__standby_start+0x248>
 2fc:	0b3a0e03 	bleq	e83b10 <__standby_start+0xe83b10>
 300:	0c27053b 	cfstr32eq	mvfx0, [r7], #-236	; 0xffffff14
 304:	01111349 	tsteq	r1, r9, asr #6
 308:	0a400112 	beq	1000758 <__standby_start+0x1000758>
 30c:	00001301 	andeq	r1, r0, r1, lsl #6
 310:	03000512 	movweq	r0, #1298	; 0x512
 314:	3b0b3a0e 	blcc	2ceb54 <__standby_start+0x2ceb54>
 318:	02134905 	andseq	r4, r3, #81920	; 0x14000
 31c:	13000006 	movwne	r0, #6
 320:	0b0b000f 	bleq	2c0364 <__standby_start+0x2c0364>
 324:	00001349 	andeq	r1, r0, r9, asr #6
 328:	3f012e14 	svccc	0x00012e14
 32c:	3a0e030c 	bcc	380f64 <__standby_start+0x380f64>
 330:	27053b0b 	strcs	r3, [r5, -fp, lsl #22]
 334:	1201110c 	andne	r1, r1, #12, 2
 338:	010a4001 	tsteq	sl, r1
 33c:	15000013 	strne	r0, [r0, #-19]	; 0xffffffed
 340:	0e030005 	cdpeq	0, 0, cr0, cr3, cr5, {0}
 344:	053b0b3a 	ldreq	r0, [fp, #-2874]!	; 0xfffff4c6
 348:	0a021349 	beq	85074 <__standby_start+0x85074>
 34c:	34160000 	ldrcc	r0, [r6], #-0
 350:	3a0e0300 	bcc	380f58 <__standby_start+0x380f58>
 354:	490b3b0b 	stmdbmi	fp, {r0, r1, r3, r8, r9, fp, ip, sp}
 358:	3c0c3f13 	stccc	15, cr3, [ip], {19}
 35c:	1700000c 	strne	r0, [r0, -ip]
 360:	0e030034 	mcreq	0, 0, r0, cr3, cr4, {1}
 364:	0b3b0b3a 	bleq	ec3054 <__standby_start+0xec3054>
 368:	0a021349 	beq	85094 <__standby_start+0x85094>
 36c:	34180000 	ldrcc	r0, [r8], #-0
 370:	3a0e0300 	bcc	380f78 <__standby_start+0x380f78>
 374:	490b3b0b 	stmdbmi	fp, {r0, r1, r3, r8, r9, fp, ip, sp}
 378:	020c3f13 	andeq	r3, ip, #19, 30	; 0x4c
 37c:	0000000a 	andeq	r0, r0, sl
 380:	25011101 	strcs	r1, [r1, #-257]	; 0xfffffeff
 384:	030b130e 	movweq	r1, #45838	; 0xb30e
 388:	110e1b0e 	tstne	lr, lr, lsl #22
 38c:	10011201 	andne	r1, r1, r1, lsl #4
 390:	02000006 	andeq	r0, r0, #6
 394:	0b0b0024 	bleq	2c042c <__standby_start+0x2c042c>
 398:	0e030b3e 	vmoveq.16	d3[0], r0
 39c:	24030000 	strcs	r0, [r3], #-0
 3a0:	3e0b0b00 	vmlacc.f64	d0, d11, d0
 3a4:	0008030b 	andeq	r0, r8, fp, lsl #6
 3a8:	00160400 	andseq	r0, r6, r0, lsl #8
 3ac:	0b3a0e03 	bleq	e83bc0 <__standby_start+0xe83bc0>
 3b0:	13490b3b 	movtne	r0, #39739	; 0x9b3b
 3b4:	2e050000 	cdpcs	0, 0, cr0, cr5, cr0, {0}
 3b8:	030c3f01 	movweq	r3, #52993	; 0xcf01
 3bc:	3b0b3a0e 	blcc	2cebfc <__standby_start+0x2cebfc>
 3c0:	110c270b 	tstne	ip, fp, lsl #14
 3c4:	40011201 	andmi	r1, r1, r1, lsl #4
 3c8:	0013010a 	andseq	r0, r3, sl, lsl #2
 3cc:	00340600 	eorseq	r0, r4, r0, lsl #12
 3d0:	0b3a0803 	bleq	e823e4 <__standby_start+0xe823e4>
 3d4:	13490b3b 	movtne	r0, #39739	; 0x9b3b
 3d8:	34070000 	strcc	r0, [r7], #-0
 3dc:	3a0e0300 	bcc	380fe4 <__standby_start+0x380fe4>
 3e0:	490b3b0b 	stmdbmi	fp, {r0, r1, r3, r8, r9, fp, ip, sp}
 3e4:	00060213 	andeq	r0, r6, r3, lsl r2
 3e8:	002e0800 	eoreq	r0, lr, r0, lsl #16
 3ec:	0e030c3f 	mcreq	12, 0, r0, cr3, cr15, {1}
 3f0:	0b3b0b3a 	bleq	ec30e0 <__standby_start+0xec30e0>
 3f4:	01110c27 	tsteq	r1, r7, lsr #24
 3f8:	0a400112 	beq	1000848 <__standby_start+0x1000848>
 3fc:	05090000 	streq	r0, [r9, #-0]
 400:	3a0e0300 	bcc	381008 <__standby_start+0x381008>
 404:	490b3b0b 	stmdbmi	fp, {r0, r1, r3, r8, r9, fp, ip, sp}
 408:	000a0213 	andeq	r0, sl, r3, lsl r2
 40c:	00050a00 	andeq	r0, r5, r0, lsl #20
 410:	0b3a0803 	bleq	e82424 <__standby_start+0xe82424>
 414:	13490b3b 	movtne	r0, #39739	; 0x9b3b
 418:	00000a02 	andeq	r0, r0, r2, lsl #20
 41c:	3f012e0b 	svccc	0x00012e0b
 420:	3a0e030c 	bcc	381058 <__standby_start+0x381058>
 424:	270b3b0b 	strcs	r3, [fp, -fp, lsl #22]
 428:	1201110c 	andne	r1, r1, #12, 2
 42c:	01064001 	tsteq	r6, r1
 430:	0c000013 	stceq	0, cr0, [r0], {19}
 434:	08030034 	stmdaeq	r3, {r2, r4, r5}
 438:	0b3b0b3a 	bleq	ec3128 <__standby_start+0xec3128>
 43c:	06021349 	streq	r1, [r2], -r9, asr #6
 440:	2e0d0000 	cdpcs	0, 0, cr0, cr13, cr0, {0}
 444:	030c3f01 	movweq	r3, #52993	; 0xcf01
 448:	3b0b3a0e 	blcc	2cec88 <__standby_start+0x2cec88>
 44c:	490c270b 	stmdbmi	ip, {r0, r1, r3, r8, r9, sl, sp}
 450:	12011113 	andne	r1, r1, #-1073741820	; 0xc0000004
 454:	010a4001 	tsteq	sl, r1
 458:	0e000013 	mcreq	0, 0, r0, cr0, cr3, {0}
 45c:	0e030005 	cdpeq	0, 0, cr0, cr3, cr5, {0}
 460:	0b3b0b3a 	bleq	ec3150 <__standby_start+0xec3150>
 464:	06021349 	streq	r1, [r2], -r9, asr #6
 468:	340f0000 	strcc	r0, [pc], #-0	; 470 <__standby_start+0x470>
 46c:	3a0e0300 	bcc	381074 <__standby_start+0x381074>
 470:	490b3b0b 	stmdbmi	fp, {r0, r1, r3, r8, r9, fp, ip, sp}
 474:	000a0213 	andeq	r0, sl, r3, lsl r2
 478:	012e1000 	teqeq	lr, r0
 47c:	0e030c3f 	mcreq	12, 0, r0, cr3, cr15, {1}
 480:	0b3b0b3a 	bleq	ec3170 <__standby_start+0xec3170>
 484:	13490c27 	movtne	r0, #39975	; 0x9c27
 488:	01120111 	tsteq	r2, r1, lsl r1
 48c:	13010640 	movwne	r0, #5696	; 0x1640
 490:	2e110000 	cdpcs	0, 1, cr0, cr1, cr0, {0}
 494:	030c3f01 	movweq	r3, #52993	; 0xcf01
 498:	3b0b3a0e 	blcc	2cecd8 <__standby_start+0x2cecd8>
 49c:	490c2705 	stmdbmi	ip, {r0, r2, r8, r9, sl, sp}
 4a0:	12011113 	andne	r1, r1, #-1073741820	; 0xc0000004
 4a4:	01064001 	tsteq	r6, r1
 4a8:	12000013 	andne	r0, r0, #19
 4ac:	08030034 	stmdaeq	r3, {r2, r4, r5}
 4b0:	053b0b3a 	ldreq	r0, [fp, #-2874]!	; 0xfffff4c6
 4b4:	00001349 	andeq	r1, r0, r9, asr #6
 4b8:	03003413 	movweq	r3, #1043	; 0x413
 4bc:	3b0b3a0e 	blcc	2cecfc <__standby_start+0x2cecfc>
 4c0:	02134905 	andseq	r4, r3, #81920	; 0x14000
 4c4:	14000006 	strne	r0, [r0], #-6
 4c8:	0e030034 	mcreq	0, 0, r0, cr3, cr4, {1}
 4cc:	053b0b3a 	ldreq	r0, [fp, #-2874]!	; 0xfffff4c6
 4d0:	0a021349 	beq	851fc <__standby_start+0x851fc>
 4d4:	0b150000 	bleq	5404dc <__standby_start+0x5404dc>
 4d8:	12011101 	andne	r1, r1, #1073741824	; 0x40000000
 4dc:	16000001 	strne	r0, [r0], -r1
 4e0:	0c3f012e 	ldfeqs	f0, [pc], #-184	; 430 <__standby_start+0x430>
 4e4:	0b3a0e03 	bleq	e83cf8 <__standby_start+0xe83cf8>
 4e8:	1349053b 	movtne	r0, #38203	; 0x953b
 4ec:	13010c3c 	movwne	r0, #7228	; 0x1c3c
 4f0:	18170000 	ldmdane	r7, {}	; <UNPREDICTABLE>
 4f4:	18000000 	stmdane	r0, {}	; <UNPREDICTABLE>
 4f8:	0c3f012e 	ldfeqs	f0, [pc], #-184	; 448 <__standby_start+0x448>
 4fc:	0b3a0e03 	bleq	e83d10 <__standby_start+0xe83d10>
 500:	1349053b 	movtne	r0, #38203	; 0x953b
 504:	00000c3c 	andeq	r0, r0, ip, lsr ip
 508:	3f012e19 	svccc	0x00012e19
 50c:	3a0e030c 	bcc	381144 <__standby_start+0x381144>
 510:	27053b0b 	strcs	r3, [r5, -fp, lsl #22]
 514:	1201110c 	andne	r1, r1, #12, 2
 518:	01064001 	tsteq	r6, r1
 51c:	1a000013 	bne	570 <__standby_start+0x570>
 520:	0e030034 	mcreq	0, 0, r0, cr3, cr4, {1}
 524:	053b0b3a 	ldreq	r0, [fp, #-2874]!	; 0xfffff4c6
 528:	00001349 	andeq	r1, r0, r9, asr #6
 52c:	3f002e1b 	svccc	0x00002e1b
 530:	3a0e030c 	bcc	381168 <__standby_start+0x381168>
 534:	27053b0b 	strcs	r3, [r5, -fp, lsl #22]
 538:	1201110c 	andne	r1, r1, #12, 2
 53c:	000a4001 	andeq	r4, sl, r1
 540:	012e1c00 	teqeq	lr, r0, lsl #24
 544:	0e030c3f 	mcreq	12, 0, r0, cr3, cr15, {1}
 548:	053b0b3a 	ldreq	r0, [fp, #-2874]!	; 0xfffff4c6
 54c:	01110c27 	tsteq	r1, r7, lsr #24
 550:	0a400112 	beq	10009a0 <__standby_start+0x10009a0>
 554:	00001301 	andeq	r1, r0, r1, lsl #6
 558:	0300051d 	movweq	r0, #1309	; 0x51d
 55c:	3b0b3a0e 	blcc	2ced9c <__standby_start+0x2ced9c>
 560:	02134905 	andseq	r4, r3, #81920	; 0x14000
 564:	1e00000a 	cdpne	0, 0, cr0, cr0, cr10, {0}
 568:	08030005 	stmdaeq	r3, {r0, r2}
 56c:	053b0b3a 	ldreq	r0, [fp, #-2874]!	; 0xfffff4c6
 570:	0a021349 	beq	8529c <__standby_start+0x8529c>
 574:	2e1f0000 	cdpcs	0, 1, cr0, cr15, cr0, {0}
 578:	030c3f01 	movweq	r3, #52993	; 0xcf01
 57c:	3b0b3a0e 	blcc	2cedbc <__standby_start+0x2cedbc>
 580:	490c2705 	stmdbmi	ip, {r0, r2, r8, r9, sl, sp}
 584:	12011113 	andne	r1, r1, #-1073741820	; 0xc0000004
 588:	010a4001 	tsteq	sl, r1
 58c:	20000013 	andcs	r0, r0, r3, lsl r0
 590:	0c3f012e 	ldfeqs	f0, [pc], #-184	; 4e0 <__standby_start+0x4e0>
 594:	0b3a0e03 	bleq	e83da8 <__standby_start+0xe83da8>
 598:	0c27053b 	cfstr32eq	mvfx0, [r7], #-236	; 0xffffff14
 59c:	01120111 	tsteq	r2, r1, lsl r1
 5a0:	00000a40 	andeq	r0, r0, r0, asr #20
 5a4:	01110100 	tsteq	r1, r0, lsl #2
 5a8:	0b130e25 	bleq	4c3e44 <__standby_start+0x4c3e44>
 5ac:	0e1b0e03 	cdpeq	14, 1, cr0, cr11, cr3, {0}
 5b0:	01120111 	tsteq	r2, r1, lsl r1
 5b4:	00000610 	andeq	r0, r0, r0, lsl r6
 5b8:	0b002402 	bleq	95c8 <__standby_start+0x95c8>
 5bc:	030b3e0b 	movweq	r3, #48651	; 0xbe0b
 5c0:	0300000e 	movweq	r0, #14
 5c4:	0e030113 	mcreq	1, 0, r0, cr3, cr3, {0}
 5c8:	0b3a0b0b 	bleq	e831fc <__standby_start+0xe831fc>
 5cc:	13010b3b 	movwne	r0, #6971	; 0x1b3b
 5d0:	0d040000 	stceq	0, cr0, [r4, #-0]
 5d4:	3a0e0300 	bcc	3811dc <__standby_start+0x3811dc>
 5d8:	490b3b0b 	stmdbmi	fp, {r0, r1, r3, r8, r9, fp, ip, sp}
 5dc:	000a3813 	andeq	r3, sl, r3, lsl r8
 5e0:	00240500 	eoreq	r0, r4, r0, lsl #10
 5e4:	0b3e0b0b 	bleq	f83218 <__standby_start+0xf83218>
 5e8:	00000803 	andeq	r0, r0, r3, lsl #16
 5ec:	03001606 	movweq	r1, #1542	; 0x606
 5f0:	3b0b3a0e 	blcc	2cee30 <__standby_start+0x2cee30>
 5f4:	0013490b 	andseq	r4, r3, fp, lsl #18
 5f8:	002e0700 	eoreq	r0, lr, r0, lsl #14
 5fc:	0e030c3f 	mcreq	12, 0, r0, cr3, cr15, {1}
 600:	053b0b3a 	ldreq	r0, [fp, #-2874]!	; 0xfffff4c6
 604:	13490c27 	movtne	r0, #39975	; 0x9c27
 608:	00000b20 	andeq	r0, r0, r0, lsr #22
 60c:	03012e08 	movweq	r2, #7688	; 0x1e08
 610:	3b0b3a0e 	blcc	2cee50 <__standby_start+0x2cee50>
 614:	490c270b 	stmdbmi	ip, {r0, r1, r3, r8, r9, sl, sp}
 618:	010b2013 	tsteq	fp, r3, lsl r0
 61c:	09000013 	stmdbeq	r0, {r0, r1, r4}
 620:	0e030005 	cdpeq	0, 0, cr0, cr3, cr5, {0}
 624:	0b3b0b3a 	bleq	ec3314 <__standby_start+0xec3314>
 628:	00001349 	andeq	r1, r0, r9, asr #6
 62c:	0300340a 	movweq	r3, #1034	; 0x40a
 630:	3b0b3a0e 	blcc	2cee70 <__standby_start+0x2cee70>
 634:	0013490b 	andseq	r4, r3, fp, lsl #18
 638:	012e0b00 	teqeq	lr, r0, lsl #22
 63c:	0e030c3f 	mcreq	12, 0, r0, cr3, cr15, {1}
 640:	0b3b0b3a 	bleq	ec3330 <__standby_start+0xec3330>
 644:	01110c27 	tsteq	r1, r7, lsr #24
 648:	06400112 			; <UNDEFINED> instruction: 0x06400112
 64c:	00001301 	andeq	r1, r0, r1, lsl #6
 650:	0300340c 	movweq	r3, #1036	; 0x40c
 654:	3b0b3a0e 	blcc	2cee94 <__standby_start+0x2cee94>
 658:	0213490b 	andseq	r4, r3, #180224	; 0x2c000
 65c:	0d000006 	stceq	0, cr0, [r0, #-24]	; 0xffffffe8
 660:	08030034 	stmdaeq	r3, {r2, r4, r5}
 664:	0b3b0b3a 	bleq	ec3354 <__standby_start+0xec3354>
 668:	0b1c1349 	bleq	705394 <__standby_start+0x705394>
 66c:	2e0e0000 	cdpcs	0, 0, cr0, cr14, cr0, {0}
 670:	030c3f01 	movweq	r3, #52993	; 0xcf01
 674:	3b0b3a0e 	blcc	2ceeb4 <__standby_start+0x2ceeb4>
 678:	110c270b 	tstne	ip, fp, lsl #14
 67c:	40011201 	andmi	r1, r1, r1, lsl #4
 680:	0013010a 	andseq	r0, r3, sl, lsl #2
 684:	00340f00 	eorseq	r0, r4, r0, lsl #30
 688:	0b3a0803 	bleq	e8269c <__standby_start+0xe8269c>
 68c:	13490b3b 	movtne	r0, #39739	; 0x9b3b
 690:	00000602 	andeq	r0, r0, r2, lsl #12
 694:	03000510 	movweq	r0, #1296	; 0x510
 698:	3b0b3a08 	blcc	2ceec0 <__standby_start+0x2ceec0>
 69c:	0213490b 	andseq	r4, r3, #180224	; 0x2c000
 6a0:	11000006 	tstne	r0, r6
 6a4:	08030034 	stmdaeq	r3, {r2, r4, r5}
 6a8:	0b3b0b3a 	bleq	ec3398 <__standby_start+0xec3398>
 6ac:	00001349 	andeq	r1, r0, r9, asr #6
 6b0:	31011d12 	tstcc	r1, r2, lsl sp
 6b4:	12011113 	andne	r1, r1, #-1073741820	; 0xc0000004
 6b8:	590b5801 	stmdbpl	fp, {r0, fp, ip, lr}
 6bc:	1300000b 	movwne	r0, #11
 6c0:	13310005 	teqne	r1, #5
 6c4:	00000602 	andeq	r0, r0, r2, lsl #12
 6c8:	11010b14 	tstne	r1, r4, lsl fp
 6cc:	00011201 	andeq	r1, r1, r1, lsl #4
 6d0:	00341500 	eorseq	r1, r4, r0, lsl #10
 6d4:	06021331 			; <UNDEFINED> instruction: 0x06021331
 6d8:	05160000 	ldreq	r0, [r6, #-0]
 6dc:	1c133100 	ldfnes	f3, [r3], {-0}
 6e0:	1700000b 	strne	r0, [r0, -fp]
 6e4:	1331002e 	teqne	r1, #46	; 0x2e
 6e8:	01120111 	tsteq	r2, r1, lsl r1
 6ec:	00000a40 	andeq	r0, r0, r0, asr #20
 6f0:	3f012e18 	svccc	0x00012e18
 6f4:	3a0e030c 	bcc	38132c <__standby_start+0x38132c>
 6f8:	27053b0b 	strcs	r3, [r5, -fp, lsl #22]
 6fc:	1113490c 	tstne	r3, ip, lsl #18
 700:	40011201 	andmi	r1, r1, r1, lsl #4
 704:	0013010a 	andseq	r0, r3, sl, lsl #2
 708:	00341900 	eorseq	r1, r4, r0, lsl #18
 70c:	0b3a0e03 	bleq	e83f20 <__standby_start+0xe83f20>
 710:	1349053b 	movtne	r0, #38203	; 0x953b
 714:	00000602 	andeq	r0, r0, r2, lsl #12
 718:	3f012e1a 	svccc	0x00012e1a
 71c:	3a0e030c 	bcc	381354 <__standby_start+0x381354>
 720:	27053b0b 	strcs	r3, [r5, -fp, lsl #22]
 724:	1201110c 	andne	r1, r1, #12, 2
 728:	010a4001 	tsteq	sl, r1
 72c:	1b000013 	blne	780 <__standby_start+0x780>
 730:	08030005 	stmdaeq	r3, {r0, r2}
 734:	053b0b3a 	ldreq	r0, [fp, #-2874]!	; 0xfffff4c6
 738:	0a021349 	beq	85464 <__standby_start+0x85464>
 73c:	051c0000 	ldreq	r0, [ip, #-0]
 740:	3a080300 	bcc	201348 <__standby_start+0x201348>
 744:	49053b0b 	stmdbmi	r5, {r0, r1, r3, r8, r9, fp, ip, sp}
 748:	00060213 	andeq	r0, r6, r3, lsl r2
 74c:	012e1d00 	teqeq	lr, r0, lsl #26
 750:	0e030c3f 	mcreq	12, 0, r0, cr3, cr15, {1}
 754:	0b3b0b3a 	bleq	ec3444 <__standby_start+0xec3444>
 758:	13490c27 	movtne	r0, #39975	; 0x9c27
 75c:	01120111 	tsteq	r2, r1, lsl r1
 760:	13010640 	movwne	r0, #5696	; 0x1640
 764:	051e0000 	ldreq	r0, [lr, #-0]
 768:	3a0e0300 	bcc	381370 <__standby_start+0x381370>
 76c:	490b3b0b 	stmdbmi	fp, {r0, r1, r3, r8, r9, fp, ip, sp}
 770:	00060213 	andeq	r0, r6, r3, lsl r2
 774:	000f1f00 	andeq	r1, pc, r0, lsl #30
 778:	13490b0b 	movtne	r0, #39691	; 0x9b0b
 77c:	2e200000 	cdpcs	0, 2, cr0, cr0, cr0, {0}
 780:	030c3f00 	movweq	r3, #52992	; 0xcf00
 784:	3b0b3a0e 	blcc	2cefc4 <__standby_start+0x2cefc4>
 788:	490c2705 	stmdbmi	ip, {r0, r2, r8, r9, sl, sp}
 78c:	12011113 	andne	r1, r1, #-1073741820	; 0xc0000004
 790:	000a4001 	andeq	r4, sl, r1
 794:	002e2100 	eoreq	r2, lr, r0, lsl #2
 798:	0e030c3f 	mcreq	12, 0, r0, cr3, cr15, {1}
 79c:	053b0b3a 	ldreq	r0, [fp, #-2874]!	; 0xfffff4c6
 7a0:	01110c27 	tsteq	r1, r7, lsr #24
 7a4:	0a400112 	beq	1000bf4 <__standby_start+0x1000bf4>
 7a8:	01220000 	teqeq	r2, r0
 7ac:	01134901 	tsteq	r3, r1, lsl #18
 7b0:	23000013 	movwcs	r0, #19
 7b4:	13490021 	movtne	r0, #36897	; 0x9021
 7b8:	00000b2f 	andeq	r0, r0, pc, lsr #22
 7bc:	03003424 	movweq	r3, #1060	; 0x424
 7c0:	3b0b3a0e 	blcc	2cf000 <__standby_start+0x2cf000>
 7c4:	3f13490b 	svccc	0x0013490b
 7c8:	000c3c0c 	andeq	r3, ip, ip, lsl #24
 7cc:	00342500 	eorseq	r2, r4, r0, lsl #10
 7d0:	0b3a0e03 	bleq	e83fe4 <__standby_start+0xe83fe4>
 7d4:	13490b3b 	movtne	r0, #39739	; 0x9b3b
 7d8:	0a020c3f 	beq	838dc <__standby_start+0x838dc>
 7dc:	01000000 	tsteq	r0, r0
 7e0:	0e250111 	mcreq	1, 1, r0, cr5, cr1, {0}
 7e4:	0e030b13 	vmoveq.32	d3[0], r0
 7e8:	01110e1b 	tsteq	r1, fp, lsl lr
 7ec:	06100112 			; <UNDEFINED> instruction: 0x06100112
 7f0:	24020000 	strcs	r0, [r2], #-0
 7f4:	3e0b0b00 	vmlacc.f64	d0, d11, d0
 7f8:	000e030b 	andeq	r0, lr, fp, lsl #6
 7fc:	00240300 	eoreq	r0, r4, r0, lsl #6
 800:	0b3e0b0b 	bleq	f83434 <__standby_start+0xf83434>
 804:	00000803 	andeq	r0, r0, r3, lsl #16
 808:	03001604 	movweq	r1, #1540	; 0x604
 80c:	3b0b3a0e 	blcc	2cf04c <__standby_start+0x2cf04c>
 810:	0013490b 	andseq	r4, r3, fp, lsl #18
 814:	00350500 	eorseq	r0, r5, r0, lsl #10
 818:	00001349 	andeq	r1, r0, r9, asr #6
 81c:	49010106 	stmdbmi	r1, {r1, r2, r8}
 820:	00130113 	andseq	r0, r3, r3, lsl r1
 824:	00210700 	eoreq	r0, r1, r0, lsl #14
 828:	0b2f1349 	bleq	bc5554 <__standby_start+0xbc5554>
 82c:	04080000 	streq	r0, [r8], #-0
 830:	0b0e0301 	bleq	38143c <__standby_start+0x38143c>
 834:	3b0b3a0b 	blcc	2cf068 <__standby_start+0x2cf068>
 838:	0013010b 	andseq	r0, r3, fp, lsl #2
 83c:	00280900 	eoreq	r0, r8, r0, lsl #18
 840:	0d1c0e03 	ldceq	14, cr0, [ip, #-12]
 844:	130a0000 	movwne	r0, #40960	; 0xa000
 848:	0b0e0301 	bleq	381454 <__standby_start+0x381454>
 84c:	3b0b3a0b 	blcc	2cf080 <__standby_start+0x2cf080>
 850:	0013010b 	andseq	r0, r3, fp, lsl #2
 854:	000d0b00 	andeq	r0, sp, r0, lsl #22
 858:	0b3a0e03 	bleq	e8406c <__standby_start+0xe8406c>
 85c:	13490b3b 	movtne	r0, #39739	; 0x9b3b
 860:	00000a38 	andeq	r0, r0, r8, lsr sl
 864:	3f002e0c 	svccc	0x00002e0c
 868:	3a0e030c 	bcc	3814a0 <__standby_start+0x3814a0>
 86c:	270b3b0b 	strcs	r3, [fp, -fp, lsl #22]
 870:	1113490c 	tstne	r3, ip, lsl #18
 874:	40011201 	andmi	r1, r1, r1, lsl #4
 878:	0d00000a 	stceq	0, cr0, [r0, #-40]	; 0xffffffd8
 87c:	0c3f012e 	ldfeqs	f0, [pc], #-184	; 7cc <__standby_start+0x7cc>
 880:	0b3a0e03 	bleq	e84094 <__standby_start+0xe84094>
 884:	0c270b3b 	stceq	11, cr0, [r7], #-236	; 0xffffff14
 888:	01111349 	tsteq	r1, r9, asr #6
 88c:	06400112 			; <UNDEFINED> instruction: 0x06400112
 890:	00001301 	andeq	r1, r0, r1, lsl #6
 894:	0300050e 	movweq	r0, #1294	; 0x50e
 898:	3b0b3a08 	blcc	2cf0c0 <__standby_start+0x2cf0c0>
 89c:	0213490b 	andseq	r4, r3, #180224	; 0x2c000
 8a0:	0f000006 	svceq	0x00000006
 8a4:	0e030034 	mcreq	0, 0, r0, cr3, cr4, {1}
 8a8:	0b3b0b3a 	bleq	ec3598 <__standby_start+0xec3598>
 8ac:	06021349 	streq	r1, [r2], -r9, asr #6
 8b0:	2e100000 	cdpcs	0, 1, cr0, cr0, cr0, {0}
 8b4:	030c3f01 	movweq	r3, #52993	; 0xcf01
 8b8:	3b0b3a0e 	blcc	2cf0f8 <__standby_start+0x2cf0f8>
 8bc:	490c270b 	stmdbmi	ip, {r0, r1, r3, r8, r9, sl, sp}
 8c0:	12011113 	andne	r1, r1, #-1073741820	; 0xc0000004
 8c4:	010a4001 	tsteq	sl, r1
 8c8:	11000013 	tstne	r0, r3, lsl r0
 8cc:	0e030034 	mcreq	0, 0, r0, cr3, cr4, {1}
 8d0:	0b3b0b3a 	bleq	ec35c0 <__standby_start+0xec35c0>
 8d4:	0a021349 	beq	85600 <__standby_start+0x85600>
 8d8:	0f120000 	svceq	0x00120000
 8dc:	490b0b00 	stmdbmi	fp, {r8, r9, fp}
 8e0:	00000013 	andeq	r0, r0, r3, lsl r0
 8e4:	25011101 	strcs	r1, [r1, #-257]	; 0xfffffeff
 8e8:	030b130e 	movweq	r1, #45838	; 0xb30e
 8ec:	110e1b0e 	tstne	lr, lr, lsl #22
 8f0:	10011201 	andne	r1, r1, r1, lsl #4
 8f4:	02000006 	andeq	r0, r0, #6
 8f8:	0b0b0024 	bleq	2c0990 <__standby_start+0x2c0990>
 8fc:	0e030b3e 	vmoveq.16	d3[0], r0
 900:	24030000 	strcs	r0, [r3], #-0
 904:	3e0b0b00 	vmlacc.f64	d0, d11, d0
 908:	0008030b 	andeq	r0, r8, fp, lsl #6
 90c:	00160400 	andseq	r0, r6, r0, lsl #8
 910:	0b3a0e03 	bleq	e84124 <__standby_start+0xe84124>
 914:	13490b3b 	movtne	r0, #39739	; 0x9b3b
 918:	2e050000 	cdpcs	0, 0, cr0, cr5, cr0, {0}
 91c:	030c3f00 	movweq	r3, #52992	; 0xcf00
 920:	3b0b3a0e 	blcc	2cf160 <__standby_start+0x2cf160>
 924:	490c270b 	stmdbmi	ip, {r0, r1, r3, r8, r9, sl, sp}
 928:	12011113 	andne	r1, r1, #-1073741820	; 0xc0000004
 92c:	000a4001 	andeq	r4, sl, r1
 930:	11010000 	tstne	r1, r0
 934:	130e2501 	movwne	r2, #58625	; 0xe501
 938:	1b0e030b 	blne	38156c <__standby_start+0x38156c>
 93c:	1201110e 	andne	r1, r1, #-2147483645	; 0x80000003
 940:	00061001 	andeq	r1, r6, r1
 944:	00240200 	eoreq	r0, r4, r0, lsl #4
 948:	0b3e0b0b 	bleq	f8357c <__standby_start+0xf8357c>
 94c:	00000e03 	andeq	r0, r0, r3, lsl #28
 950:	0b002403 	bleq	9964 <__standby_start+0x9964>
 954:	030b3e0b 	movweq	r3, #48651	; 0xbe0b
 958:	04000008 	streq	r0, [r0], #-8
 95c:	0e030016 	mcreq	0, 0, r0, cr3, cr6, {0}
 960:	0b3b0b3a 	bleq	ec3650 <__standby_start+0xec3650>
 964:	00001349 	andeq	r1, r0, r9, asr #6
 968:	49003505 	stmdbmi	r0, {r0, r2, r8, sl, ip, sp}
 96c:	06000013 			; <UNDEFINED> instruction: 0x06000013
 970:	0e030113 	mcreq	1, 0, r0, cr3, cr3, {0}
 974:	0b3a0b0b 	bleq	e835a8 <__standby_start+0xe835a8>
 978:	13010b3b 	movwne	r0, #6971	; 0x1b3b
 97c:	0d070000 	stceq	0, cr0, [r7, #-0]
 980:	3a0e0300 	bcc	381588 <__standby_start+0x381588>
 984:	490b3b0b 	stmdbmi	fp, {r0, r1, r3, r8, r9, fp, ip, sp}
 988:	000a3813 	andeq	r3, sl, r3, lsl r8
 98c:	002e0800 	eoreq	r0, lr, r0, lsl #16
 990:	0e030c3f 	mcreq	12, 0, r0, cr3, cr15, {1}
 994:	0b3b0b3a 	bleq	ec3684 <__standby_start+0xec3684>
 998:	13490c27 	movtne	r0, #39975	; 0x9c27
 99c:	01120111 	tsteq	r2, r1, lsl r1
 9a0:	00000640 	andeq	r0, r0, r0, asr #12
 9a4:	3f002e09 	svccc	0x00002e09
 9a8:	3a0e030c 	bcc	3815e0 <__standby_start+0x3815e0>
 9ac:	270b3b0b 	strcs	r3, [fp, -fp, lsl #22]
 9b0:	1113490c 	tstne	r3, ip, lsl #18
 9b4:	40011201 	andmi	r1, r1, r1, lsl #4
 9b8:	0a00000a 	beq	9e8 <__standby_start+0x9e8>
 9bc:	0e030034 	mcreq	0, 0, r0, cr3, cr4, {1}
 9c0:	0b3b0b3a 	bleq	ec36b0 <__standby_start+0xec36b0>
 9c4:	0a021349 	beq	856f0 <__standby_start+0x856f0>
 9c8:	0f0b0000 	svceq	0x000b0000
 9cc:	490b0b00 	stmdbmi	fp, {r8, r9, fp}
 9d0:	0c000013 	stceq	0, cr0, [r0], {19}
 9d4:	0e030034 	mcreq	0, 0, r0, cr3, cr4, {1}
 9d8:	0b3b0b3a 	bleq	ec36c8 <__standby_start+0xec36c8>
 9dc:	00001349 	andeq	r1, r0, r9, asr #6
 9e0:	01110100 	tsteq	r1, r0, lsl #2
 9e4:	0b130e25 	bleq	4c4280 <__standby_start+0x4c4280>
 9e8:	0e1b0e03 	cdpeq	14, 1, cr0, cr11, cr3, {0}
 9ec:	01120111 	tsteq	r2, r1, lsl r1
 9f0:	00000610 	andeq	r0, r0, r0, lsl r6
 9f4:	0b002402 	bleq	9a04 <__standby_start+0x9a04>
 9f8:	030b3e0b 	movweq	r3, #48651	; 0xbe0b
 9fc:	0300000e 	movweq	r0, #14
 a00:	0b0b0024 	bleq	2c0a98 <__standby_start+0x2c0a98>
 a04:	08030b3e 	stmdaeq	r3, {r1, r2, r3, r4, r5, r8, r9, fp}
 a08:	16040000 	strne	r0, [r4], -r0
 a0c:	3a0e0300 	bcc	381614 <__standby_start+0x381614>
 a10:	490b3b0b 	stmdbmi	fp, {r0, r1, r3, r8, r9, fp, ip, sp}
 a14:	05000013 	streq	r0, [r0, #-19]	; 0xffffffed
 a18:	0e030104 	adfeqs	f0, f3, f4
 a1c:	0b3a0b0b 	bleq	e83650 <__standby_start+0xe83650>
 a20:	13010b3b 	movwne	r0, #6971	; 0x1b3b
 a24:	28060000 	stmdacs	r6, {}	; <UNPREDICTABLE>
 a28:	1c0e0300 	stcne	3, cr0, [lr], {-0}
 a2c:	0700000d 	streq	r0, [r0, -sp]
 a30:	0e030113 	mcreq	1, 0, r0, cr3, cr3, {0}
 a34:	0b3a0b0b 	bleq	e83668 <__standby_start+0xe83668>
 a38:	13010b3b 	movwne	r0, #6971	; 0x1b3b
 a3c:	0d080000 	stceq	0, cr0, [r8, #-0]
 a40:	3a080300 	bcc	201648 <__standby_start+0x201648>
 a44:	490b3b0b 	stmdbmi	fp, {r0, r1, r3, r8, r9, fp, ip, sp}
 a48:	000a3813 	andeq	r3, sl, r3, lsl r8
 a4c:	000d0900 	andeq	r0, sp, r0, lsl #18
 a50:	0b3a0e03 	bleq	e84264 <__standby_start+0xe84264>
 a54:	13490b3b 	movtne	r0, #39739	; 0x9b3b
 a58:	00000a38 	andeq	r0, r0, r8, lsr sl
 a5c:	03012e0a 	movweq	r2, #7690	; 0x1e0a
 a60:	3b0b3a0e 	blcc	2cf2a0 <__standby_start+0x2cf2a0>
 a64:	490c270b 	stmdbmi	ip, {r0, r1, r3, r8, r9, sl, sp}
 a68:	12011113 	andne	r1, r1, #-1073741820	; 0xc0000004
 a6c:	010a4001 	tsteq	sl, r1
 a70:	0b000013 	bleq	ac4 <__standby_start+0xac4>
 a74:	0e030005 	cdpeq	0, 0, cr0, cr3, cr5, {0}
 a78:	0b3b0b3a 	bleq	ec3768 <__standby_start+0xec3768>
 a7c:	06021349 	streq	r1, [r2], -r9, asr #6
 a80:	340c0000 	strcc	r0, [ip], #-0
 a84:	3a0e0300 	bcc	38168c <__standby_start+0x38168c>
 a88:	490b3b0b 	stmdbmi	fp, {r0, r1, r3, r8, r9, fp, ip, sp}
 a8c:	00060213 	andeq	r0, r6, r3, lsl r2
 a90:	00050d00 	andeq	r0, r5, r0, lsl #26
 a94:	0b3a0803 	bleq	e82aa8 <__standby_start+0xe82aa8>
 a98:	13490b3b 	movtne	r0, #39739	; 0x9b3b
 a9c:	00000602 	andeq	r0, r0, r2, lsl #12
 aa0:	0300340e 	movweq	r3, #1038	; 0x40e
 aa4:	3b0b3a08 	blcc	2cf2cc <__standby_start+0x2cf2cc>
 aa8:	0213490b 	andseq	r4, r3, #180224	; 0x2c000
 aac:	0f000006 	svceq	0x00000006
 ab0:	0b0b000f 	bleq	2c0af4 <__standby_start+0x2c0af4>
 ab4:	00001349 	andeq	r1, r0, r9, asr #6
 ab8:	3f012e10 	svccc	0x00012e10
 abc:	3a0e030c 	bcc	3816f4 <__standby_start+0x3816f4>
 ac0:	270b3b0b 	strcs	r3, [fp, -fp, lsl #22]
 ac4:	1113490c 	tstne	r3, ip, lsl #18
 ac8:	40011201 	andmi	r1, r1, r1, lsl #4
 acc:	00130106 	andseq	r0, r3, r6, lsl #2
 ad0:	00341100 	eorseq	r1, r4, r0, lsl #2
 ad4:	0b3a0803 	bleq	e82ae8 <__standby_start+0xe82ae8>
 ad8:	13490b3b 	movtne	r0, #39739	; 0x9b3b
 adc:	34120000 	ldrcc	r0, [r2], #-0
 ae0:	3a0e0300 	bcc	3816e8 <__standby_start+0x3816e8>
 ae4:	490b3b0b 	stmdbmi	fp, {r0, r1, r3, r8, r9, fp, ip, sp}
 ae8:	13000013 	movwne	r0, #19
 aec:	0e03012e 	adfeqsp	f0, f3, #0.5
 af0:	0b3b0b3a 	bleq	ec37e0 <__standby_start+0xec37e0>
 af4:	13490c27 	movtne	r0, #39975	; 0x9c27
 af8:	13010b20 	movwne	r0, #6944	; 0x1b20
 afc:	05140000 	ldreq	r0, [r4, #-0]
 b00:	3a0e0300 	bcc	381708 <__standby_start+0x381708>
 b04:	490b3b0b 	stmdbmi	fp, {r0, r1, r3, r8, r9, fp, ip, sp}
 b08:	15000013 	strne	r0, [r0, #-19]	; 0xffffffed
 b0c:	0c3f012e 	ldfeqs	f0, [pc], #-184	; a5c <__standby_start+0xa5c>
 b10:	0b3a0e03 	bleq	e84324 <__standby_start+0xe84324>
 b14:	0c270b3b 	stceq	11, cr0, [r7], #-236	; 0xffffff14
 b18:	01120111 	tsteq	r2, r1, lsl r1
 b1c:	13010640 	movwne	r0, #5696	; 0x1640
 b20:	1d160000 	ldcne	0, cr0, [r6, #-0]
 b24:	11133101 	tstne	r3, r1, lsl #2
 b28:	58011201 	stmdapl	r1, {r0, r9, ip}
 b2c:	000b590b 	andeq	r5, fp, fp, lsl #18
 b30:	00051700 	andeq	r1, r5, r0, lsl #14
 b34:	06021331 			; <UNDEFINED> instruction: 0x06021331
 b38:	01180000 	tsteq	r8, r0
 b3c:	01134901 	tsteq	r3, r1, lsl #18
 b40:	19000013 	stmdbne	r0, {r0, r1, r4}
 b44:	13490021 	movtne	r0, #36897	; 0x9021
 b48:	00000b2f 	andeq	r0, r0, pc, lsr #22
 b4c:	0300341a 	movweq	r3, #1050	; 0x41a
 b50:	3b0b3a0e 	blcc	2cf390 <__standby_start+0x2cf390>
 b54:	0213490b 	andseq	r4, r3, #180224	; 0x2c000
 b58:	1b00000a 	blne	b88 <__standby_start+0xb88>
 b5c:	13490026 	movtne	r0, #36902	; 0x9026
 b60:	01000000 	tsteq	r0, r0
 b64:	0e250111 	mcreq	1, 1, r0, cr5, cr1, {0}
 b68:	0e030b13 	vmoveq.32	d3[0], r0
 b6c:	01110e1b 	tsteq	r1, fp, lsl lr
 b70:	06100112 			; <UNDEFINED> instruction: 0x06100112
 b74:	24020000 	strcs	r0, [r2], #-0
 b78:	3e0b0b00 	vmlacc.f64	d0, d11, d0
 b7c:	000e030b 	andeq	r0, lr, fp, lsl #6
 b80:	00240300 	eoreq	r0, r4, r0, lsl #6
 b84:	0b3e0b0b 	bleq	f837b8 <__standby_start+0xf837b8>
 b88:	00000803 	andeq	r0, r0, r3, lsl #16
 b8c:	03001604 	movweq	r1, #1540	; 0x604
 b90:	3b0b3a0e 	blcc	2cf3d0 <__standby_start+0x2cf3d0>
 b94:	0013490b 	andseq	r4, r3, fp, lsl #18
 b98:	00350500 	eorseq	r0, r5, r0, lsl #10
 b9c:	00001349 	andeq	r1, r0, r9, asr #6
 ba0:	49010106 	stmdbmi	r1, {r1, r2, r8}
 ba4:	00130113 	andseq	r0, r3, r3, lsl r1
 ba8:	00210700 	eoreq	r0, r1, r0, lsl #14
 bac:	0b2f1349 	bleq	bc58d8 <__standby_start+0xbc58d8>
 bb0:	13080000 	movwne	r0, #32768	; 0x8000
 bb4:	0b0e0301 	bleq	3817c0 <__standby_start+0x3817c0>
 bb8:	3b0b3a05 	blcc	2cf3d4 <__standby_start+0x2cf3d4>
 bbc:	0013010b 	andseq	r0, r3, fp, lsl #2
 bc0:	000d0900 	andeq	r0, sp, r0, lsl #18
 bc4:	0b3a0e03 	bleq	e843d8 <__standby_start+0xe843d8>
 bc8:	13490b3b 	movtne	r0, #39739	; 0x9b3b
 bcc:	00000a38 	andeq	r0, r0, r8, lsr sl
 bd0:	0301040a 	movweq	r0, #5130	; 0x140a
 bd4:	3a0b0b0e 	bcc	2c3814 <__standby_start+0x2c3814>
 bd8:	010b3b0b 	tsteq	fp, fp, lsl #22
 bdc:	0b000013 	bleq	c30 <__standby_start+0xc30>
 be0:	0e030028 	cdpeq	0, 0, cr0, cr3, cr8, {1}
 be4:	00000d1c 	andeq	r0, r0, ip, lsl sp
 be8:	3f012e0c 	svccc	0x00012e0c
 bec:	3a0e030c 	bcc	381824 <__standby_start+0x381824>
 bf0:	270b3b0b 	strcs	r3, [fp, -fp, lsl #22]
 bf4:	1113490c 	tstne	r3, ip, lsl #18
 bf8:	40011201 	andmi	r1, r1, r1, lsl #4
 bfc:	00130106 	andseq	r0, r3, r6, lsl #2
 c00:	00340d00 	eorseq	r0, r4, r0, lsl #26
 c04:	0b3a0803 	bleq	e82c18 <__standby_start+0xe82c18>
 c08:	13490b3b 	movtne	r0, #39739	; 0x9b3b
 c0c:	2e0e0000 	cdpcs	0, 0, cr0, cr14, cr0, {0}
 c10:	030c3f01 	movweq	r3, #52993	; 0xcf01
 c14:	3b0b3a0e 	blcc	2cf454 <__standby_start+0x2cf454>
 c18:	490c270b 	stmdbmi	ip, {r0, r1, r3, r8, r9, sl, sp}
 c1c:	12011113 	andne	r1, r1, #-1073741820	; 0xc0000004
 c20:	010a4001 	tsteq	sl, r1
 c24:	0f000013 	svceq	0x00000013
 c28:	0e030005 	cdpeq	0, 0, cr0, cr3, cr5, {0}
 c2c:	0b3b0b3a 	bleq	ec391c <__standby_start+0xec391c>
 c30:	06021349 	streq	r1, [r2], -r9, asr #6
 c34:	2e100000 	cdpcs	0, 1, cr0, cr0, cr0, {0}
 c38:	030c3f00 	movweq	r3, #52992	; 0xcf00
 c3c:	3b0b3a0e 	blcc	2cf47c <__standby_start+0x2cf47c>
 c40:	110c270b 	tstne	ip, fp, lsl #14
 c44:	40011201 	andmi	r1, r1, r1, lsl #4
 c48:	1100000a 	tstne	r0, sl
 c4c:	0e030034 	mcreq	0, 0, r0, cr3, cr4, {1}
 c50:	0b3b0b3a 	bleq	ec3940 <__standby_start+0xec3940>
 c54:	00001349 	andeq	r1, r0, r9, asr #6
 c58:	3f012e12 	svccc	0x00012e12
 c5c:	3a0e030c 	bcc	381894 <__standby_start+0x381894>
 c60:	270b3b0b 	strcs	r3, [fp, -fp, lsl #22]
 c64:	1201110c 	andne	r1, r1, #12, 2
 c68:	01064001 	tsteq	r6, r1
 c6c:	13000013 	movwne	r0, #19
 c70:	08030005 	stmdaeq	r3, {r0, r2}
 c74:	0b3b0b3a 	bleq	ec3964 <__standby_start+0xec3964>
 c78:	06021349 	streq	r1, [r2], -r9, asr #6
 c7c:	34140000 	ldrcc	r0, [r4], #-0
 c80:	3a0e0300 	bcc	381888 <__standby_start+0x381888>
 c84:	490b3b0b 	stmdbmi	fp, {r0, r1, r3, r8, r9, fp, ip, sp}
 c88:	000a0213 	andeq	r0, sl, r3, lsl r2
 c8c:	000f1500 	andeq	r1, pc, r0, lsl #10
 c90:	13490b0b 	movtne	r0, #39691	; 0x9b0b
 c94:	01000000 	tsteq	r0, r0
 c98:	0e250111 	mcreq	1, 1, r0, cr5, cr1, {0}
 c9c:	0e030b13 	vmoveq.32	d3[0], r0
 ca0:	01110e1b 	tsteq	r1, fp, lsl lr
 ca4:	06100112 			; <UNDEFINED> instruction: 0x06100112
 ca8:	24020000 	strcs	r0, [r2], #-0
 cac:	3e0b0b00 	vmlacc.f64	d0, d11, d0
 cb0:	000e030b 	andeq	r0, lr, fp, lsl #6
 cb4:	00240300 	eoreq	r0, r4, r0, lsl #6
 cb8:	0b3e0b0b 	bleq	f838ec <__standby_start+0xf838ec>
 cbc:	00000803 	andeq	r0, r0, r3, lsl #16
 cc0:	03001604 	movweq	r1, #1540	; 0x604
 cc4:	3b0b3a0e 	blcc	2cf504 <__standby_start+0x2cf504>
 cc8:	0013490b 	andseq	r4, r3, fp, lsl #18
 ccc:	01130500 	tsteq	r3, r0, lsl #10
 cd0:	0b0b0e03 	bleq	2c44e4 <__standby_start+0x2c44e4>
 cd4:	0b3b0b3a 	bleq	ec39c4 <__standby_start+0xec39c4>
 cd8:	00001301 	andeq	r1, r0, r1, lsl #6
 cdc:	03000d06 	movweq	r0, #3334	; 0xd06
 ce0:	3b0b3a0e 	blcc	2cf520 <__standby_start+0x2cf520>
 ce4:	3813490b 	ldmdacc	r3, {r0, r1, r3, r8, fp, lr}
 ce8:	0700000a 	streq	r0, [r0, -sl]
 cec:	13490035 	movtne	r0, #36917	; 0x9035
 cf0:	04080000 	streq	r0, [r8], #-0
 cf4:	0b0e0301 	bleq	381900 <__standby_start+0x381900>
 cf8:	3b0b3a0b 	blcc	2cf52c <__standby_start+0x2cf52c>
 cfc:	0013010b 	andseq	r0, r3, fp, lsl #2
 d00:	00280900 	eoreq	r0, r8, r0, lsl #18
 d04:	0d1c0e03 	ldceq	14, cr0, [ip, #-12]
 d08:	2e0a0000 	cdpcs	0, 0, cr0, cr10, cr0, {0}
 d0c:	030c3f01 	movweq	r3, #52993	; 0xcf01
 d10:	3b0b3a0e 	blcc	2cf550 <__standby_start+0x2cf550>
 d14:	490c270b 	stmdbmi	ip, {r0, r1, r3, r8, r9, sl, sp}
 d18:	12011113 	andne	r1, r1, #-1073741820	; 0xc0000004
 d1c:	010a4001 	tsteq	sl, r1
 d20:	0b000013 	bleq	d74 <__standby_start+0xd74>
 d24:	0e030005 	cdpeq	0, 0, cr0, cr3, cr5, {0}
 d28:	0b3b0b3a 	bleq	ec3a18 <__standby_start+0xec3a18>
 d2c:	06021349 	streq	r1, [r2], -r9, asr #6
 d30:	2e0c0000 	cdpcs	0, 0, cr0, cr12, cr0, {0}
 d34:	030c3f00 	movweq	r3, #52992	; 0xcf00
 d38:	3b0b3a0e 	blcc	2cf578 <__standby_start+0x2cf578>
 d3c:	490c270b 	stmdbmi	ip, {r0, r1, r3, r8, r9, sl, sp}
 d40:	12011113 	andne	r1, r1, #-1073741820	; 0xc0000004
 d44:	00064001 	andeq	r4, r6, r1
 d48:	012e0d00 	teqeq	lr, r0, lsl #26
 d4c:	0b3a0e03 	bleq	e84560 <__standby_start+0xe84560>
 d50:	0c270b3b 	stceq	11, cr0, [r7], #-236	; 0xffffff14
 d54:	0b201349 	bleq	805a80 <__standby_start+0x805a80>
 d58:	00001301 	andeq	r1, r0, r1, lsl #6
 d5c:	0300340e 	movweq	r3, #1038	; 0x40e
 d60:	3b0b3a0e 	blcc	2cf5a0 <__standby_start+0x2cf5a0>
 d64:	0013490b 	andseq	r4, r3, fp, lsl #18
 d68:	012e0f00 	teqeq	lr, r0, lsl #30
 d6c:	0e030c3f 	mcreq	12, 0, r0, cr3, cr15, {1}
 d70:	0b3b0b3a 	bleq	ec3a60 <__standby_start+0xec3a60>
 d74:	13490c27 	movtne	r0, #39975	; 0x9c27
 d78:	01120111 	tsteq	r2, r1, lsl r1
 d7c:	13010640 	movwne	r0, #5696	; 0x1640
 d80:	05100000 	ldreq	r0, [r0, #-0]
 d84:	3a080300 	bcc	20198c <__standby_start+0x20198c>
 d88:	490b3b0b 	stmdbmi	fp, {r0, r1, r3, r8, r9, fp, ip, sp}
 d8c:	00060213 	andeq	r0, r6, r3, lsl r2
 d90:	00341100 	eorseq	r1, r4, r0, lsl #2
 d94:	0b3a0e03 	bleq	e845a8 <__standby_start+0xe845a8>
 d98:	13490b3b 	movtne	r0, #39739	; 0x9b3b
 d9c:	00000602 	andeq	r0, r0, r2, lsl #12
 da0:	03003412 	movweq	r3, #1042	; 0x412
 da4:	3b0b3a08 	blcc	2cf5cc <__standby_start+0x2cf5cc>
 da8:	0213490b 	andseq	r4, r3, #180224	; 0x2c000
 dac:	13000006 	movwne	r0, #6
 db0:	0e03000a 	cdpeq	0, 0, cr0, cr3, cr10, {0}
 db4:	053b0b3a 	ldreq	r0, [fp, #-2874]!	; 0xfffff4c6
 db8:	00000111 	andeq	r0, r0, r1, lsl r1
 dbc:	31011d14 	tstcc	r1, r4, lsl sp
 dc0:	12011113 	andne	r1, r1, #-1073741820	; 0xc0000004
 dc4:	590b5801 	stmdbpl	fp, {r0, fp, ip, lr}
 dc8:	15000005 	strne	r0, [r0, #-5]
 dcc:	0111010b 	tsteq	r1, fp, lsl #2
 dd0:	00000112 	andeq	r0, r0, r2, lsl r1
 dd4:	31003416 	tstcc	r0, r6, lsl r4
 dd8:	17000013 	smladne	r0, r3, r0, r0
 ddc:	13310034 	teqne	r1, #52	; 0x34
 de0:	00000602 	andeq	r0, r0, r2, lsl #12
 de4:	0b000f18 	bleq	4a4c <__standby_start+0x4a4c>
 de8:	0013490b 	andseq	r4, r3, fp, lsl #18
 dec:	01011900 	tsteq	r1, r0, lsl #18
 df0:	13011349 	movwne	r1, #4937	; 0x1349
 df4:	211a0000 	tstcs	sl, r0
 df8:	2f134900 	svccs	0x00134900
 dfc:	1b00000b 	blne	e30 <__standby_start+0xe30>
 e00:	0e030034 	mcreq	0, 0, r0, cr3, cr4, {1}
 e04:	0b3b0b3a 	bleq	ec3af4 <__standby_start+0xec3af4>
 e08:	0a021349 	beq	85b34 <__standby_start+0x85b34>
 e0c:	261c0000 	ldrcs	r0, [ip], -r0
 e10:	00134900 	andseq	r4, r3, r0, lsl #18
 e14:	11010000 	tstne	r1, r0
 e18:	130e2501 	movwne	r2, #58625	; 0xe501
 e1c:	1b0e030b 	blne	381a50 <__standby_start+0x381a50>
 e20:	1201110e 	andne	r1, r1, #-2147483645	; 0x80000003
 e24:	00061001 	andeq	r1, r6, r1
 e28:	00240200 	eoreq	r0, r4, r0, lsl #4
 e2c:	0b3e0b0b 	bleq	f83a60 <__standby_start+0xf83a60>
 e30:	00000e03 	andeq	r0, r0, r3, lsl #28
 e34:	0b002403 	bleq	9e48 <__standby_start+0x9e48>
 e38:	030b3e0b 	movweq	r3, #48651	; 0xbe0b
 e3c:	04000008 	streq	r0, [r0], #-8
 e40:	0e030016 	mcreq	0, 0, r0, cr3, cr6, {0}
 e44:	0b3b0b3a 	bleq	ec3b34 <__standby_start+0xec3b34>
 e48:	00001349 	andeq	r1, r0, r9, asr #6
 e4c:	3f002e05 	svccc	0x00002e05
 e50:	3a0e030c 	bcc	381a88 <__standby_start+0x381a88>
 e54:	270b3b0b 	strcs	r3, [fp, -fp, lsl #22]
 e58:	1113490c 	tstne	r3, ip, lsl #18
 e5c:	40011201 	andmi	r1, r1, r1, lsl #4
 e60:	0600000a 	streq	r0, [r0], -sl
 e64:	0c3f012e 	ldfeqs	f0, [pc], #-184	; db4 <__standby_start+0xdb4>
 e68:	0b3a0e03 	bleq	e8467c <__standby_start+0xe8467c>
 e6c:	0c270b3b 	stceq	11, cr0, [r7], #-236	; 0xffffff14
 e70:	01111349 	tsteq	r1, r9, asr #6
 e74:	0a400112 	beq	10012c4 <__standby_start+0x10012c4>
 e78:	00001301 	andeq	r1, r0, r1, lsl #6
 e7c:	03000507 	movweq	r0, #1287	; 0x507
 e80:	3b0b3a0e 	blcc	2cf6c0 <__standby_start+0x2cf6c0>
 e84:	0213490b 	andseq	r4, r3, #180224	; 0x2c000
 e88:	00000006 	andeq	r0, r0, r6
 e8c:	10001101 	andne	r1, r0, r1, lsl #2
 e90:	12011106 	andne	r1, r1, #-2147483647	; 0x80000001
 e94:	1b080301 	blne	201aa0 <__standby_start+0x201aa0>
 e98:	13082508 	movwne	r2, #34056	; 0x8508
 e9c:	00000005 	andeq	r0, r0, r5

Disassembly of section .debug_info:

00000000 <.debug_info>:
       0:	00000383 	andeq	r0, r0, r3, lsl #7
       4:	00000002 	andeq	r0, r0, r2
       8:	01040000 	tsteq	r4, r0
       c:	000002ed 	andeq	r0, r0, sp, ror #5
      10:	00026b01 	andeq	r6, r2, r1, lsl #22
      14:	00014100 	andeq	r4, r1, r0, lsl #2
      18:	00000000 	andeq	r0, r0, r0
      1c:	000350f0 	strdeq	r5, [r3], -r0
      20:	000000f0 	strdeq	r0, [r0], -r0	; <UNPREDICTABLE>
      24:	01870200 	orreq	r0, r7, r0, lsl #4
      28:	02080000 	andeq	r0, r8, #0
      2c:	00004e34 	andeq	r4, r0, r4, lsr lr
      30:	011a0300 	tsteq	sl, r0, lsl #6
      34:	35020000 	strcc	r0, [r2, #-0]
      38:	0000004e 	andeq	r0, r0, lr, asr #32
      3c:	03002302 	movweq	r2, #770	; 0x302
      40:	0000023c 	andeq	r0, r0, ip, lsr r2
      44:	00553602 	subseq	r3, r5, r2, lsl #12
      48:	23020000 	movwcs	r0, #8192	; 0x2000
      4c:	04040004 	streq	r0, [r4], #-4
      50:	00022f07 	andeq	r2, r2, r7, lsl #30
      54:	08010400 	stmdaeq	r1, {sl}
      58:	000001d1 	ldrdeq	r0, [r0], -r1
      5c:	00030b02 	andeq	r0, r3, r2, lsl #22
      60:	3d020800 	stccc	8, cr0, [r2, #-0]
      64:	00000085 	andeq	r0, r0, r5, lsl #1
      68:	001ffc03 	andseq	pc, pc, r3, lsl #24
      6c:	4e3e0200 	cdpmi	2, 3, cr0, cr14, cr0, {0}
      70:	02000000 	andeq	r0, r0, #0
      74:	5f030023 	svcpl	0x00030023
      78:	02000000 	andeq	r0, r0, #0
      7c:	0000853f 	andeq	r8, r0, pc, lsr r5
      80:	04230200 	strteq	r0, [r3], #-512	; 0xfffffe00
      84:	05040500 	streq	r0, [r4, #-1280]	; 0xfffffb00
      88:	00746e69 	rsbseq	r6, r4, r9, ror #28
      8c:	00024f02 	andeq	r4, r2, r2, lsl #30
      90:	46021000 	strmi	r1, [r2], -r0
      94:	000000b5 	strheq	r0, [r0], -r5
      98:	00030e03 	andeq	r0, r3, r3, lsl #28
      9c:	5c470200 	sfmpl	f0, 2, [r7], {-0}
      a0:	02000000 	andeq	r0, r0, #0
      a4:	8a030023 	bhi	c0138 <__standby_start+0xc0138>
      a8:	02000001 	andeq	r0, r0, #1
      ac:	00002548 	andeq	r2, r0, r8, asr #10
      b0:	08230200 	stmdaeq	r3!, {r9}
      b4:	06010400 	streq	r0, [r1], -r0, lsl #8
      b8:	000001d3 	ldrdeq	r0, [r0], -r3
      bc:	df050204 	svcle	0x00050204
      c0:	04000001 	streq	r0, [r0], #-1
      c4:	02870702 	addeq	r0, r7, #524288	; 0x80000
      c8:	fc060000 	stc2	0, cr0, [r6], {-0}
      cc:	07000000 	streq	r0, [r0, -r0]
      d0:	00004e1a 	andeq	r4, r0, sl, lsl lr
      d4:	05080400 	streq	r0, [r8, #-1024]	; 0xfffffc00
      d8:	0000012b 	andeq	r0, r0, fp, lsr #2
      dc:	25070804 	strcs	r0, [r7, #-2052]	; 0xfffff7fc
      e0:	02000002 	andeq	r0, r0, #2
      e4:	000002b9 			; <UNDEFINED> instruction: 0x000002b9
      e8:	45190304 	ldrmi	r0, [r9, #-772]	; 0xfffffcfc
      ec:	07000001 	streq	r0, [r0, -r1]
      f0:	00000000 	andeq	r0, r0, r0
      f4:	00ca1a03 	sbceq	r1, sl, r3, lsl #20
      f8:	04040000 	streq	r0, [r4], #-0
      fc:	0023021c 	eoreq	r0, r3, ip, lsl r2
     100:	00009d07 	andeq	r9, r0, r7, lsl #26
     104:	ca1b0300 	bgt	6c0d0c <__standby_start+0x6c0d0c>
     108:	04000000 	streq	r0, [r0], #-0
     10c:	23021804 	movwcs	r1, #10244	; 0x2804
     110:	01390700 	teqeq	r9, r0, lsl #14
     114:	1c030000 	stcne	0, cr0, [r3], {-0}
     118:	000000ca 	andeq	r0, r0, sl, asr #1
     11c:	02140404 	andseq	r0, r4, #4, 8	; 0x4000000
     120:	23070023 	movwcs	r0, #28707	; 0x7023
     124:	03000001 	movweq	r0, #1
     128:	0000ca1d 	andeq	ip, r0, sp, lsl sl
     12c:	10040400 	andne	r0, r4, r0, lsl #8
     130:	07002302 	streq	r2, [r0, -r2, lsl #6]
     134:	00000356 	andeq	r0, r0, r6, asr r3
     138:	00ca1e03 	sbceq	r1, sl, r3, lsl #28
     13c:	10040000 	andne	r0, r4, r0
     140:	00230200 	eoreq	r0, r3, r0, lsl #4
     144:	025a0800 	subseq	r0, sl, #0, 16
     148:	04040000 	streq	r0, [r4], #-0
     14c:	00017c17 	andeq	r7, r1, r7, lsl ip
     150:	00cc0900 	sbceq	r0, ip, r0, lsl #18
     154:	09000000 	stmdbeq	r0, {}	; <UNPREDICTABLE>
     158:	000000dc 	ldrdeq	r0, [r0], -ip
     15c:	00ec0901 	rsceq	r0, ip, r1, lsl #18
     160:	09020000 	stmdbeq	r2, {}	; <UNPREDICTABLE>
     164:	000001e9 	andeq	r0, r0, r9, ror #3
     168:	01f80903 	mvnseq	r0, r3, lsl #18
     16c:	09040000 	stmdbeq	r4, {}	; <UNPREDICTABLE>
     170:	00000207 	andeq	r0, r0, r7, lsl #4
     174:	02160905 	andseq	r0, r6, #81920	; 0x14000
     178:	00060000 	andeq	r0, r6, r0
     17c:	0000b908 	andeq	fp, r0, r8, lsl #18
     180:	19050400 	stmdbne	r5, {sl}
     184:	000001df 	ldrdeq	r0, [r0], -pc	; <UNPREDICTABLE>
     188:	00027509 	andeq	r7, r2, r9, lsl #10
     18c:	27090000 	strcs	r0, [r9, -r0]
     190:	05000003 	streq	r0, [r0, #-3]
     194:	00033609 	andeq	r3, r3, r9, lsl #12
     198:	f9090600 			; <UNDEFINED> instruction: 0xf9090600
     19c:	15000002 	strne	r0, [r0, #-2]
     1a0:	0002c909 	andeq	ip, r2, r9, lsl #18
     1a4:	db091600 	blle	2459ac <__standby_start+0x2459ac>
     1a8:	17000002 	strne	r0, [r0, -r2]
     1ac:	00034509 	andeq	r4, r3, r9, lsl #10
     1b0:	a5091800 	strge	r1, [r9, #-2048]	; 0xfffff800
     1b4:	1d000000 	stcne	0, cr0, [r0, #-0]
     1b8:	0002a809 	andeq	sl, r2, r9, lsl #16
     1bc:	08091f00 	stmdaeq	r9, {r8, r9, sl, fp, ip}
     1c0:	26000000 	strcs	r0, [r0], -r0
     1c4:	00001809 	andeq	r1, r0, r9, lsl #16
     1c8:	68092700 	stmdavs	r9, {r8, r9, sl, sp}
     1cc:	28000000 	stmdacs	r0, {}	; <UNPREDICTABLE>
     1d0:	00003f09 	andeq	r3, r0, r9, lsl #30
     1d4:	0900c000 	stmdbeq	r0, {lr, pc}
     1d8:	0000004f 	andeq	r0, r0, pc, asr #32
     1dc:	0a0000c1 	beq	4e8 <__standby_start+0x4e8>
     1e0:	0000017f 	andeq	r0, r0, pc, ror r1
     1e4:	0101ae01 	tsteq	r1, r1, lsl #28
     1e8:	0098010b 	addseq	r0, r8, fp, lsl #2
     1ec:	38010000 	stmdacc	r1, {}	; <UNPREDICTABLE>
     1f0:	00008501 	andeq	r8, r0, r1, lsl #10
     1f4:	00000000 	andeq	r0, r0, r0
     1f8:	000350f0 	strdeq	r5, [r3], -r0
     1fc:	000000f0 	strdeq	r0, [r0], -r0	; <UNPREDICTABLE>
     200:	00027600 	andeq	r7, r2, r0, lsl #12
     204:	72610c00 	rsbvc	r0, r1, #0, 24
     208:	38010067 	stmdacc	r1, {r0, r1, r2, r5, r6}
     20c:	00000276 	andeq	r0, r0, r6, ror r2
     210:	00000020 	andeq	r0, r0, r0, lsr #32
     214:	0001920d 	andeq	r9, r1, sp, lsl #4
     218:	7c3a0100 	ldfvcs	f0, [sl], #-0
     21c:	3e000002 	cdpcc	0, 0, cr0, cr0, cr2, {0}
     220:	0e000000 	cdpeq	0, 0, cr0, cr0, cr0, {0}
     224:	00010201 	andeq	r0, r1, r1, lsl #4
     228:	857a0100 	ldrbhi	r0, [sl, #-256]!	; 0xffffff00
     22c:	01000000 	tsteq	r0, r0
     230:	00000236 	andeq	r0, r0, r6, lsr r2
     234:	010e000f 	tsteq	lr, pc
     238:	00000082 	andeq	r0, r0, r2, lsl #1
     23c:	00858001 	addeq	r8, r5, r1
     240:	49010000 	stmdbmi	r1, {}	; <UNPREDICTABLE>
     244:	0f000002 	svceq	0x00000002
     248:	010c1000 	tsteq	ip, r0
     24c:	0118f000 	tsteq	r8, r0
     250:	0266f000 	rsbeq	pc, r6, #0
     254:	01110000 	tsteq	r1, r0
     258:	000001b5 			; <UNDEFINED> instruction: 0x000001b5
     25c:	00857201 	addeq	r7, r5, r1, lsl #4
     260:	0f010000 	svceq	0x00010000
     264:	df120000 	svcle	0x00120000
     268:	28000001 	stmdacs	r0, {r0}
     26c:	b4f00001 	ldrbtlt	r0, [r0], #1
     270:	01f00002 	mvnseq	r0, r2
     274:	0413007c 	ldreq	r0, [r3], #-124	; 0xffffff84
     278:	0000008c 	andeq	r0, r0, ip, lsl #1
     27c:	02820413 	addeq	r0, r2, #318767104	; 0x13000000
     280:	01040000 	tsteq	r4, r0
     284:	0001da08 	andeq	sp, r1, r8, lsl #20
     288:	02521400 	subseq	r1, r2, #0, 8
     28c:	23060000 	movwcs	r0, #24576	; 0x6000
     290:	0000008c 	andeq	r0, r0, ip, lsl #1
     294:	c5140101 	ldrgt	r0, [r4, #-257]	; 0xfffffeff
     298:	01000001 	tsteq	r0, r1
     29c:	00027c19 	andeq	r7, r2, r9, lsl ip
     2a0:	14010100 	strne	r0, [r1], #-256	; 0xffffff00
     2a4:	00000078 	andeq	r0, r0, r8, ror r0
     2a8:	027c1a01 	rsbseq	r1, ip, #4096	; 0x1000
     2ac:	01010000 	tsteq	r1, r0
     2b0:	0001a514 	andeq	sl, r1, r4, lsl r5
     2b4:	7c1b0100 	ldfvcs	f0, [fp], {-0}
     2b8:	01000002 	tsteq	r0, r2
     2bc:	029a1401 	addseq	r1, sl, #16777216	; 0x1000000
     2c0:	1c010000 	stcne	0, cr0, [r1], {-0}
     2c4:	0000027c 	andeq	r0, r0, ip, ror r2
     2c8:	45150101 	ldrmi	r0, [r5, #-257]	; 0xfffffeff
     2cc:	01000002 	tsteq	r0, r2
     2d0:	0000ca1e 	andeq	ip, r0, lr, lsl sl
     2d4:	a0030500 	andge	r0, r3, r0, lsl #10
     2d8:	15f0001f 	ldrbne	r0, [r0, #31]!
     2dc:	0000031b 	andeq	r0, r0, fp, lsl r3
     2e0:	00ca2001 	sbceq	r2, sl, r1
     2e4:	03050000 	movweq	r0, #20480	; 0x5000
     2e8:	f0001fa4 			; <UNDEFINED> instruction: 0xf0001fa4
     2ec:	00032115 	andeq	r2, r3, r5, lsl r1
     2f0:	ca200100 	bgt	8006f8 <__standby_start+0x8006f8>
     2f4:	05000000 	streq	r0, [r0, #-0]
     2f8:	001fa803 	andseq	sl, pc, r3, lsl #16
     2fc:	019d15f0 			; <UNDEFINED> instruction: 0x019d15f0
     300:	21010000 	tstcs	r1, r0
     304:	000000e3 	andeq	r0, r0, r3, ror #1
     308:	1fac0305 	svcne	0x00ac0305
     30c:	9915f000 	ldmdbls	r5, {ip, sp, lr, pc}
     310:	01000001 	tsteq	r0, r1
     314:	0000e322 	andeq	lr, r0, r2, lsr #6
     318:	b0030500 	andlt	r0, r3, r0, lsl #10
     31c:	16f0001f 	usatne	r0, #16, pc	; <UNPREDICTABLE>
     320:	000000ca 	andeq	r0, r0, sl, asr #1
     324:	0000032f 	andeq	r0, r0, pc, lsr #6
     328:	00004e17 	andeq	r4, r0, r7, lsl lr
     32c:	15000f00 	strne	r0, [r0, #-3840]	; 0xfffff100
     330:	00000028 	andeq	r0, r0, r8, lsr #32
     334:	031f2901 	tsteq	pc, #16384	; 0x4000
     338:	03050000 	movweq	r0, #20480	; 0x5000
     33c:	f0001f60 			; <UNDEFINED> instruction: 0xf0001f60
     340:	00025218 	andeq	r5, r2, r8, lsl r2
     344:	8c250100 	stfhis	f0, [r5], #-0
     348:	01000000 	tsteq	r0, r0
     34c:	20340305 	eorscs	r0, r4, r5, lsl #6
     350:	c514f000 	ldrgt	pc, [r4, #-0]
     354:	01000001 	tsteq	r0, r1
     358:	00027c19 	andeq	r7, r2, r9, lsl ip
     35c:	14010100 	strne	r0, [r1], #-256	; 0xffffff00
     360:	00000078 	andeq	r0, r0, r8, ror r0
     364:	027c1a01 	rsbseq	r1, ip, #4096	; 0x1000
     368:	01010000 	tsteq	r1, r0
     36c:	0001a514 	andeq	sl, r1, r4, lsl r5
     370:	7c1b0100 	ldfvcs	f0, [fp], {-0}
     374:	01000002 	tsteq	r0, r2
     378:	029a1401 	addseq	r1, sl, #16777216	; 0x1000000
     37c:	1c010000 	stcne	0, cr0, [r1], {-0}
     380:	0000027c 	andeq	r0, r0, ip, ror r2
     384:	17000101 	strne	r0, [r0, -r1, lsl #2]
     388:	02000001 	andeq	r0, r0, #1
     38c:	00015700 	andeq	r5, r1, r0, lsl #14
     390:	ed010400 	cfstrs	mvf0, [r1, #-0]
     394:	01000002 	tsteq	r0, r2
     398:	000003a1 	andeq	r0, r0, r1, lsr #7
     39c:	00000141 	andeq	r0, r0, r1, asr #2
     3a0:	f0000350 			; <UNDEFINED> instruction: 0xf0000350
     3a4:	f000038c 			; <UNDEFINED> instruction: 0xf000038c
     3a8:	00000159 	andeq	r0, r0, r9, asr r1
     3ac:	2f070402 	svccs	0x00070402
     3b0:	02000002 	andeq	r0, r0, #2
     3b4:	01d10801 	bicseq	r0, r1, r1, lsl #16
     3b8:	04030000 	streq	r0, [r3], #-0
     3bc:	746e6905 	strbtvc	r6, [lr], #-2309	; 0xfffff6fb
     3c0:	06010200 	streq	r0, [r1], -r0, lsl #4
     3c4:	000001d3 	ldrdeq	r0, [r0], -r3
     3c8:	df050202 	svcle	0x00050202
     3cc:	02000001 	andeq	r0, r0, #1
     3d0:	02870702 	addeq	r0, r7, #524288	; 0x80000
     3d4:	fc040000 	stc2	0, cr0, [r4], {-0}
     3d8:	03000000 	movweq	r0, #0
     3dc:	0000251a 	andeq	r2, r0, sl, lsl r5
     3e0:	05080200 	streq	r0, [r8, #-512]	; 0xfffffe00
     3e4:	0000012b 	andeq	r0, r0, fp, lsr #2
     3e8:	25070802 	strcs	r0, [r7, #-2050]	; 0xfffff7fe
     3ec:	05000002 	streq	r0, [r0, #-2]
     3f0:	00038a01 	andeq	r8, r3, r1, lsl #20
     3f4:	01230100 	teqeq	r3, r0, lsl #2
     3f8:	f0000350 			; <UNDEFINED> instruction: 0xf0000350
     3fc:	f0000378 			; <UNDEFINED> instruction: 0xf0000378
     400:	ca007d02 	bgt	1f810 <__standby_start+0x1f810>
     404:	06000000 	streq	r0, [r0], -r0
     408:	0000035f 	andeq	r0, r0, pc, asr r3
     40c:	00ca2301 	sbceq	r2, sl, r1, lsl #6
     410:	005c0000 	subseq	r0, ip, r0
     414:	73070000 	movwvc	r0, #28672	; 0x7000
     418:	01006372 	tsteq	r0, r2, ror r3
     41c:	0000ca23 	andeq	ip, r0, r3, lsr #20
     420:	00006f00 	andeq	r6, r0, r0, lsl #30
     424:	006e0700 	rsbeq	r0, lr, r0, lsl #14
     428:	00332301 	eorseq	r2, r3, r1, lsl #6
     42c:	00820000 	addeq	r0, r2, r0
     430:	99080000 	stmdbls	r8, {}	; <UNPREDICTABLE>
     434:	01000003 	tsteq	r0, r3
     438:	0000cc25 	andeq	ip, r0, r5, lsr #24
     43c:	0000ad00 	andeq	sl, r0, r0, lsl #26
     440:	03730800 	cmneq	r3, #0, 16
     444:	26010000 	strcs	r0, [r1], -r0
     448:	000000cc 	andeq	r0, r0, ip, asr #1
     44c:	000000c0 	andeq	r0, r0, r0, asr #1
     450:	0a040900 	beq	102858 <__standby_start+0x102858>
     454:	0000d204 	andeq	sp, r0, r4, lsl #4
     458:	08010200 	stmdaeq	r1, {r9}
     45c:	000001da 	ldrdeq	r0, [r0], -sl
     460:	03640105 	cmneq	r4, #1073741825	; 0x40000001
     464:	43010000 	movwmi	r0, #4096	; 0x1000
     468:	00037801 	andeq	r7, r3, r1, lsl #16
     46c:	00038cf0 	strdeq	r8, [r3], -r0
     470:	007d02f0 	ldrshteq	r0, [sp], #-32	; 0xffffffe0
     474:	00000100 	andeq	r0, r0, r0, lsl #2
     478:	00736d07 	rsbseq	r6, r3, r7, lsl #26
     47c:	00334301 	eorseq	r4, r3, r1, lsl #6
     480:	00de0000 	sbcseq	r0, lr, r0
     484:	0b000000 	bleq	48c <__standby_start+0x48c>
     488:	0000037b 	andeq	r0, r0, fp, ror r3
     48c:	004f3302 	subeq	r3, pc, r2, lsl #6
     490:	01010000 	tsteq	r1, r0
     494:	00037b0b 	andeq	r7, r3, fp, lsl #22
     498:	4f330200 	svcmi	0x00330200
     49c:	01000000 	tsteq	r0, r0
     4a0:	00730001 	rsbseq	r0, r3, r1
     4a4:	00020000 	andeq	r0, r2, r0
     4a8:	000001f3 	strdeq	r0, [r0], -r3
     4ac:	01cb0104 	biceq	r0, fp, r4, lsl #2
     4b0:	038c0000 	orreq	r0, ip, #0
     4b4:	04b0f000 	ldrteq	pc, [r0], #0	; <UNPREDICTABLE>
     4b8:	7473f000 	ldrbtvc	pc, [r3], #-0	; <UNPREDICTABLE>
     4bc:	2e6b6361 	cdpcs	3, 6, cr6, cr11, cr1, {3}
     4c0:	682f0053 	stmdavs	pc!, {r0, r1, r4, r6}	; <UNPREDICTABLE>
     4c4:	2f656d6f 	svccs	0x00656d6f
     4c8:	35363673 	ldrcc	r3, [r6, #-1651]!	; 0xfffff98d
     4cc:	2f303161 	svccs	0x00303161
     4d0:	30316b6b 	eorscc	r6, r1, fp, ror #22
     4d4:	63696c2f 	cmnvs	r9, #12032	; 0x2f00
     4d8:	2f656568 	svccs	0x00656568
     4dc:	756e696c 	strbvc	r6, [lr, #-2412]!	; 0xfffff694
     4e0:	2e322d78 	mrccs	13, 1, r2, cr2, cr8, {3}
     4e4:	36332e36 			; <UNDEFINED> instruction: 0x36332e36
     4e8:	6372612f 	cmnvs	r2, #-1073741813	; 0xc000000b
     4ec:	72612f68 	rsbvc	r2, r1, #104, 30	; 0x1a0
     4f0:	616d2f6d 	cmnvs	sp, sp, ror #30
     4f4:	732d6863 	teqvc	sp, #6488064	; 0x630000
     4f8:	69346e75 	ldmdbvs	r4!, {r0, r2, r4, r5, r6, r9, sl, fp, sp, lr}
     4fc:	2f6d702f 	svccs	0x006d702f
     500:	6e617473 	mcrvs	4, 3, r7, cr1, cr3, {3}
     504:	00796264 	rsbseq	r6, r9, r4, ror #4
     508:	20554e47 	subscs	r4, r5, r7, asr #28
     50c:	32205341 	eorcc	r5, r0, #67108865	; 0x4000001
     510:	2e30322e 	cdpcs	2, 3, cr3, cr0, cr14, {1}
     514:	01003135 	tsteq	r0, r5, lsr r1
     518:	00231c80 	eoreq	r1, r3, r0, lsl #25
     51c:	07000200 	streq	r0, [r0, -r0, lsl #4]
     520:	04000002 	streq	r0, [r0], #-2
     524:	0002ed01 	andeq	lr, r2, r1, lsl #26
     528:	0b6d0100 	bleq	1b40930 <__standby_start+0x1b40930>
     52c:	01410000 	mrseq	r0, SPSR
     530:	04b00000 	ldrteq	r0, [r0], #0
     534:	08f4f000 	ldmeq	r4!, {ip, sp, lr, pc}^
     538:	0239f000 	eorseq	pc, r9, #0
     53c:	04020000 	streq	r0, [r2], #-0
     540:	00022f07 	andeq	r2, r2, r7, lsl #30
     544:	08010200 	stmdaeq	r1, {r9}
     548:	000001d1 	ldrdeq	r0, [r0], -r1
     54c:	69050403 	stmdbvs	r5, {r0, r1, sl}
     550:	0200746e 	andeq	r7, r0, #1845493760	; 0x6e000000
     554:	01d30601 	bicseq	r0, r3, r1, lsl #12
     558:	02020000 	andeq	r0, r2, #0
     55c:	0001df05 	andeq	sp, r1, r5, lsl #30
     560:	07020200 	streq	r0, [r2, -r0, lsl #4]
     564:	00000287 	andeq	r0, r0, r7, lsl #5
     568:	000e1004 	andeq	r1, lr, r4
     56c:	33190200 	tstcc	r9, #0, 4
     570:	04000000 	streq	r0, [r0], #-0
     574:	000000fc 	strdeq	r0, [r0], -ip
     578:	00251a02 	eoreq	r1, r5, r2, lsl #20
     57c:	08020000 	stmdaeq	r2, {}	; <UNPREDICTABLE>
     580:	00012b05 	andeq	r2, r1, r5, lsl #22
     584:	07080200 	streq	r0, [r8, -r0, lsl #4]
     588:	00000225 	andeq	r0, r0, r5, lsr #4
     58c:	000cb605 	andeq	fp, ip, r5, lsl #12
     590:	16030400 	strne	r0, [r3], -r0, lsl #8
     594:	0000016e 	andeq	r0, r0, lr, ror #2
     598:	00073f06 	andeq	r3, r7, r6, lsl #30
     59c:	5a180300 	bpl	6011a4 <__standby_start+0x6011a4>
     5a0:	04000000 	streq	r0, [r0], #-0
     5a4:	23021e02 	movwcs	r1, #11778	; 0x2e02
     5a8:	0af30600 	beq	ffcc1db0 <__bss_end+0xfcbfd68>
     5ac:	19030000 	stmdbne	r3, {}	; <UNPREDICTABLE>
     5b0:	0000005a 	andeq	r0, r0, sl, asr r0
     5b4:	021d0104 	andseq	r0, sp, #4, 2
     5b8:	0d060023 	stceq	0, cr0, [r6, #-140]	; 0xffffff74
     5bc:	0300000f 	movweq	r0, #15
     5c0:	00005a1a 	andeq	r5, r0, sl, lsl sl
     5c4:	1c010400 	cfstrsne	mvf0, [r1], {-0}
     5c8:	06002302 	streq	r2, [r0], -r2, lsl #6
     5cc:	00000737 	andeq	r0, r0, r7, lsr r7
     5d0:	005a1b03 	subseq	r1, sl, r3, lsl #22
     5d4:	02040000 	andeq	r0, r4, #0
     5d8:	0023021a 	eoreq	r0, r3, sl, lsl r2
     5dc:	000fda06 	andeq	sp, pc, r6, lsl #20
     5e0:	5a1c0300 	bpl	7011e8 <__standby_start+0x7011e8>
     5e4:	04000000 	streq	r0, [r0], #-0
     5e8:	23021802 	movwcs	r1, #10242	; 0x2802
     5ec:	07470600 	strbeq	r0, [r7, -r0, lsl #12]
     5f0:	1d030000 	stcne	0, cr0, [r3, #-0]
     5f4:	0000005a 	andeq	r0, r0, sl, asr r0
     5f8:	02130504 	andseq	r0, r3, #4, 10	; 0x1000000
     5fc:	9d060023 	stcls	0, cr0, [r6, #-140]	; 0xffffff74
     600:	03000012 	movweq	r0, #18
     604:	00005a1e 	andeq	r5, r0, lr, lsl sl
     608:	10030400 	andne	r0, r3, r0, lsl #8
     60c:	06002302 	streq	r2, [r0], -r2, lsl #6
     610:	00000868 	andeq	r0, r0, r8, ror #16
     614:	005a1f03 	subseq	r1, sl, r3, lsl #30
     618:	02040000 	andeq	r0, r4, #0
     61c:	0023020e 	eoreq	r0, r3, lr, lsl #4
     620:	000fe406 	andeq	lr, pc, r6, lsl #8
     624:	5a200300 	bpl	80122c <__standby_start+0x80122c>
     628:	04000000 	streq	r0, [r0], #-0
     62c:	23020c02 	movwcs	r0, #11266	; 0x2c02
     630:	10d70600 	sbcsne	r0, r7, r0, lsl #12
     634:	21030000 	tstcs	r3, r0
     638:	0000005a 	andeq	r0, r0, sl, asr r0
     63c:	02070504 	andeq	r0, r7, #4, 10	; 0x1000000
     640:	cb060023 	blgt	1806d4 <__standby_start+0x1806d4>
     644:	0300000b 	movweq	r0, #11
     648:	00005a22 	andeq	r5, r0, r2, lsr #20
     64c:	06010400 	streq	r0, [r1], -r0, lsl #8
     650:	06002302 	streq	r2, [r0], -r2, lsl #6
     654:	00000f67 	andeq	r0, r0, r7, ror #30
     658:	005a2303 	subseq	r2, sl, r3, lsl #6
     65c:	04040000 	streq	r0, [r4], #-0
     660:	00230202 	eoreq	r0, r3, r2, lsl #4
     664:	000c1b06 	andeq	r1, ip, r6, lsl #22
     668:	5a240300 	bpl	901270 <__standby_start+0x901270>
     66c:	04000000 	streq	r0, [r0], #-0
     670:	23020101 	movwcs	r0, #8449	; 0x2101
     674:	10700600 	rsbsne	r0, r0, r0, lsl #12
     678:	25030000 	strcs	r0, [r3, #-0]
     67c:	0000005a 	andeq	r0, r0, sl, asr r0
     680:	02000104 	andeq	r0, r0, #4, 2
     684:	04000023 	streq	r0, [r0], #-35	; 0xffffffdd
     688:	00000a54 	andeq	r0, r0, r4, asr sl
     68c:	00732703 	rsbseq	r2, r3, r3, lsl #14
     690:	dc050000 	stcle	0, cr0, [r5], {-0}
     694:	04000011 	streq	r0, [r0], #-17	; 0xffffffef
     698:	01db2903 	bicseq	r2, fp, r3, lsl #18
     69c:	da060000 	ble	1806a4 <__standby_start+0x1806a4>
     6a0:	0300000f 	movweq	r0, #15
     6a4:	00005a2b 	andeq	r5, r0, fp, lsr #20
     6a8:	10100400 	andsne	r0, r0, r0, lsl #8
     6ac:	06002302 	streq	r2, [r0], -r2, lsl #6
     6b0:	000010c4 	andeq	r1, r0, r4, asr #1
     6b4:	005a2c03 	subseq	r2, sl, r3, lsl #24
     6b8:	07040000 	streq	r0, [r4, -r0]
     6bc:	00230209 	eoreq	r0, r3, r9, lsl #4
     6c0:	00133506 	andseq	r3, r3, r6, lsl #10
     6c4:	5a2d0300 	bpl	b412cc <__standby_start+0xb412cc>
     6c8:	04000000 	streq	r0, [r0], #-0
     6cc:	23020801 	movwcs	r0, #10241	; 0x2801
     6d0:	05c90600 	strbeq	r0, [r9, #1536]	; 0x600
     6d4:	2e030000 	cdpcs	0, 0, cr0, cr3, cr0, {0}
     6d8:	0000005a 	andeq	r0, r0, sl, asr r0
     6dc:	02070104 	andeq	r0, r7, #4, 2
     6e0:	12060023 	andne	r0, r6, #35	; 0x23
     6e4:	0300000a 	movweq	r0, #10
     6e8:	00005a2f 	andeq	r5, r0, pc, lsr #20
     6ec:	03040400 	movweq	r0, #17408	; 0x4400
     6f0:	00002302 	andeq	r2, r0, r2, lsl #6
     6f4:	00068004 	andeq	r8, r6, r4
     6f8:	79300300 	ldmdbvc	r0!, {r8, r9}
     6fc:	05000001 	streq	r0, [r0, #-1]
     700:	00000c6d 	andeq	r0, r0, sp, ror #24
     704:	8c330304 	ldchi	3, cr0, [r3], #-16
     708:	06000002 	streq	r0, [r0], -r2
     70c:	00000f67 	andeq	r0, r0, r7, ror #30
     710:	005a3503 	subseq	r3, sl, r3, lsl #10
     714:	05040000 	streq	r0, [r4, #-0]
     718:	0023021b 	eoreq	r0, r3, fp, lsl r2
     71c:	000fda06 	andeq	sp, pc, r6, lsl #20
     720:	5a360300 	bpl	d81328 <__standby_start+0xd81328>
     724:	04000000 	streq	r0, [r0], #-0
     728:	23021803 	movwcs	r1, #10243	; 0x2803
     72c:	07470600 	strbeq	r0, [r7, -r0, lsl #12]
     730:	37030000 	strcc	r0, [r3, -r0]
     734:	0000005a 	andeq	r0, r0, sl, asr r0
     738:	02110704 	andseq	r0, r1, #4, 14	; 0x100000
     73c:	e4060023 	str	r0, [r6], #-35	; 0xffffffdd
     740:	0300000f 	movweq	r0, #15
     744:	00005a38 	andeq	r5, r0, r8, lsr sl
     748:	10010400 	andne	r0, r1, r0, lsl #8
     74c:	06002302 	streq	r2, [r0], -r2, lsl #6
     750:	000010d7 	ldrdeq	r1, [r0], -r7
     754:	005a3903 	subseq	r3, sl, r3, lsl #18
     758:	05040000 	streq	r0, [r4, #-0]
     75c:	0023020b 	eoreq	r0, r3, fp, lsl #4
     760:	000fee06 	andeq	lr, pc, r6, lsl #28
     764:	5a3a0300 	bpl	e8136c <__standby_start+0xe8136c>
     768:	04000000 	streq	r0, [r0], #-0
     76c:	23020407 	movwcs	r0, #9223	; 0x2407
     770:	0d870600 	stceq	6, cr0, [r7]
     774:	3b030000 	blcc	c077c <__standby_start+0xc077c>
     778:	0000005a 	andeq	r0, r0, sl, asr r0
     77c:	02030104 	andeq	r0, r3, #4, 2
     780:	f8060023 			; <UNDEFINED> instruction: 0xf8060023
     784:	0300000f 	movweq	r0, #15
     788:	00005a3c 	andeq	r5, r0, ip, lsr sl
     78c:	01020400 	tsteq	r2, r0, lsl #8
     790:	06002302 	streq	r2, [r0], -r2, lsl #6
     794:	00001070 	andeq	r1, r0, r0, ror r0
     798:	005a3d03 	subseq	r3, sl, r3, lsl #26
     79c:	01040000 	tsteq	r4, r0
     7a0:	00230200 	eoreq	r0, r3, r0, lsl #4
     7a4:	082c0400 	stmdaeq	ip!, {sl}
     7a8:	3e030000 	cdpcc	0, 0, cr0, cr3, cr0, {0}
     7ac:	000001e6 	andeq	r0, r0, r6, ror #3
     7b0:	00044f05 	andeq	r4, r4, r5, lsl #30
     7b4:	41030400 	tstmi	r3, r0, lsl #8
     7b8:	0000030a 	andeq	r0, r0, sl, lsl #6
     7bc:	000b2706 	andeq	r2, fp, r6, lsl #14
     7c0:	5a430300 	bpl	10c13c8 <__standby_start+0x10c13c8>
     7c4:	04000000 	streq	r0, [r0], #-0
     7c8:	23020f11 	movwcs	r0, #12049	; 0x2f11
     7cc:	135c0600 	cmpne	ip, #0, 12
     7d0:	44030000 	strmi	r0, [r3], #-0
     7d4:	0000005a 	andeq	r0, r0, sl, asr r0
     7d8:	020d0204 	andeq	r0, sp, #4, 4	; 0x40000000
     7dc:	da060023 	ble	180870 <__standby_start+0x180870>
     7e0:	0300000f 	movweq	r0, #15
     7e4:	00005a45 	andeq	r5, r0, r5, asr #20
     7e8:	0c010400 	cfstrseq	mvf0, [r1], {-0}
     7ec:	06002302 	streq	r2, [r0], -r2, lsl #6
     7f0:	000003b0 			; <UNDEFINED> instruction: 0x000003b0
     7f4:	005a4603 	subseq	r4, sl, r3, lsl #12
     7f8:	09040000 	stmdbeq	r4, {}	; <UNPREDICTABLE>
     7fc:	00230203 	eoreq	r0, r3, r3, lsl #4
     800:	00085f06 	andeq	r5, r8, r6, lsl #30
     804:	5a470300 	bpl	11c140c <__standby_start+0x11c140c>
     808:	04000000 	streq	r0, [r0], #-0
     80c:	23020102 	movwcs	r0, #8450	; 0x2102
     810:	0af30600 	beq	ffcc2018 <__bss_end+0xfcbffd0>
     814:	48030000 	stmdami	r3, {}	; <UNPREDICTABLE>
     818:	0000005a 	andeq	r0, r0, sl, asr r0
     81c:	02000104 	andeq	r0, r0, #4, 2
     820:	04000023 	streq	r0, [r0], #-35	; 0xffffffdd
     824:	00000ef0 	strdeq	r0, [r0], -r0	; <UNPREDICTABLE>
     828:	02974a03 	addseq	r4, r7, #12288	; 0x3000
     82c:	28050000 	stmdacs	r5, {}	; <UNPREDICTABLE>
     830:	0400000f 	streq	r0, [r0], #-15
     834:	03dd4d03 	bicseq	r4, sp, #3, 26	; 0xc0
     838:	3f060000 	svccc	0x00060000
     83c:	03000007 	movweq	r0, #7
     840:	00005a4f 	andeq	r5, r0, pc, asr #20
     844:	19070400 	stmdbne	r7, {sl}
     848:	06002302 	streq	r2, [r0], -r2, lsl #6
     84c:	00000fda 	ldrdeq	r0, [r0], -sl
     850:	005a5003 	subseq	r5, sl, r3
     854:	01040000 	tsteq	r4, r0
     858:	00230218 	eoreq	r0, r3, r8, lsl r2
     85c:	0010d706 	andseq	sp, r0, r6, lsl #14
     860:	5a510300 	bpl	1441468 <__standby_start+0x1441468>
     864:	04000000 	streq	r0, [r0], #-0
     868:	23021305 	movwcs	r1, #8965	; 0x2305
     86c:	0fe40600 	svceq	0x00e40600
     870:	52030000 	andpl	r0, r3, #0
     874:	0000005a 	andeq	r0, r0, sl, asr r0
     878:	02120104 	andseq	r0, r2, #4, 2
     87c:	d6060023 	strle	r0, [r6], -r3, lsr #32
     880:	0300000b 	movweq	r0, #11
     884:	00005a53 	andeq	r5, r0, r3, asr sl
     888:	11010400 	tstne	r1, r0, lsl #8
     88c:	06002302 	streq	r2, [r0], -r2, lsl #6
     890:	00000dc1 	andeq	r0, r0, r1, asr #27
     894:	005a5403 	subseq	r5, sl, r3, lsl #8
     898:	01040000 	tsteq	r4, r0
     89c:	00230210 	eoreq	r0, r3, r0, lsl r2
     8a0:	000f6706 	andeq	r6, pc, r6, lsl #14
     8a4:	5a550300 	bpl	15414ac <__standby_start+0x15414ac>
     8a8:	04000000 	streq	r0, [r0], #-0
     8ac:	23020b05 	movwcs	r0, #11013	; 0x2b05
     8b0:	0fee0600 	svceq	0x00ee0600
     8b4:	56030000 	strpl	r0, [r3], -r0
     8b8:	0000005a 	andeq	r0, r0, sl, asr r0
     8bc:	02080304 	andeq	r0, r8, #4, 6	; 0x10000000
     8c0:	12060023 	andne	r0, r6, #35	; 0x23
     8c4:	0300000a 	movweq	r0, #10
     8c8:	00005a57 	andeq	r5, r0, r7, asr sl
     8cc:	05030400 	streq	r0, [r3, #-1024]	; 0xfffffc00
     8d0:	06002302 	streq	r2, [r0], -r2, lsl #6
     8d4:	00000ff8 	strdeq	r0, [r0], -r8
     8d8:	005a5803 	subseq	r5, sl, r3, lsl #16
     8dc:	04040000 	streq	r0, [r4], #-0
     8e0:	00230201 	eoreq	r0, r3, r1, lsl #4
     8e4:	00107006 	andseq	r7, r0, r6
     8e8:	5a590300 	bpl	16414f0 <__standby_start+0x16414f0>
     8ec:	04000000 	streq	r0, [r0], #-0
     8f0:	23020001 	movwcs	r0, #8193	; 0x2001
     8f4:	02040000 	andeq	r0, r4, #0
     8f8:	0300000d 	movweq	r0, #13
     8fc:	0003155a 	andeq	r1, r3, sl, asr r5
     900:	069d0500 	ldreq	r0, [sp], r0, lsl #10
     904:	03040000 	movweq	r0, #16384	; 0x4000
     908:	0004d25d 	andeq	sp, r4, sp, asr r2
     90c:	073f0600 	ldreq	r0, [pc, -r0, lsl #12]!
     910:	5f030000 	svcpl	0x00030000
     914:	0000005a 	andeq	r0, r0, sl, asr r0
     918:	021e0204 	andseq	r0, lr, #4, 4	; 0x40000000
     91c:	da060023 	ble	1809b0 <__standby_start+0x1809b0>
     920:	0300000f 	movweq	r0, #15
     924:	00005a60 	andeq	r5, r0, r0, ror #20
     928:	1c020400 	cfstrsne	mvf0, [r2], {-0}
     92c:	06002302 	streq	r2, [r0], -r2, lsl #6
     930:	00000737 	andeq	r0, r0, r7, lsr r7
     934:	005a6103 	subseq	r6, sl, r3, lsl #2
     938:	02040000 	andeq	r0, r4, #0
     93c:	0023021a 	eoreq	r0, r3, sl, lsl r2
     940:	000fe406 	andeq	lr, pc, r6, lsl #8
     944:	5a620300 	bpl	188154c <__standby_start+0x188154c>
     948:	04000000 	streq	r0, [r0], #-0
     94c:	23021802 	movwcs	r1, #10242	; 0x2802
     950:	07470600 	strbeq	r0, [r7, -r0, lsl #12]
     954:	63030000 	movwvs	r0, #12288	; 0x3000
     958:	0000005a 	andeq	r0, r0, sl, asr r0
     95c:	02130504 	andseq	r0, r3, #4, 10	; 0x1000000
     960:	ee060023 	cdp	0, 0, cr0, cr6, cr3, {1}
     964:	0300000f 	movweq	r0, #15
     968:	00005a64 	andeq	r5, r0, r4, ror #20
     96c:	10030400 	andne	r0, r3, r0, lsl #8
     970:	06002302 	streq	r2, [r0], -r2, lsl #6
     974:	0000074f 	andeq	r0, r0, pc, asr #14
     978:	005a6503 	subseq	r6, sl, r3, lsl #10
     97c:	02040000 	andeq	r0, r4, #0
     980:	0023020e 	eoreq	r0, r3, lr, lsl #4
     984:	000ff806 	andeq	pc, pc, r6, lsl #16
     988:	5a660300 	bpl	1981590 <__standby_start+0x1981590>
     98c:	04000000 	streq	r0, [r0], #-0
     990:	23020d01 	movwcs	r0, #11521	; 0x2d01
     994:	13350600 	teqne	r5, #0, 12
     998:	67030000 	strvs	r0, [r3, -r0]
     99c:	0000005a 	andeq	r0, r0, sl, asr r0
     9a0:	020c0104 	andeq	r0, ip, #4, 2
     9a4:	d7060023 	strle	r0, [r6, -r3, lsr #32]
     9a8:	03000010 	movweq	r0, #16
     9ac:	00005a68 	andeq	r5, r0, r8, ror #20
     9b0:	07050400 	streq	r0, [r5, -r0, lsl #8]
     9b4:	06002302 	streq	r2, [r0], -r2, lsl #6
     9b8:	00000f67 	andeq	r0, r0, r7, ror #30
     9bc:	005a6903 	subseq	r6, sl, r3, lsl #18
     9c0:	05040000 	streq	r0, [r4, #-0]
     9c4:	00230202 	eoreq	r0, r3, r2, lsl #4
     9c8:	000bb606 	andeq	fp, fp, r6, lsl #12
     9cc:	5a6a0300 	bpl	1a815d4 <__standby_start+0x1a815d4>
     9d0:	04000000 	streq	r0, [r0], #-0
     9d4:	23020101 	movwcs	r0, #8449	; 0x2101
     9d8:	10700600 	rsbsne	r0, r0, r0, lsl #12
     9dc:	6b030000 	blvs	c09e4 <__standby_start+0xc09e4>
     9e0:	0000005a 	andeq	r0, r0, sl, asr r0
     9e4:	02000104 	andeq	r0, r0, #4, 2
     9e8:	04000023 	streq	r0, [r0], #-35	; 0xffffffdd
     9ec:	00001387 	andeq	r1, r0, r7, lsl #7
     9f0:	03e86c03 	mvneq	r6, #768	; 0x300
     9f4:	60050000 	andvs	r0, r5, r0
     9f8:	04000006 	streq	r0, [r0], #-6
     9fc:	05e96f03 	strbeq	r6, [r9, #3843]!	; 0xf03
     a00:	3f060000 	svccc	0x00060000
     a04:	03000007 	movweq	r0, #7
     a08:	00005a71 	andeq	r5, r0, r1, ror sl
     a0c:	1e020400 	cfcpysne	mvf0, mvf2
     a10:	06002302 	streq	r2, [r0], -r2, lsl #6
     a14:	00001189 	andeq	r1, r0, r9, lsl #3
     a18:	005a7203 	subseq	r7, sl, r3, lsl #4
     a1c:	02040000 	andeq	r0, r4, #0
     a20:	0023021c 	eoreq	r0, r3, ip, lsl r2
     a24:	00073706 	andeq	r3, r7, r6, lsl #14
     a28:	5a730300 	bpl	1cc1630 <__standby_start+0x1cc1630>
     a2c:	04000000 	streq	r0, [r0], #-0
     a30:	23021a02 	movwcs	r1, #10754	; 0x2a02
     a34:	0fda0600 	svceq	0x00da0600
     a38:	74030000 	strvc	r0, [r3], #-0
     a3c:	0000005a 	andeq	r0, r0, sl, asr r0
     a40:	02190104 	andseq	r0, r9, #4, 2
     a44:	82060023 	andhi	r0, r6, #35	; 0x23
     a48:	03000011 	movweq	r0, #17
     a4c:	00005a75 	andeq	r5, r0, r5, ror sl
     a50:	18010400 	stmdane	r1, {sl}
     a54:	06002302 	streq	r2, [r0], -r2, lsl #6
     a58:	00000747 	andeq	r0, r0, r7, asr #14
     a5c:	005a7603 	subseq	r7, sl, r3, lsl #12
     a60:	05040000 	streq	r0, [r4, #-0]
     a64:	00230213 	eoreq	r0, r3, r3, lsl r2
     a68:	00133506 	andseq	r3, r3, r6, lsl #10
     a6c:	5a770300 	bpl	1dc1674 <__standby_start+0x1dc1674>
     a70:	04000000 	streq	r0, [r0], #-0
     a74:	23021003 	movwcs	r1, #8195	; 0x2003
     a78:	074f0600 	strbeq	r0, [pc, -r0, lsl #12]
     a7c:	78030000 	stmdavc	r3, {}	; <UNPREDICTABLE>
     a80:	0000005a 	andeq	r0, r0, sl, asr r0
     a84:	020e0204 	andeq	r0, lr, #4, 4	; 0x40000000
     a88:	c9060023 	stmdbgt	r6, {r0, r1, r5}
     a8c:	03000005 	movweq	r0, #5
     a90:	00005a79 	andeq	r5, r0, r9, ror sl
     a94:	0d010400 	cfstrseq	mvf0, [r1, #-0]
     a98:	06002302 	streq	r2, [r0], -r2, lsl #6
     a9c:	0000051b 	andeq	r0, r0, fp, lsl r5
     aa0:	005a7a03 	subseq	r7, sl, r3, lsl #20
     aa4:	01040000 	tsteq	r4, r0
     aa8:	0023020c 	eoreq	r0, r3, ip, lsl #4
     aac:	0010d706 	andseq	sp, r0, r6, lsl #14
     ab0:	5a7b0300 	bpl	1ec16b8 <__standby_start+0x1ec16b8>
     ab4:	04000000 	streq	r0, [r0], #-0
     ab8:	23020705 	movwcs	r0, #9989	; 0x2705
     abc:	0f670600 	svceq	0x00670600
     ac0:	7c030000 	stcvc	0, cr0, [r3], {-0}
     ac4:	0000005a 	andeq	r0, r0, sl, asr r0
     ac8:	02030404 	andeq	r0, r3, #4, 8	; 0x4000000
     acc:	45060023 	strmi	r0, [r6, #-35]	; 0xffffffdd
     ad0:	03000009 	movweq	r0, #9
     ad4:	00005a7d 	andeq	r5, r0, sp, ror sl
     ad8:	02010400 	andeq	r0, r1, #0, 8
     adc:	06002302 	streq	r2, [r0], -r2, lsl #6
     ae0:	00000bb6 			; <UNDEFINED> instruction: 0x00000bb6
     ae4:	005a7e03 	subseq	r7, sl, r3, lsl #28
     ae8:	01040000 	tsteq	r4, r0
     aec:	00230201 	eoreq	r0, r3, r1, lsl #4
     af0:	00107006 	andseq	r7, r0, r6
     af4:	5a7f0300 	bpl	1fc16fc <__standby_start+0x1fc16fc>
     af8:	04000000 	streq	r0, [r0], #-0
     afc:	23020001 	movwcs	r0, #8193	; 0x2001
     b00:	08040000 	stmdaeq	r4, {}	; <UNPREDICTABLE>
     b04:	03000008 	movweq	r0, #8
     b08:	0004dd80 	andeq	sp, r4, r0, lsl #27
     b0c:	131a0500 	tstne	sl, #0, 10
     b10:	03040000 	movweq	r0, #16384	; 0x4000
     b14:	00067883 	andeq	r7, r6, r3, lsl #17
     b18:	0fda0600 	svceq	0x00da0600
     b1c:	85030000 	strhi	r0, [r3, #-0]
     b20:	0000005a 	andeq	r0, r0, sl, asr r0
     b24:	02101004 	andseq	r1, r0, #4
     b28:	c4060023 	strgt	r0, [r6], #-35	; 0xffffffdd
     b2c:	03000010 	movweq	r0, #16
     b30:	00005a86 	andeq	r5, r0, r6, lsl #21
     b34:	09070400 	stmdbeq	r7, {sl}
     b38:	06002302 	streq	r2, [r0], -r2, lsl #6
     b3c:	00000c1b 	andeq	r0, r0, fp, lsl ip
     b40:	005a8703 	subseq	r8, sl, r3, lsl #14
     b44:	01040000 	tsteq	r4, r0
     b48:	00230208 	eoreq	r0, r3, r8, lsl #4
     b4c:	00129d06 	andseq	r9, r2, r6, lsl #26
     b50:	5a880300 	bpl	fe201758 <__bss_end+0xe1ff710>
     b54:	04000000 	streq	r0, [r0], #-0
     b58:	23020503 	movwcs	r0, #9475	; 0x2503
     b5c:	0fe40600 	svceq	0x00e40600
     b60:	89030000 	stmdbhi	r3, {}	; <UNPREDICTABLE>
     b64:	0000005a 	andeq	r0, r0, sl, asr r0
     b68:	02040104 	andeq	r0, r4, #4, 2
     b6c:	29060023 	stmdbcs	r6, {r0, r1, r5}
     b70:	03000011 	movweq	r0, #17
     b74:	00005a8a 	andeq	r5, r0, sl, lsl #21
     b78:	03010400 	movweq	r0, #5120	; 0x1400
     b7c:	06002302 	streq	r2, [r0], -r2, lsl #6
     b80:	00000a12 	andeq	r0, r0, r2, lsl sl
     b84:	005a8b03 	subseq	r8, sl, r3, lsl #22
     b88:	03040000 	movweq	r0, #16384	; 0x4000
     b8c:	00230200 	eoreq	r0, r3, r0, lsl #4
     b90:	0c990400 	cfldrseq	mvf0, [r9], {0}
     b94:	8c030000 	stchi	0, cr0, [r3], {-0}
     b98:	000005f4 	strdeq	r0, [r0], -r4
     b9c:	00075705 	andeq	r5, r7, r5, lsl #14
     ba0:	8e030400 	cfcpyshi	mvf0, mvf3
     ba4:	0000076d 	andeq	r0, r0, sp, ror #14
     ba8:	00073f06 	andeq	r3, r7, r6, lsl #30
     bac:	5a900300 	bpl	fe4017b4 <__bss_end+0xe3ff76c>
     bb0:	04000000 	streq	r0, [r0], #-0
     bb4:	23021e02 	movwcs	r1, #11778	; 0x2e02
     bb8:	0fda0600 	svceq	0x00da0600
     bbc:	91030000 	tstls	r3, r0
     bc0:	0000005a 	andeq	r0, r0, sl, asr r0
     bc4:	021c0204 	andseq	r0, ip, #4, 4	; 0x40000000
     bc8:	37060023 	strcc	r0, [r6, -r3, lsr #32]
     bcc:	03000007 	movweq	r0, #7
     bd0:	00005a92 	muleq	r0, r2, sl
     bd4:	1a020400 	bne	81bdc <__standby_start+0x81bdc>
     bd8:	06002302 	streq	r2, [r0], -r2, lsl #6
     bdc:	00000a12 	andeq	r0, r0, r2, lsl sl
     be0:	005a9303 	subseq	r9, sl, r3, lsl #6
     be4:	02040000 	andeq	r0, r4, #0
     be8:	00230218 	eoreq	r0, r3, r8, lsl r2
     bec:	00074706 	andeq	r4, r7, r6, lsl #14
     bf0:	5a940300 	bpl	fe5017f8 <__bss_end+0xe4ff7b0>
     bf4:	04000000 	streq	r0, [r0], #-0
     bf8:	23021305 	movwcs	r1, #8965	; 0x2305
     bfc:	0fe40600 	svceq	0x00e40600
     c00:	95030000 	strls	r0, [r3, #-0]
     c04:	0000005a 	andeq	r0, r0, sl, asr r0
     c08:	02120104 	andseq	r0, r2, #4, 2
     c0c:	45060023 	strmi	r0, [r6, #-35]	; 0xffffffdd
     c10:	03000009 	movweq	r0, #9
     c14:	00005a96 	muleq	r0, r6, sl
     c18:	11010400 	tstne	r1, r0, lsl #8
     c1c:	06002302 	streq	r2, [r0], -r2, lsl #6
     c20:	000005c9 	andeq	r0, r0, r9, asr #11
     c24:	005a9703 	subseq	r9, sl, r3, lsl #14
     c28:	01040000 	tsteq	r4, r0
     c2c:	00230210 	eoreq	r0, r3, r0, lsl r2
     c30:	000fee06 	andeq	lr, pc, r6, lsl #28
     c34:	5a980300 	bpl	fe60183c <__bss_end+0xe5ff7f4>
     c38:	04000000 	streq	r0, [r0], #-0
     c3c:	23020c04 	movwcs	r0, #11268	; 0x2c04
     c40:	10d70600 	sbcsne	r0, r7, r0, lsl #12
     c44:	99030000 	stmdbls	r3, {}	; <UNPREDICTABLE>
     c48:	0000005a 	andeq	r0, r0, sl, asr r0
     c4c:	02070504 	andeq	r0, r7, #4, 10	; 0x1000000
     c50:	67060023 	strvs	r0, [r6, -r3, lsr #32]
     c54:	0300000f 	movweq	r0, #15
     c58:	00005a9a 	muleq	r0, sl, sl
     c5c:	02050400 	andeq	r0, r5, #0, 8
     c60:	06002302 	streq	r2, [r0], -r2, lsl #6
     c64:	00000bb6 			; <UNDEFINED> instruction: 0x00000bb6
     c68:	005a9b03 	subseq	r9, sl, r3, lsl #22
     c6c:	01040000 	tsteq	r4, r0
     c70:	00230201 	eoreq	r0, r3, r1, lsl #4
     c74:	00107006 	andseq	r7, r0, r6
     c78:	5a9c0300 	bpl	fe701880 <__bss_end+0xe6ff838>
     c7c:	04000000 	streq	r0, [r0], #-0
     c80:	23020001 	movwcs	r0, #8193	; 0x2001
     c84:	ae040000 	cdpge	0, 0, cr0, cr4, cr0, {0}
     c88:	03000005 	movweq	r0, #5
     c8c:	0006839d 	muleq	r6, sp, r3
     c90:	0dde0500 	cfldr64eq	mvdx0, [lr]
     c94:	03040000 	movweq	r0, #16384	; 0x4000
     c98:	000840a0 	andeq	r4, r8, r0, lsr #1
     c9c:	073f0600 	ldreq	r0, [pc, -r0, lsl #12]!
     ca0:	a2030000 	andge	r0, r3, #0
     ca4:	0000005a 	andeq	r0, r0, sl, asr r0
     ca8:	02190704 	andseq	r0, r9, #4, 14	; 0x100000
     cac:	da060023 	ble	180d40 <__standby_start+0x180d40>
     cb0:	0300000f 	movweq	r0, #15
     cb4:	00005aa3 	andeq	r5, r0, r3, lsr #21
     cb8:	18010400 	stmdane	r1, {sl}
     cbc:	06002302 	streq	r2, [r0], -r2, lsl #6
     cc0:	000010d7 	ldrdeq	r1, [r0], -r7
     cc4:	005aa403 	subseq	sl, sl, r3, lsl #8
     cc8:	05040000 	streq	r0, [r4, #-0]
     ccc:	00230213 	eoreq	r0, r3, r3, lsl r2
     cd0:	000fe406 	andeq	lr, pc, r6, lsl #8
     cd4:	5aa50300 	bpl	fe9418dc <__bss_end+0xe93f894>
     cd8:	04000000 	streq	r0, [r0], #-0
     cdc:	23021201 	movwcs	r1, #8705	; 0x2201
     ce0:	0bd60600 	bleq	ff5824e8 <__bss_end+0xf5804a0>
     ce4:	a6030000 	strge	r0, [r3], -r0
     ce8:	0000005a 	andeq	r0, r0, sl, asr r0
     cec:	02110104 	andseq	r0, r1, #4, 2
     cf0:	c1060023 	tstgt	r6, r3, lsr #32
     cf4:	0300000d 	movweq	r0, #13
     cf8:	00005aa7 	andeq	r5, r0, r7, lsr #21
     cfc:	10010400 	andne	r0, r1, r0, lsl #8
     d00:	06002302 	streq	r2, [r0], -r2, lsl #6
     d04:	00000f67 	andeq	r0, r0, r7, ror #30
     d08:	005aa803 	subseq	sl, sl, r3, lsl #16
     d0c:	05040000 	streq	r0, [r4, #-0]
     d10:	0023020b 	eoreq	r0, r3, fp, lsl #4
     d14:	000fee06 	andeq	lr, pc, r6, lsl #28
     d18:	5aa90300 	bpl	fea41920 <__bss_end+0xea3f8d8>
     d1c:	04000000 	streq	r0, [r0], #-0
     d20:	23020803 	movwcs	r0, #10243	; 0x2803
     d24:	0a120600 	beq	48252c <__standby_start+0x48252c>
     d28:	aa030000 	bge	c0d30 <__standby_start+0xc0d30>
     d2c:	0000005a 	andeq	r0, r0, sl, asr r0
     d30:	02050304 	andeq	r0, r5, #4, 6	; 0x10000000
     d34:	f8060023 			; <UNDEFINED> instruction: 0xf8060023
     d38:	0300000f 	movweq	r0, #15
     d3c:	00005aab 	andeq	r5, r0, fp, lsr #21
     d40:	01040400 	tsteq	r4, r0, lsl #8
     d44:	06002302 	streq	r2, [r0], -r2, lsl #6
     d48:	00001070 	andeq	r1, r0, r0, ror r0
     d4c:	005aac03 	subseq	sl, sl, r3, lsl #24
     d50:	01040000 	tsteq	r4, r0
     d54:	00230200 	eoreq	r0, r3, r0, lsl #4
     d58:	0d9b0400 	cfldrseq	mvf0, [fp]
     d5c:	ad030000 	stcge	0, cr0, [r3, #-0]
     d60:	00000778 	andeq	r0, r0, r8, ror r7
     d64:	00100c05 	andseq	r0, r0, r5, lsl #24
     d68:	b0030400 	andlt	r0, r3, r0, lsl #8
     d6c:	000008be 			; <UNDEFINED> instruction: 0x000008be
     d70:	000b2706 	andeq	r2, fp, r6, lsl #14
     d74:	5ab20300 	bpl	fec8197c <__bss_end+0xec7f934>
     d78:	04000000 	streq	r0, [r0], #-0
     d7c:	23020f11 	movwcs	r0, #12049	; 0x2f11
     d80:	135c0600 	cmpne	ip, #0, 12
     d84:	b3030000 	movwlt	r0, #12288	; 0x3000
     d88:	0000005a 	andeq	r0, r0, sl, asr r0
     d8c:	020d0204 	andeq	r0, sp, #4, 4	; 0x40000000
     d90:	da060023 	ble	180e24 <__standby_start+0x180e24>
     d94:	0300000f 	movweq	r0, #15
     d98:	00005ab4 			; <UNDEFINED> instruction: 0x00005ab4
     d9c:	0c010400 	cfstrseq	mvf0, [r1], {-0}
     da0:	06002302 	streq	r2, [r0], -r2, lsl #6
     da4:	000003b0 			; <UNDEFINED> instruction: 0x000003b0
     da8:	005ab503 	subseq	fp, sl, r3, lsl #10
     dac:	09040000 	stmdbeq	r4, {}	; <UNPREDICTABLE>
     db0:	00230203 	eoreq	r0, r3, r3, lsl #4
     db4:	00085f06 	andeq	r5, r8, r6, lsl #30
     db8:	5ab60300 	bpl	fed819c0 <__bss_end+0xed7f978>
     dbc:	04000000 	streq	r0, [r0], #-0
     dc0:	23020102 	movwcs	r0, #8450	; 0x2102
     dc4:	0af30600 	beq	ffcc25cc <__bss_end+0xfcc0584>
     dc8:	b7030000 	strlt	r0, [r3, -r0]
     dcc:	0000005a 	andeq	r0, r0, sl, asr r0
     dd0:	02000104 	andeq	r0, r0, #4, 2
     dd4:	04000023 	streq	r0, [r0], #-35	; 0xffffffdd
     dd8:	00000577 	andeq	r0, r0, r7, ror r5
     ddc:	084bb803 	stmdaeq	fp, {r0, r1, fp, ip, sp, pc}^
     de0:	42050000 	andmi	r0, r5, #0
     de4:	0400000f 	streq	r0, [r0], #-15
     de8:	093cbb03 	ldmdbeq	ip!, {r0, r1, r8, r9, fp, ip, sp, pc}
     dec:	27060000 	strcs	r0, [r6, -r0]
     df0:	0300000b 	movweq	r0, #11
     df4:	00005abd 			; <UNDEFINED> instruction: 0x00005abd
     df8:	0f110400 	svceq	0x00110400
     dfc:	06002302 	streq	r2, [r0], -r2, lsl #6
     e00:	0000135c 	andeq	r1, r0, ip, asr r3
     e04:	005abe03 	subseq	fp, sl, r3, lsl #28
     e08:	02040000 	andeq	r0, r4, #0
     e0c:	0023020d 	eoreq	r0, r3, sp, lsl #4
     e10:	000fda06 	andeq	sp, pc, r6, lsl #20
     e14:	5abf0300 	bpl	fefc1a1c <__bss_end+0xefbf9d4>
     e18:	04000000 	streq	r0, [r0], #-0
     e1c:	23020c01 	movwcs	r0, #11265	; 0x2c01
     e20:	03b00600 	movseq	r0, #0, 12
     e24:	c0030000 	andgt	r0, r3, r0
     e28:	0000005a 	andeq	r0, r0, sl, asr r0
     e2c:	02030904 	andeq	r0, r3, #4, 18	; 0x10000
     e30:	5f060023 	svcpl	0x00060023
     e34:	03000008 	movweq	r0, #8
     e38:	00005ac1 	andeq	r5, r0, r1, asr #21
     e3c:	01020400 	tsteq	r2, r0, lsl #8
     e40:	06002302 	streq	r2, [r0], -r2, lsl #6
     e44:	00000af3 	strdeq	r0, [r0], -r3
     e48:	005ac203 	subseq	ip, sl, r3, lsl #4
     e4c:	01040000 	tsteq	r4, r0
     e50:	00230200 	eoreq	r0, r3, r0, lsl #4
     e54:	11340400 	teqne	r4, r0, lsl #8
     e58:	c3030000 	movwgt	r0, #12288	; 0x3000
     e5c:	000008c9 	andeq	r0, r0, r9, asr #17
     e60:	000e6d05 	andeq	r6, lr, r5, lsl #26
     e64:	c6030400 	strgt	r0, [r3], -r0, lsl #8
     e68:	000009dc 	ldrdeq	r0, [r0], -ip
     e6c:	00105f06 	andseq	r5, r0, r6, lsl #30
     e70:	5ac80300 	bpl	ff201a78 <__bss_end+0xf1ffa30>
     e74:	04000000 	streq	r0, [r0], #-0
     e78:	23021f01 	movwcs	r1, #12033	; 0x2f01
     e7c:	0d740600 	ldcleq	6, cr0, [r4, #-0]
     e80:	c9030000 	stmdbgt	r3, {}	; <UNPREDICTABLE>
     e84:	0000005a 	andeq	r0, r0, sl, asr r0
     e88:	021e0104 	andseq	r0, lr, #4, 2
     e8c:	da060023 	ble	180f20 <__standby_start+0x180f20>
     e90:	0300000f 	movweq	r0, #15
     e94:	00005aca 	andeq	r5, r0, sl, asr #21
     e98:	110d0400 	tstne	sp, r0, lsl #8
     e9c:	06002302 	streq	r2, [r0], -r2, lsl #6
     ea0:	00000c63 	andeq	r0, r0, r3, ror #24
     ea4:	005acb03 	subseq	ip, sl, r3, lsl #22
     ea8:	01040000 	tsteq	r4, r0
     eac:	00230210 	eoreq	r0, r3, r0, lsl r2
     eb0:	0005a806 	andeq	sl, r5, r6, lsl #16
     eb4:	5acc0300 	bpl	ff301abc <__bss_end+0xf2ffa74>
     eb8:	04000000 	streq	r0, [r0], #-0
     ebc:	23020f01 	movwcs	r0, #12033	; 0x2f01
     ec0:	05250600 	streq	r0, [r5, #-1536]!	; 0xfffffa00
     ec4:	cd030000 	stcgt	0, cr0, [r3, #-0]
     ec8:	0000005a 	andeq	r0, r0, sl, asr r0
     ecc:	020e0104 	andeq	r0, lr, #4, 2
     ed0:	04060023 	streq	r0, [r6], #-35	; 0xffffffdd
     ed4:	03000007 	movweq	r0, #7
     ed8:	00005ace 	andeq	r5, r0, lr, asr #21
     edc:	0b030400 	bleq	c1ee4 <__standby_start+0xc1ee4>
     ee0:	06002302 	streq	r2, [r0], -r2, lsl #6
     ee4:	00000e96 	muleq	r0, r6, lr
     ee8:	005acf03 	subseq	ip, sl, r3, lsl #30
     eec:	0b040000 	bleq	100ef4 <__standby_start+0x100ef4>
     ef0:	00230200 	eoreq	r0, r3, r0, lsl #4
     ef4:	07b00400 	ldreq	r0, [r0, r0, lsl #8]!
     ef8:	d0030000 	andle	r0, r3, r0
     efc:	00000947 	andeq	r0, r0, r7, asr #18
     f00:	00109005 	andseq	r9, r0, r5
     f04:	d3030400 	movwle	r0, #13312	; 0x3400
     f08:	00000a7c 	andeq	r0, r0, ip, ror sl
     f0c:	00131006 	andseq	r1, r3, r6
     f10:	5ad50300 	bpl	ff541b18 <__bss_end+0xf53fad0>
     f14:	04000000 	streq	r0, [r0], #-0
     f18:	23021e02 	movwcs	r1, #11778	; 0x2e02
     f1c:	0fda0600 	svceq	0x00da0600
     f20:	d6030000 	strle	r0, [r3], -r0
     f24:	0000005a 	andeq	r0, r0, sl, asr r0
     f28:	021c0204 	andseq	r0, ip, #4, 4	; 0x40000000
     f2c:	2d060023 	stccs	0, cr0, [r6, #-140]	; 0xffffff74
     f30:	03000009 	movweq	r0, #9
     f34:	00005ad7 	ldrdeq	r5, [r0], -r7
     f38:	1a020400 	bne	81f40 <__standby_start+0x81f40>
     f3c:	06002302 	streq	r2, [r0], -r2, lsl #6
     f40:	00000fe4 	andeq	r0, r0, r4, ror #31
     f44:	005ad803 	subseq	sp, sl, r3, lsl #16
     f48:	02040000 	andeq	r0, r4, #0
     f4c:	00230218 	eoreq	r0, r3, r8, lsl r2
     f50:	0013a006 	andseq	sl, r3, r6
     f54:	5ad90300 	bpl	ff641b5c <__bss_end+0xf63fb14>
     f58:	04000000 	streq	r0, [r0], #-0
     f5c:	23021602 	movwcs	r1, #9730	; 0x2602
     f60:	0fee0600 	svceq	0x00ee0600
     f64:	da030000 	ble	c0f6c <__standby_start+0xc0f6c>
     f68:	0000005a 	andeq	r0, r0, sl, asr r0
     f6c:	02100604 	andseq	r0, r0, #4, 12	; 0x400000
     f70:	50060023 	andpl	r0, r6, r3, lsr #32
     f74:	03000013 	movweq	r0, #19
     f78:	00005adb 	ldrdeq	r5, [r0], -fp
     f7c:	0e020400 	cfcpyseq	mvf0, mvf2
     f80:	06002302 	streq	r2, [r0], -r2, lsl #6
     f84:	00000ff8 	strdeq	r0, [r0], -r8
     f88:	005adc03 	subseq	sp, sl, r3, lsl #24
     f8c:	0e040000 	cdpeq	0, 0, cr0, cr4, cr0, {0}
     f90:	00230200 	eoreq	r0, r3, r0, lsl #4
     f94:	12360400 	eorsne	r0, r6, #0, 8
     f98:	dd030000 	stcle	0, cr0, [r3, #-0]
     f9c:	000009e7 	andeq	r0, r0, r7, ror #19
     fa0:	000fb505 	andeq	fp, pc, r5, lsl #10
     fa4:	df030400 	svcle	0x00030400
     fa8:	00000afa 	strdeq	r0, [r0], -sl
     fac:	0013a406 	andseq	sl, r3, r6, lsl #8
     fb0:	5ae10300 	bpl	ff841bb8 <__bss_end+0xf83fb70>
     fb4:	04000000 	streq	r0, [r0], #-0
     fb8:	23021b05 	movwcs	r1, #11013	; 0x2b05
     fbc:	0fda0600 	svceq	0x00da0600
     fc0:	e2030000 	and	r0, r3, #0
     fc4:	0000005a 	andeq	r0, r0, sl, asr r0
     fc8:	02100b04 	andseq	r0, r0, #4, 22	; 0x1000
     fcc:	14060023 	strne	r0, [r6], #-35	; 0xffffffdd
     fd0:	03000005 	movweq	r0, #5
     fd4:	00005ae3 	andeq	r5, r0, r3, ror #21
     fd8:	0e020400 	cfcpyseq	mvf0, mvf2
     fdc:	06002302 	streq	r2, [r0], -r2, lsl #6
     fe0:	00000fe4 	andeq	r0, r0, r4, ror #31
     fe4:	005ae403 	subseq	lr, sl, r3, lsl #8
     fe8:	06040000 	streq	r0, [r4], -r0
     fec:	00230208 	eoreq	r0, r3, r8, lsl #4
     ff0:	00135506 	andseq	r5, r3, r6, lsl #10
     ff4:	5ae50300 	bpl	ff941bfc <__bss_end+0xf93fbb4>
     ff8:	04000000 	streq	r0, [r0], #-0
     ffc:	23020602 	movwcs	r0, #9730	; 0x2602
    1000:	0fee0600 	svceq	0x00ee0600
    1004:	e6030000 	str	r0, [r3], -r0
    1008:	0000005a 	andeq	r0, r0, sl, asr r0
    100c:	02000604 	andeq	r0, r0, #4, 12	; 0x400000
    1010:	04000023 	streq	r0, [r0], #-35	; 0xffffffdd
    1014:	000006cd 	andeq	r0, r0, sp, asr #13
    1018:	0a87e703 	beq	fe1fac2c <__bss_end+0xe1f8be4>
    101c:	2e050000 	cdpcs	0, 0, cr0, cr5, cr0, {0}
    1020:	0400000c 	streq	r0, [r0], #-12
    1024:	0b34ea03 	bleq	d3b838 <__standby_start+0xd3b838>
    1028:	1e060000 	cdpne	0, 0, cr0, cr6, cr0, {0}
    102c:	0300000d 	movweq	r0, #13
    1030:	00005aec 	andeq	r5, r0, ip, ror #21
    1034:	1f010400 	svcne	0x00010400
    1038:	06002302 	streq	r2, [r0], -r2, lsl #6
    103c:	00000fda 	ldrdeq	r0, [r0], -sl
    1040:	005aed03 	subseq	lr, sl, r3, lsl #26
    1044:	1f040000 	svcne	0x00040000
    1048:	00230200 	eoreq	r0, r3, r0, lsl #4
    104c:	115b0400 	cmpne	fp, r0, lsl #8
    1050:	ee030000 	cdp	0, 0, cr0, cr3, cr0, {0}
    1054:	00000b05 	andeq	r0, r0, r5, lsl #22
    1058:	00040a05 	andeq	r0, r4, r5, lsl #20
    105c:	f1030400 			; <UNDEFINED> instruction: 0xf1030400
    1060:	00000d37 	andeq	r0, r0, r7, lsr sp
    1064:	0007f506 	andeq	pc, r7, r6, lsl #10
    1068:	5af30300 	bpl	ffcc1c70 <__bss_end+0xfcbfc28>
    106c:	04000000 	streq	r0, [r0], #-0
    1070:	23021f01 	movwcs	r1, #12033	; 0x2f01
    1074:	10ba0600 	adcsne	r0, sl, r0, lsl #12
    1078:	f4030000 	vst4.8	{d0-d3}, [r3], r0
    107c:	0000005a 	andeq	r0, r0, sl, asr r0
    1080:	021e0104 	andseq	r0, lr, #4, 2
    1084:	16060023 	strne	r0, [r6], -r3, lsr #32
    1088:	0300000e 	movweq	r0, #14
    108c:	00005af5 	strdeq	r5, [r0], -r5	; <UNPREDICTABLE>
    1090:	1d010400 	cfstrsne	mvf0, [r1, #-0]
    1094:	06002302 	streq	r2, [r0], -r2, lsl #6
    1098:	00000b1d 	andeq	r0, r0, sp, lsl fp
    109c:	005af603 	subseq	pc, sl, r3, lsl #12
    10a0:	01040000 	tsteq	r4, r0
    10a4:	0023021c 	eoreq	r0, r3, ip, lsl r2
    10a8:	00089506 	andeq	r9, r8, r6, lsl #10
    10ac:	5af70300 	bpl	ffdc1cb4 <__bss_end+0xfdbfc6c>
    10b0:	04000000 	streq	r0, [r0], #-0
    10b4:	23021b01 	movwcs	r1, #11009	; 0x2b01
    10b8:	10f30600 	rscsne	r0, r3, r0, lsl #12
    10bc:	f8030000 			; <UNDEFINED> instruction: 0xf8030000
    10c0:	0000005a 	andeq	r0, r0, sl, asr r0
    10c4:	021a0104 	andseq	r0, sl, #4, 2
    10c8:	68060023 	stmdavs	r6, {r0, r1, r5}
    10cc:	03000010 	movweq	r0, #16
    10d0:	00005af9 	strdeq	r5, [r0], -r9
    10d4:	19010400 	stmdbne	r1, {sl}
    10d8:	06002302 	streq	r2, [r0], -r2, lsl #6
    10dc:	0000090b 	andeq	r0, r0, fp, lsl #18
    10e0:	005afa03 	subseq	pc, sl, r3, lsl #20
    10e4:	01040000 	tsteq	r4, r0
    10e8:	00230218 	eoreq	r0, r3, r8, lsl r2
    10ec:	00093706 	andeq	r3, r9, r6, lsl #14
    10f0:	5afb0300 	bpl	ffec1cf8 <__bss_end+0xfebfcb0>
    10f4:	04000000 	streq	r0, [r0], #-0
    10f8:	23021701 	movwcs	r1, #9985	; 0x2701
    10fc:	13de0600 	bicsne	r0, lr, #0, 12
    1100:	fc030000 	stc2	0, cr0, [r3], {-0}
    1104:	0000005a 	andeq	r0, r0, sl, asr r0
    1108:	02160104 	andseq	r0, r6, #4, 2
    110c:	90060023 	andls	r0, r6, r3, lsr #32
    1110:	0300000d 	movweq	r0, #13
    1114:	00005afd 	strdeq	r5, [r0], -sp
    1118:	15010400 	strne	r0, [r1, #-1024]	; 0xfffffc00
    111c:	06002302 	streq	r2, [r0], -r2, lsl #6
    1120:	0000046a 	andeq	r0, r0, sl, ror #8
    1124:	005afe03 	subseq	pc, sl, r3, lsl #28
    1128:	01040000 	tsteq	r4, r0
    112c:	00230214 	eoreq	r0, r3, r4, lsl r2
    1130:	00072706 	andeq	r2, r7, r6, lsl #14
    1134:	5aff0300 	bpl	fffc1d3c <__bss_end+0xffbfcf4>
    1138:	04000000 	streq	r0, [r0], #-0
    113c:	23021301 	movwcs	r1, #8961	; 0x2301
    1140:	10ea0700 	rscne	r0, sl, r0, lsl #14
    1144:	00030000 	andeq	r0, r3, r0
    1148:	00005a01 	andeq	r5, r0, r1, lsl #20
    114c:	12010400 	andne	r0, r1, #0, 8
    1150:	07002302 	streq	r2, [r0, -r2, lsl #6]
    1154:	00000d1e 	andeq	r0, r0, lr, lsl sp
    1158:	5a010103 	bpl	4156c <__standby_start+0x4156c>
    115c:	04000000 	streq	r0, [r0], #-0
    1160:	23021101 	movwcs	r1, #8449	; 0x2101
    1164:	0fee0700 	svceq	0x00ee0700
    1168:	02030000 	andeq	r0, r3, #0
    116c:	00005a01 	andeq	r5, r0, r1, lsl #20
    1170:	10010400 	andne	r0, r1, r0, lsl #8
    1174:	07002302 	streq	r2, [r0, -r2, lsl #6]
    1178:	00000d57 	andeq	r0, r0, r7, asr sp
    117c:	5a010303 	bpl	41d90 <__standby_start+0x41d90>
    1180:	04000000 	streq	r0, [r0], #-0
    1184:	23020f01 	movwcs	r0, #12033	; 0x2f01
    1188:	0e8d0700 	cdpeq	7, 8, cr0, cr13, cr0, {0}
    118c:	04030000 	streq	r0, [r3], #-0
    1190:	00005a01 	andeq	r5, r0, r1, lsl #20
    1194:	0e010400 	cfcpyseq	mvf0, mvf1
    1198:	07002302 	streq	r2, [r0, -r2, lsl #6]
    119c:	00000426 	andeq	r0, r0, r6, lsr #8
    11a0:	5a010503 	bpl	425b4 <__standby_start+0x425b4>
    11a4:	04000000 	streq	r0, [r0], #-0
    11a8:	23020d01 	movwcs	r0, #11521	; 0x2d01
    11ac:	0ff80700 	svceq	0x00f80700
    11b0:	06030000 	streq	r0, [r3], -r0
    11b4:	00005a01 	andeq	r5, r0, r1, lsl #20
    11b8:	0c010400 	cfstrseq	mvf0, [r1], {-0}
    11bc:	07002302 	streq	r2, [r0, -r2, lsl #6]
    11c0:	000004fe 	strdeq	r0, [r0], -lr
    11c4:	5a010703 	bpl	42dd8 <__standby_start+0x42dd8>
    11c8:	04000000 	streq	r0, [r0], #-0
    11cc:	23020b01 	movwcs	r0, #11009	; 0x2b01
    11d0:	08df0700 	ldmeq	pc, {r8, r9, sl}^	; <UNPREDICTABLE>
    11d4:	08030000 	stmdaeq	r3, {}	; <UNPREDICTABLE>
    11d8:	00005a01 	andeq	r5, r0, r1, lsl #20
    11dc:	0a010400 	beq	421e4 <__standby_start+0x421e4>
    11e0:	07002302 	streq	r2, [r0, -r2, lsl #6]
    11e4:	00000a28 	andeq	r0, r0, r8, lsr #20
    11e8:	5a010903 	bpl	435fc <__standby_start+0x435fc>
    11ec:	04000000 	streq	r0, [r0], #-0
    11f0:	23020901 	movwcs	r0, #10497	; 0x2901
    11f4:	04350700 	ldrteq	r0, [r5], #-1792	; 0xfffff900
    11f8:	0a030000 	beq	c1200 <__standby_start+0xc1200>
    11fc:	00005a01 	andeq	r5, r0, r1, lsl #20
    1200:	08010400 	stmdaeq	r1, {sl}
    1204:	07002302 	streq	r2, [r0, -r2, lsl #6]
    1208:	00000770 	andeq	r0, r0, r0, ror r7
    120c:	5a010b03 	bpl	43e20 <__standby_start+0x43e20>
    1210:	04000000 	streq	r0, [r0], #-0
    1214:	23020701 	movwcs	r0, #9985	; 0x2701
    1218:	07d20700 	ldrbeq	r0, [r2, r0, lsl #14]
    121c:	0c030000 	stceq	0, cr0, [r3], {-0}
    1220:	00005a01 	andeq	r5, r0, r1, lsl #20
    1224:	06010400 	streq	r0, [r1], -r0, lsl #8
    1228:	07002302 	streq	r2, [r0, -r2, lsl #6]
    122c:	0000127a 	andeq	r1, r0, sl, ror r2
    1230:	5a010d03 	bpl	44644 <__standby_start+0x44644>
    1234:	04000000 	streq	r0, [r0], #-0
    1238:	23020501 	movwcs	r0, #9473	; 0x2501
    123c:	10020700 	andne	r0, r2, r0, lsl #14
    1240:	0e030000 	cdpeq	0, 0, cr0, cr3, cr0, {0}
    1244:	00005a01 	andeq	r5, r0, r1, lsl #20
    1248:	00050400 	andeq	r0, r5, r0, lsl #8
    124c:	00002302 	andeq	r2, r0, r2, lsl #6
    1250:	0003b908 	andeq	fp, r3, r8, lsl #18
    1254:	010f0300 	tsteq	pc, r0, lsl #6
    1258:	00000b3f 	andeq	r0, r0, pc, lsr fp
    125c:	0008c309 	andeq	ip, r8, r9, lsl #6
    1260:	12030400 	andne	r0, r3, #0, 8
    1264:	000eb901 	andeq	fp, lr, r1, lsl #18
    1268:	0ba70700 	bleq	fe9c2e70 <__bss_end+0xe9c0e28>
    126c:	14030000 	strne	r0, [r3], #-0
    1270:	00005a01 	andeq	r5, r0, r1, lsl #20
    1274:	1f010400 	svcne	0x00010400
    1278:	07002302 	streq	r2, [r0, -r2, lsl #6]
    127c:	000004b1 			; <UNDEFINED> instruction: 0x000004b1
    1280:	5a011503 	bpl	46694 <__standby_start+0x46694>
    1284:	04000000 	streq	r0, [r0], #-0
    1288:	23021e01 	movwcs	r1, #11777	; 0x2e01
    128c:	0a3a0700 	beq	e82e94 <__standby_start+0xe82e94>
    1290:	16030000 	strne	r0, [r3], -r0
    1294:	00005a01 	andeq	r5, r0, r1, lsl #20
    1298:	1d010400 	cfstrsne	mvf0, [r1, #-0]
    129c:	07002302 	streq	r2, [r0, -r2, lsl #6]
    12a0:	00000446 	andeq	r0, r0, r6, asr #8
    12a4:	5a011703 	bpl	46eb8 <__standby_start+0x46eb8>
    12a8:	04000000 	streq	r0, [r0], #-0
    12ac:	23021c01 	movwcs	r1, #11265	; 0x2c01
    12b0:	07e30700 	strbeq	r0, [r3, r0, lsl #14]!
    12b4:	18030000 	stmdane	r3, {}	; <UNPREDICTABLE>
    12b8:	00005a01 	andeq	r5, r0, r1, lsl #20
    12bc:	1b010400 	blne	422c4 <__standby_start+0x422c4>
    12c0:	07002302 	streq	r2, [r0, -r2, lsl #6]
    12c4:	00001282 	andeq	r1, r0, r2, lsl #5
    12c8:	5a011903 	bpl	476dc <__standby_start+0x476dc>
    12cc:	04000000 	streq	r0, [r0], #-0
    12d0:	23021a01 	movwcs	r1, #10753	; 0x2a01
    12d4:	0fda0700 	svceq	0x00da0700
    12d8:	1a030000 	bne	c12e0 <__standby_start+0xc12e0>
    12dc:	00005a01 	andeq	r5, r0, r1, lsl #20
    12e0:	18020400 	stmdane	r2, {sl}
    12e4:	07002302 	streq	r2, [r0, -r2, lsl #6]
    12e8:	000013d5 	ldrdeq	r1, [r0], -r5
    12ec:	5a011b03 	bpl	47f00 <__standby_start+0x47f00>
    12f0:	04000000 	streq	r0, [r0], #-0
    12f4:	23021701 	movwcs	r1, #9985	; 0x2701
    12f8:	12690700 	rsbne	r0, r9, #0, 14
    12fc:	1c030000 	stcne	0, cr0, [r3], {-0}
    1300:	00005a01 	andeq	r5, r0, r1, lsl #20
    1304:	16010400 	strne	r0, [r1], -r0, lsl #8
    1308:	07002302 	streq	r2, [r0, -r2, lsl #6]
    130c:	00000fe4 	andeq	r0, r0, r4, ror #31
    1310:	5a011d03 	bpl	48724 <__standby_start+0x48724>
    1314:	04000000 	streq	r0, [r0], #-0
    1318:	23021501 	movwcs	r1, #9473	; 0x2501
    131c:	111f0700 	tstne	pc, r0, lsl #14
    1320:	1e030000 	cdpne	0, 0, cr0, cr3, cr0, {0}
    1324:	00005a01 	andeq	r5, r0, r1, lsl #20
    1328:	14010400 	strne	r0, [r1], #-1024	; 0xfffffc00
    132c:	07002302 	streq	r2, [r0, -r2, lsl #6]
    1330:	00000f8a 	andeq	r0, r0, sl, lsl #31
    1334:	5a011f03 	bpl	48f48 <__standby_start+0x48f48>
    1338:	04000000 	streq	r0, [r0], #-0
    133c:	23021301 	movwcs	r1, #8961	; 0x2301
    1340:	08220700 	stmdaeq	r2!, {r8, r9, sl}
    1344:	20030000 	andcs	r0, r3, r0
    1348:	00005a01 	andeq	r5, r0, r1, lsl #20
    134c:	12010400 	andne	r0, r1, #0, 8
    1350:	07002302 	streq	r2, [r0, -r2, lsl #6]
    1354:	0000125f 	andeq	r1, r0, pc, asr r2
    1358:	5a012103 	bpl	4976c <__standby_start+0x4976c>
    135c:	04000000 	streq	r0, [r0], #-0
    1360:	23021101 	movwcs	r1, #8449	; 0x2101
    1364:	0c530700 	mrrceq	7, 0, r0, r3, cr0
    1368:	22030000 	andcs	r0, r3, #0
    136c:	00005a01 	andeq	r5, r0, r1, lsl #20
    1370:	10010400 	andne	r0, r1, r0, lsl #8
    1374:	07002302 	streq	r2, [r0, -r2, lsl #6]
    1378:	00000fee 	andeq	r0, r0, lr, ror #31
    137c:	5a012303 	bpl	49f90 <__standby_start+0x49f90>
    1380:	04000000 	streq	r0, [r0], #-0
    1384:	23020e02 	movwcs	r0, #11778	; 0x2e02
    1388:	05320700 	ldreq	r0, [r2, #-1792]!	; 0xfffff900
    138c:	24030000 	strcs	r0, [r3], #-0
    1390:	00005a01 	andeq	r5, r0, r1, lsl #20
    1394:	0d010400 	cfstrseq	mvf0, [r1, #-0]
    1398:	07002302 	streq	r2, [r0, -r2, lsl #6]
    139c:	00000ff8 	strdeq	r0, [r0], -r8
    13a0:	5a012503 	bpl	4a7b4 <__standby_start+0x4a7b4>
    13a4:	04000000 	streq	r0, [r0], #-0
    13a8:	23020c01 	movwcs	r0, #11265	; 0x2c01
    13ac:	0dc90700 	stcleq	7, cr0, [r9]
    13b0:	26030000 	strcs	r0, [r3], -r0
    13b4:	00005a01 	andeq	r5, r0, r1, lsl #20
    13b8:	0b010400 	bleq	423c0 <__standby_start+0x423c0>
    13bc:	07002302 	streq	r2, [r0, -r2, lsl #6]
    13c0:	00001002 	andeq	r1, r0, r2
    13c4:	5a012703 	bpl	4afd8 <__standby_start+0x4afd8>
    13c8:	04000000 	streq	r0, [r0], #-0
    13cc:	2302000b 	movwcs	r0, #8203	; 0x200b
    13d0:	4e080000 	cdpmi	0, 0, cr0, cr8, cr0, {0}
    13d4:	03000009 	movweq	r0, #9
    13d8:	0d430128 	stfeqe	f0, [r3, #-160]	; 0xffffff60
    13dc:	e9090000 	stmdb	r9, {}	; <UNPREDICTABLE>
    13e0:	04000013 	streq	r0, [r0], #-19	; 0xffffffed
    13e4:	99012b03 	stmdbls	r1, {r0, r1, r8, r9, fp, sp}
    13e8:	0700000f 	streq	r0, [r0, -pc]
    13ec:	00000f5e 	andeq	r0, r0, lr, asr pc
    13f0:	5a012d03 	bpl	4c804 <__standby_start+0x4c804>
    13f4:	04000000 	streq	r0, [r0], #-0
    13f8:	23021f01 	movwcs	r1, #12033	; 0x2f01
    13fc:	0b130700 	bleq	4c3004 <__standby_start+0x4c3004>
    1400:	2e030000 	cdpcs	0, 0, cr0, cr3, cr0, {0}
    1404:	00005a01 	andeq	r5, r0, r1, lsl #20
    1408:	1e010400 	cfcpysne	mvf0, mvf1
    140c:	07002302 	streq	r2, [r0, -r2, lsl #6]
    1410:	0000079e 	muleq	r0, lr, r7
    1414:	5a012f03 	bpl	4d028 <__standby_start+0x4d028>
    1418:	04000000 	streq	r0, [r0], #-0
    141c:	23021d01 	movwcs	r1, #11521	; 0x2d01
    1420:	10570700 	subsne	r0, r7, r0, lsl #14
    1424:	30030000 	andcc	r0, r3, r0
    1428:	00005a01 	andeq	r5, r0, r1, lsl #20
    142c:	1c010400 	cfstrsne	mvf0, [r1], {-0}
    1430:	07002302 	streq	r2, [r0, -r2, lsl #6]
    1434:	00000fda 	ldrdeq	r0, [r0], -sl
    1438:	5a013103 	bpl	4d84c <__standby_start+0x4d84c>
    143c:	04000000 	streq	r0, [r0], #-0
    1440:	23021b01 	movwcs	r1, #11009	; 0x2b01
    1444:	05510700 	ldrbeq	r0, [r1, #-1792]	; 0xfffff900
    1448:	32030000 	andcc	r0, r3, #0
    144c:	00005a01 	andeq	r5, r0, r1, lsl #20
    1450:	1a010400 	bne	42458 <__standby_start+0x42458>
    1454:	07002302 	streq	r2, [r0, -r2, lsl #6]
    1458:	00000e20 	andeq	r0, r0, r0, lsr #28
    145c:	5a013303 	bpl	4e070 <__standby_start+0x4e070>
    1460:	04000000 	streq	r0, [r0], #-0
    1464:	23021901 	movwcs	r1, #10497	; 0x2901
    1468:	089f0700 	ldmeq	pc, {r8, r9, sl}	; <UNPREDICTABLE>
    146c:	34030000 	strcc	r0, [r3], #-0
    1470:	00005a01 	andeq	r5, r0, r1, lsl #20
    1474:	18010400 	stmdane	r1, {sl}
    1478:	07002302 	streq	r2, [r0, -r2, lsl #6]
    147c:	00000fe4 	andeq	r0, r0, r4, ror #31
    1480:	5a013503 	bpl	4e894 <__standby_start+0x4e894>
    1484:	04000000 	streq	r0, [r0], #-0
    1488:	23021602 	movwcs	r1, #9730	; 0x2602
    148c:	0a1d0700 	beq	743094 <__standby_start+0x743094>
    1490:	36030000 	strcc	r0, [r3], -r0
    1494:	00005a01 	andeq	r5, r0, r1, lsl #20
    1498:	15010400 	strne	r0, [r1, #-1024]	; 0xfffffc00
    149c:	07002302 	streq	r2, [r0, -r2, lsl #6]
    14a0:	00000fee 	andeq	r0, r0, lr, ror #31
    14a4:	5a013703 	bpl	4f0b8 <__standby_start+0x4f0b8>
    14a8:	04000000 	streq	r0, [r0], #-0
    14ac:	23020015 	movwcs	r0, #8213	; 0x2015
    14b0:	31080000 	tstcc	r8, r0
    14b4:	0300000d 	movweq	r0, #13
    14b8:	0ec50138 	mcreq	1, 6, r0, cr5, cr8, {1}
    14bc:	f4090000 	vst4.8	{d0-d3}, [r9], r0
    14c0:	04000012 	streq	r0, [r0], #-18	; 0xffffffee
    14c4:	f7013b03 			; <UNDEFINED> instruction: 0xf7013b03
    14c8:	07000010 	smladeq	r0, r0, r0, r0
    14cc:	00000870 	andeq	r0, r0, r0, ror r8
    14d0:	5a013d03 	bpl	508e4 <__standby_start+0x508e4>
    14d4:	04000000 	streq	r0, [r0], #-0
    14d8:	23021f01 	movwcs	r1, #12033	; 0x2f01
    14dc:	13660700 	cmnne	r6, #0, 14
    14e0:	3e030000 	cdpcc	0, 0, cr0, cr3, cr0, {0}
    14e4:	00005a01 	andeq	r5, r0, r1, lsl #20
    14e8:	1e010400 	cfcpysne	mvf0, mvf1
    14ec:	07002302 	streq	r2, [r0, -r2, lsl #6]
    14f0:	00000d28 	andeq	r0, r0, r8, lsr #26
    14f4:	5a013f03 	bpl	51108 <__standby_start+0x51108>
    14f8:	04000000 	streq	r0, [r0], #-0
    14fc:	23021d01 	movwcs	r1, #11521	; 0x2d01
    1500:	0fda0700 	svceq	0x00da0700
    1504:	40030000 	andmi	r0, r3, r0
    1508:	00005a01 	andeq	r5, r0, r1, lsl #20
    150c:	1c010400 	cfstrsne	mvf0, [r1], {-0}
    1510:	07002302 	streq	r2, [r0, -r2, lsl #6]
    1514:	00000914 	andeq	r0, r0, r4, lsl r9
    1518:	5a014103 	bpl	5192c <__standby_start+0x5192c>
    151c:	04000000 	streq	r0, [r0], #-0
    1520:	23021b01 	movwcs	r1, #11009	; 0x2b01
    1524:	05d30700 	ldrbeq	r0, [r3, #1792]	; 0x700
    1528:	42030000 	andmi	r0, r3, #0
    152c:	00005a01 	andeq	r5, r0, r1, lsl #20
    1530:	1a010400 	bne	42538 <__standby_start+0x42538>
    1534:	07002302 	streq	r2, [r0, -r2, lsl #6]
    1538:	00000902 	andeq	r0, r0, r2, lsl #18
    153c:	5a014303 	bpl	52150 <__standby_start+0x52150>
    1540:	04000000 	streq	r0, [r0], #-0
    1544:	23021901 	movwcs	r1, #10497	; 0x2901
    1548:	13c30700 	bicne	r0, r3, #0, 14
    154c:	44030000 	strmi	r0, [r3], #-0
    1550:	00005a01 	andeq	r5, r0, r1, lsl #20
    1554:	18010400 	stmdane	r1, {sl}
    1558:	07002302 	streq	r2, [r0, -r2, lsl #6]
    155c:	00000fe4 	andeq	r0, r0, r4, ror #31
    1560:	5a014503 	bpl	52974 <__standby_start+0x52974>
    1564:	04000000 	streq	r0, [r0], #-0
    1568:	23021008 	movwcs	r1, #8200	; 0x2008
    156c:	12e20700 	rscne	r0, r2, #0, 14
    1570:	46030000 	strmi	r0, [r3], -r0
    1574:	00005a01 	andeq	r5, r0, r1, lsl #20
    1578:	0f010400 	svceq	0x00010400
    157c:	07002302 	streq	r2, [r0, -r2, lsl #6]
    1580:	00000cd0 	ldrdeq	r0, [r0], -r0	; <UNPREDICTABLE>
    1584:	5a014703 	bpl	53198 <__standby_start+0x53198>
    1588:	04000000 	streq	r0, [r0], #-0
    158c:	23020e01 	movwcs	r0, #11777	; 0x2e01
    1590:	07790700 	ldrbeq	r0, [r9, -r0, lsl #14]!
    1594:	48030000 	stmdami	r3, {}	; <UNPREDICTABLE>
    1598:	00005a01 	andeq	r5, r0, r1, lsl #20
    159c:	0d010400 	cfstrseq	mvf0, [r1, #-0]
    15a0:	07002302 	streq	r2, [r0, -r2, lsl #6]
    15a4:	00001255 	andeq	r1, r0, r5, asr r2
    15a8:	5a014903 	bpl	539bc <__standby_start+0x539bc>
    15ac:	04000000 	streq	r0, [r0], #-0
    15b0:	23020c01 	movwcs	r0, #11265	; 0x2c01
    15b4:	0c240700 	stceq	7, cr0, [r4], #-0
    15b8:	4a030000 	bmi	c15c0 <__standby_start+0xc15c0>
    15bc:	00005a01 	andeq	r5, r0, r1, lsl #20
    15c0:	0b010400 	bleq	425c8 <__standby_start+0x425c8>
    15c4:	07002302 	streq	r2, [r0, -r2, lsl #6]
    15c8:	00000656 	andeq	r0, r0, r6, asr r6
    15cc:	5a014b03 	bpl	541e0 <__standby_start+0x541e0>
    15d0:	04000000 	streq	r0, [r0], #-0
    15d4:	23020a01 	movwcs	r0, #10753	; 0x2a01
    15d8:	11780700 	cmnne	r8, r0, lsl #14
    15dc:	4c030000 	stcmi	0, cr0, [r3], {-0}
    15e0:	00005a01 	andeq	r5, r0, r1, lsl #20
    15e4:	09010400 	stmdbeq	r1, {sl}
    15e8:	07002302 	streq	r2, [r0, -r2, lsl #6]
    15ec:	00000b86 	andeq	r0, r0, r6, lsl #23
    15f0:	5a014d03 	bpl	54a04 <__standby_start+0x54a04>
    15f4:	04000000 	streq	r0, [r0], #-0
    15f8:	23020801 	movwcs	r0, #10241	; 0x2801
    15fc:	0fee0700 	svceq	0x00ee0700
    1600:	4e030000 	cdpmi	0, 0, cr0, cr3, cr0, {0}
    1604:	00005a01 	andeq	r5, r0, r1, lsl #20
    1608:	00080400 	andeq	r0, r8, r0, lsl #8
    160c:	00002302 	andeq	r2, r0, r2, lsl #6
    1610:	000bde08 	andeq	sp, fp, r8, lsl #28
    1614:	014f0300 	mrseq	r0, SPSR
    1618:	00000fa5 	andeq	r0, r0, r5, lsr #31
    161c:	000b4509 	andeq	r4, fp, r9, lsl #10
    1620:	54030400 	strpl	r0, [r3], #-1024	; 0xfffffc00
    1624:	00118f01 	andseq	r8, r1, r1, lsl #30
    1628:	13a40700 			; <UNDEFINED> instruction: 0x13a40700
    162c:	56030000 	strpl	r0, [r3], -r0
    1630:	00005a01 	andeq	r5, r0, r1, lsl #20
    1634:	1c040400 	cfstrsne	mvf0, [r4], {-0}
    1638:	07002302 	streq	r2, [r0, -r2, lsl #6]
    163c:	00000fda 	ldrdeq	r0, [r0], -sl
    1640:	5a015703 	bpl	57254 <__standby_start+0x57254>
    1644:	04000000 	streq	r0, [r0], #-0
    1648:	2302100c 	movwcs	r1, #8204	; 0x200c
    164c:	05110700 	ldreq	r0, [r1, #-1792]	; 0xfffff900
    1650:	58030000 	stmdapl	r3, {}	; <UNPREDICTABLE>
    1654:	00005a01 	andeq	r5, r0, r1, lsl #20
    1658:	0e020400 	cfcpyseq	mvf0, mvf2
    165c:	07002302 	streq	r2, [r0, -r2, lsl #6]
    1660:	00000fe4 	andeq	r0, r0, r4, ror #31
    1664:	5a015903 	bpl	57a78 <__standby_start+0x57a78>
    1668:	04000000 	streq	r0, [r0], #-0
    166c:	23020806 	movwcs	r0, #10246	; 0x2806
    1670:	13550700 	cmpne	r5, #0, 14
    1674:	5a030000 	bpl	c167c <__standby_start+0xc167c>
    1678:	00005a01 	andeq	r5, r0, r1, lsl #20
    167c:	06020400 	streq	r0, [r2], -r0, lsl #8
    1680:	07002302 	streq	r2, [r0, -r2, lsl #6]
    1684:	00000fee 	andeq	r0, r0, lr, ror #31
    1688:	5a015b03 	bpl	5829c <__standby_start+0x5829c>
    168c:	04000000 	streq	r0, [r0], #-0
    1690:	23020105 	movwcs	r0, #8453	; 0x2105
    1694:	11b90700 			; <UNDEFINED> instruction: 0x11b90700
    1698:	5c030000 	stcpl	0, cr0, [r3], {-0}
    169c:	00005a01 	andeq	r5, r0, r1, lsl #20
    16a0:	00010400 	andeq	r0, r1, r0, lsl #8
    16a4:	00002302 	andeq	r2, r0, r2, lsl #6
    16a8:	000e5808 	andeq	r5, lr, r8, lsl #16
    16ac:	015d0300 	cmpeq	sp, r0, lsl #6
    16b0:	00001103 	andeq	r1, r0, r3, lsl #2
    16b4:	00059509 	andeq	r9, r5, r9, lsl #10
    16b8:	62030400 	andvs	r0, r3, #0, 8
    16bc:	0011f101 	andseq	pc, r1, r1, lsl #2
    16c0:	0fda0700 	svceq	0x00da0700
    16c4:	64030000 	strvs	r0, [r3], #-0
    16c8:	00005a01 	andeq	r5, r0, r1, lsl #20
    16cc:	10100400 	andsne	r0, r0, r0, lsl #8
    16d0:	07002302 	streq	r2, [r0, -r2, lsl #6]
    16d4:	000013a4 	andeq	r1, r0, r4, lsr #7
    16d8:	5a016503 	bpl	5aaec <__standby_start+0x5aaec>
    16dc:	04000000 	streq	r0, [r0], #-0
    16e0:	23020e02 	movwcs	r0, #11778	; 0x2e02
    16e4:	0fe40700 	svceq	0x00e40700
    16e8:	66030000 	strvs	r0, [r3], -r0
    16ec:	00005a01 	andeq	r5, r0, r1, lsl #20
    16f0:	010d0400 	tsteq	sp, r0, lsl #8
    16f4:	07002302 	streq	r2, [r0, -r2, lsl #6]
    16f8:	000011b9 			; <UNDEFINED> instruction: 0x000011b9
    16fc:	5a016703 	bpl	5b310 <__standby_start+0x5b310>
    1700:	04000000 	streq	r0, [r0], #-0
    1704:	23020001 	movwcs	r0, #8193	; 0x2001
    1708:	89080000 	stmdbhi	r8, {}	; <UNPREDICTABLE>
    170c:	03000007 	movweq	r0, #7
    1710:	119b0169 	orrsne	r0, fp, r9, ror #2
    1714:	76090000 	strvc	r0, [r9], -r0
    1718:	04000010 	streq	r0, [r0], #-16
    171c:	89016c03 	stmdbhi	r1, {r0, r1, sl, fp, sp, lr}
    1720:	07000012 	smladeq	r0, r2, r0, r0
    1724:	000013a4 	andeq	r1, r0, r4, lsr #7
    1728:	5a016e03 	bpl	5cf3c <__standby_start+0x5cf3c>
    172c:	04000000 	streq	r0, [r0], #-0
    1730:	23021b05 	movwcs	r1, #11013	; 0x2b05
    1734:	0fda0700 	svceq	0x00da0700
    1738:	6f030000 	svcvs	0x00030000
    173c:	00005a01 	andeq	r5, r0, r1, lsl #20
    1740:	100b0400 	andne	r0, fp, r0, lsl #8
    1744:	07002302 	streq	r2, [r0, -r2, lsl #6]
    1748:	00000511 	andeq	r0, r0, r1, lsl r5
    174c:	5a017003 	bpl	5d760 <__standby_start+0x5d760>
    1750:	04000000 	streq	r0, [r0], #-0
    1754:	23020e02 	movwcs	r0, #11778	; 0x2e02
    1758:	0fe40700 	svceq	0x00e40700
    175c:	71030000 	tstvc	r3, r0
    1760:	00005a01 	andeq	r5, r0, r1, lsl #20
    1764:	08060400 	stmdaeq	r6, {sl}
    1768:	07002302 	streq	r2, [r0, -r2, lsl #6]
    176c:	00001355 	andeq	r1, r0, r5, asr r3
    1770:	5a017203 	bpl	5df84 <__standby_start+0x5df84>
    1774:	04000000 	streq	r0, [r0], #-0
    1778:	23020602 	movwcs	r0, #9730	; 0x2602
    177c:	0fee0700 	svceq	0x00ee0700
    1780:	73030000 	movwvc	r0, #12288	; 0x3000
    1784:	00005a01 	andeq	r5, r0, r1, lsl #20
    1788:	01050400 	tsteq	r5, r0, lsl #8
    178c:	07002302 	streq	r2, [r0, -r2, lsl #6]
    1790:	000011b9 			; <UNDEFINED> instruction: 0x000011b9
    1794:	5a017403 	bpl	5e7a8 <__standby_start+0x5e7a8>
    1798:	04000000 	streq	r0, [r0], #-0
    179c:	23020001 	movwcs	r0, #8193	; 0x2001
    17a0:	ee080000 	cdp	0, 0, cr0, cr8, cr0, {0}
    17a4:	03000009 	movweq	r0, #9
    17a8:	11fd0175 	mvnsne	r0, r5, ror r1
    17ac:	fb090000 	blx	2417b6 <__standby_start+0x2417b6>
    17b0:	0400000a 	streq	r0, [r0], #-10
    17b4:	eb017803 	bl	5f7c8 <__standby_start+0x5f7c8>
    17b8:	07000012 	smladeq	r0, r2, r0, r0
    17bc:	00000fda 	ldrdeq	r0, [r0], -sl
    17c0:	5a017a03 	bpl	5ffd4 <__standby_start+0x5ffd4>
    17c4:	04000000 	streq	r0, [r0], #-0
    17c8:	23020818 	movwcs	r0, #10264	; 0x2818
    17cc:	13550700 	cmpne	r5, #0, 14
    17d0:	7b030000 	blvc	c17d8 <__standby_start+0xc17d8>
    17d4:	00005a01 	andeq	r5, r0, r1, lsl #20
    17d8:	07010400 	streq	r0, [r1, -r0, lsl #8]
    17dc:	07002302 	streq	r2, [r0, -r2, lsl #6]
    17e0:	00000fe4 	andeq	r0, r0, r4, ror #31
    17e4:	5a017c03 	bpl	607f8 <__standby_start+0x607f8>
    17e8:	04000000 	streq	r0, [r0], #-0
    17ec:	23020106 	movwcs	r0, #8454	; 0x2106
    17f0:	11b90700 			; <UNDEFINED> instruction: 0x11b90700
    17f4:	7d030000 	stcvc	0, cr0, [r3, #-0]
    17f8:	00005a01 	andeq	r5, r0, r1, lsl #20
    17fc:	00010400 	andeq	r0, r1, r0, lsl #8
    1800:	00002302 	andeq	r2, r0, r2, lsl #6
    1804:	0008e808 	andeq	lr, r8, r8, lsl #16
    1808:	017e0300 	cmneq	lr, r0, lsl #6
    180c:	00001295 	muleq	r0, r5, r2
    1810:	000adc09 	andeq	sp, sl, r9, lsl #24
    1814:	81030400 	tsthi	r3, r0, lsl #8
    1818:	0013b901 	andseq	fp, r3, r1, lsl #18
    181c:	08790700 	ldmdaeq	r9!, {r8, r9, sl}^
    1820:	83030000 	movwhi	r0, #12288	; 0x3000
    1824:	00005a01 	andeq	r5, r0, r1, lsl #20
    1828:	1f010400 	svcne	0x00010400
    182c:	07002302 	streq	r2, [r0, -r2, lsl #6]
    1830:	0000122b 	andeq	r1, r0, fp, lsr #4
    1834:	5a018403 	bpl	62848 <__standby_start+0x62848>
    1838:	04000000 	streq	r0, [r0], #-0
    183c:	23021e01 	movwcs	r1, #11777	; 0x2e01
    1840:	0b320700 	bleq	c83448 <__standby_start+0xc83448>
    1844:	85030000 	strhi	r0, [r3, #-0]
    1848:	00005a01 	andeq	r5, r0, r1, lsl #20
    184c:	1d010400 	cfstrsne	mvf0, [r1, #-0]
    1850:	07002302 	streq	r2, [r0, -r2, lsl #6]
    1854:	00000fda 	ldrdeq	r0, [r0], -sl
    1858:	5a018603 	bpl	6306c <__standby_start+0x6306c>
    185c:	04000000 	streq	r0, [r0], #-0
    1860:	23021c01 	movwcs	r1, #11265	; 0x2c01
    1864:	12100700 	andsne	r0, r0, #0, 14
    1868:	87030000 	strhi	r0, [r3, -r0]
    186c:	00005a01 	andeq	r5, r0, r1, lsl #20
    1870:	1b010400 	blne	42878 <__standby_start+0x42878>
    1874:	07002302 	streq	r2, [r0, -r2, lsl #6]
    1878:	00000fe4 	andeq	r0, r0, r4, ror #31
    187c:	5a018803 	bpl	63890 <__standby_start+0x63890>
    1880:	04000000 	streq	r0, [r0], #-0
    1884:	23021a01 	movwcs	r1, #10753	; 0x2a01
    1888:	11b40700 			; <UNDEFINED> instruction: 0x11b40700
    188c:	89030000 	stmdbhi	r3, {}	; <UNPREDICTABLE>
    1890:	00005a01 	andeq	r5, r0, r1, lsl #20
    1894:	19010400 	stmdbne	r1, {sl}
    1898:	07002302 	streq	r2, [r0, -r2, lsl #6]
    189c:	000006b4 			; <UNDEFINED> instruction: 0x000006b4
    18a0:	5a018a03 	bpl	640b4 <__standby_start+0x640b4>
    18a4:	04000000 	streq	r0, [r0], #-0
    18a8:	23021801 	movwcs	r1, #10241	; 0x2801
    18ac:	13b40700 			; <UNDEFINED> instruction: 0x13b40700
    18b0:	8b030000 	blhi	c18b8 <__standby_start+0xc18b8>
    18b4:	00005a01 	andeq	r5, r0, r1, lsl #20
    18b8:	17010400 	strne	r0, [r1, -r0, lsl #8]
    18bc:	07002302 	streq	r2, [r0, -r2, lsl #6]
    18c0:	00000fee 	andeq	r0, r0, lr, ror #31
    18c4:	5a018c03 	bpl	648d8 <__standby_start+0x648d8>
    18c8:	04000000 	streq	r0, [r0], #-0
    18cc:	23020017 	movwcs	r0, #8215	; 0x2017
    18d0:	0e080000 	cdpeq	0, 0, cr0, cr8, cr0, {0}
    18d4:	03000007 	movweq	r0, #7
    18d8:	12f7018d 	rscsne	r0, r7, #1073741859	; 0x40000023
    18dc:	28090000 	stmdacs	r9, {}	; <UNPREDICTABLE>
    18e0:	0400000e 	streq	r0, [r0], #-14
    18e4:	09019003 	stmdbeq	r1, {r0, r1, ip, pc}
    18e8:	07000014 	smladeq	r0, r4, r0, r0
    18ec:	000003aa 	andeq	r0, r0, sl, lsr #7
    18f0:	5a019203 	bpl	66104 <__standby_start+0x66104>
    18f4:	04000000 	streq	r0, [r0], #-0
    18f8:	23021f01 	movwcs	r1, #12033	; 0x2f01
    18fc:	11b90700 			; <UNDEFINED> instruction: 0x11b90700
    1900:	93030000 	movwls	r0, #12288	; 0x3000
    1904:	00005a01 	andeq	r5, r0, r1, lsl #20
    1908:	1e010400 	cfcpysne	mvf0, mvf1
    190c:	07002302 	streq	r2, [r0, -r2, lsl #6]
    1910:	00000356 	andeq	r0, r0, r6, asr r3
    1914:	5a019403 	bpl	66928 <__standby_start+0x66928>
    1918:	04000000 	streq	r0, [r0], #-0
    191c:	2302001e 	movwcs	r0, #8222	; 0x201e
    1920:	ad080000 	stcge	0, cr0, [r8, #-0]
    1924:	03000009 	movweq	r0, #9
    1928:	13c50195 	bicne	r0, r5, #1073741861	; 0x40000025
    192c:	98090000 	stmdals	r9, {}	; <UNPREDICTABLE>
    1930:	04000004 	streq	r0, [r0], #-4
    1934:	55019803 	strpl	r9, [r1, #-2051]	; 0xfffff7fd
    1938:	07000015 	smladeq	r0, r5, r0, r0
    193c:	00000ba7 	andeq	r0, r0, r7, lsr #23
    1940:	5a019a03 	bpl	68154 <__standby_start+0x68154>
    1944:	04000000 	streq	r0, [r0], #-0
    1948:	23021f01 	movwcs	r1, #12033	; 0x2f01
    194c:	13d50700 	bicsne	r0, r5, #0, 14
    1950:	9b030000 	blls	c1958 <__standby_start+0xc1958>
    1954:	00005a01 	andeq	r5, r0, r1, lsl #20
    1958:	1e010400 	cfcpysne	mvf0, mvf1
    195c:	07002302 	streq	r2, [r0, -r2, lsl #6]
    1960:	00001269 	andeq	r1, r0, r9, ror #4
    1964:	5a019c03 	bpl	68978 <__standby_start+0x68978>
    1968:	04000000 	streq	r0, [r0], #-0
    196c:	23021d01 	movwcs	r1, #11521	; 0x2d01
    1970:	04260700 	strteq	r0, [r6], #-1792	; 0xfffff900
    1974:	9d030000 	stcls	0, cr0, [r3, #-0]
    1978:	00005a01 	andeq	r5, r0, r1, lsl #20
    197c:	1c010400 	cfstrsne	mvf0, [r1], {-0}
    1980:	07002302 	streq	r2, [r0, -r2, lsl #6]
    1984:	000004b1 			; <UNDEFINED> instruction: 0x000004b1
    1988:	5a019e03 	bpl	6919c <__standby_start+0x6919c>
    198c:	04000000 	streq	r0, [r0], #-0
    1990:	23021b01 	movwcs	r1, #11009	; 0x2b01
    1994:	0a3a0700 	beq	e8359c <__standby_start+0xe8359c>
    1998:	9f030000 	svcls	0x00030000
    199c:	00005a01 	andeq	r5, r0, r1, lsl #20
    19a0:	1a010400 	bne	429a8 <__standby_start+0x429a8>
    19a4:	07002302 	streq	r2, [r0, -r2, lsl #6]
    19a8:	00000446 	andeq	r0, r0, r6, asr #8
    19ac:	5a01a003 	bpl	699c0 <__standby_start+0x699c0>
    19b0:	04000000 	streq	r0, [r0], #-0
    19b4:	23021901 	movwcs	r1, #10497	; 0x2901
    19b8:	0fda0700 	svceq	0x00da0700
    19bc:	a1030000 	tstge	r3, r0
    19c0:	00005a01 	andeq	r5, r0, r1, lsl #20
    19c4:	11080400 	tstne	r8, r0, lsl #8
    19c8:	07002302 	streq	r2, [r0, -r2, lsl #6]
    19cc:	00000942 	andeq	r0, r0, r2, asr #18
    19d0:	5a01a203 	bpl	6a1e4 <__standby_start+0x6a1e4>
    19d4:	04000000 	streq	r0, [r0], #-0
    19d8:	23021001 	movwcs	r1, #8193	; 0x2001
    19dc:	0fe40700 	svceq	0x00e40700
    19e0:	a3030000 	movwge	r0, #12288	; 0x3000
    19e4:	00005a01 	andeq	r5, r0, r1, lsl #20
    19e8:	08080400 	stmdaeq	r8, {sl}
    19ec:	07002302 	streq	r2, [r0, -r2, lsl #6]
    19f0:	00000c53 	andeq	r0, r0, r3, asr ip
    19f4:	5a01a403 	bpl	6aa08 <__standby_start+0x6aa08>
    19f8:	04000000 	streq	r0, [r0], #-0
    19fc:	23020701 	movwcs	r0, #9985	; 0x2701
    1a00:	125f0700 	subsne	r0, pc, #0, 14
    1a04:	a5030000 	strge	r0, [r3, #-0]
    1a08:	00005a01 	andeq	r5, r0, r1, lsl #20
    1a0c:	06010400 	streq	r0, [r1], -r0, lsl #8
    1a10:	07002302 	streq	r2, [r0, -r2, lsl #6]
    1a14:	00000f8a 	andeq	r0, r0, sl, lsl #31
    1a18:	5a01a603 	bpl	6b22c <__standby_start+0x6b22c>
    1a1c:	04000000 	streq	r0, [r0], #-0
    1a20:	23020501 	movwcs	r0, #9473	; 0x2501
    1a24:	08220700 	stmdaeq	r2!, {r8, r9, sl}
    1a28:	a7030000 	strge	r0, [r3, -r0]
    1a2c:	00005a01 	andeq	r5, r0, r1, lsl #20
    1a30:	04010400 	streq	r0, [r1], #-1024	; 0xfffffc00
    1a34:	07002302 	streq	r2, [r0, -r2, lsl #6]
    1a38:	00000530 	andeq	r0, r0, r0, lsr r5
    1a3c:	5a01a803 	bpl	6ba50 <__standby_start+0x6ba50>
    1a40:	04000000 	streq	r0, [r0], #-0
    1a44:	23020301 	movwcs	r0, #8961	; 0x2301
    1a48:	0d570700 	ldcleq	7, cr0, [r7, #-0]
    1a4c:	a9030000 	stmdbge	r3, {}	; <UNPREDICTABLE>
    1a50:	00005a01 	andeq	r5, r0, r1, lsl #20
    1a54:	02010400 	andeq	r0, r1, #0, 8
    1a58:	07002302 	streq	r2, [r0, -r2, lsl #6]
    1a5c:	00000fee 	andeq	r0, r0, lr, ror #31
    1a60:	5a01aa03 	bpl	6c274 <__standby_start+0x6c274>
    1a64:	04000000 	streq	r0, [r0], #-0
    1a68:	23020002 	movwcs	r0, #8194	; 0x2002
    1a6c:	d3080000 	movwle	r0, #32768	; 0x8000
    1a70:	03000004 	movweq	r0, #4
    1a74:	141501ab 	ldrne	r0, [r5], #-427	; 0xfffffe55
    1a78:	86090000 	strhi	r0, [r9], -r0
    1a7c:	04000004 	streq	r0, [r0], #-4
    1a80:	db01b003 	blle	6da94 <__standby_start+0x6da94>
    1a84:	07000015 	smladeq	r0, r5, r0, r0
    1a88:	000013a4 	andeq	r1, r0, r4, lsr #7
    1a8c:	5a01b203 	bpl	6e2a0 <__standby_start+0x6e2a0>
    1a90:	04000000 	streq	r0, [r0], #-0
    1a94:	23021c04 	movwcs	r1, #11268	; 0x2c04
    1a98:	0fda0700 	svceq	0x00da0700
    1a9c:	b3030000 	movwlt	r0, #12288	; 0x3000
    1aa0:	00005a01 	andeq	r5, r0, r1, lsl #20
    1aa4:	08140400 	ldmdaeq	r4, {sl}
    1aa8:	07002302 	streq	r2, [r0, -r2, lsl #6]
    1aac:	00001355 	andeq	r1, r0, r5, asr r3
    1ab0:	5a01b403 	bpl	6eac4 <__standby_start+0x6eac4>
    1ab4:	04000000 	streq	r0, [r0], #-0
    1ab8:	23020602 	movwcs	r0, #9730	; 0x2602
    1abc:	0fe40700 	svceq	0x00e40700
    1ac0:	b5030000 	strlt	r0, [r3, #-0]
    1ac4:	00005a01 	andeq	r5, r0, r1, lsl #20
    1ac8:	02040400 	andeq	r0, r4, #0, 8
    1acc:	07002302 	streq	r2, [r0, -r2, lsl #6]
    1ad0:	000003aa 	andeq	r0, r0, sl, lsr #7
    1ad4:	5a01b603 	bpl	6f2e8 <__standby_start+0x6f2e8>
    1ad8:	04000000 	streq	r0, [r0], #-0
    1adc:	23020101 	movwcs	r0, #8449	; 0x2101
    1ae0:	11b90700 			; <UNDEFINED> instruction: 0x11b90700
    1ae4:	b7030000 	strlt	r0, [r3, -r0]
    1ae8:	00005a01 	andeq	r5, r0, r1, lsl #20
    1aec:	00010400 	andeq	r0, r1, r0, lsl #8
    1af0:	00002302 	andeq	r2, r0, r2, lsl #6
    1af4:	0010fa08 	andseq	pc, r0, r8, lsl #20
    1af8:	01b90300 			; <UNDEFINED> instruction: 0x01b90300
    1afc:	00001561 	andeq	r1, r0, r1, ror #10
    1b00:	00128b09 	andseq	r8, r2, r9, lsl #22
    1b04:	be030400 	cfcpyslt	mvf0, mvf3
    1b08:	00164f01 	andseq	r4, r6, r1, lsl #30
    1b0c:	0fda0700 	svceq	0x00da0700
    1b10:	c0030000 	andgt	r0, r3, r0
    1b14:	00005a01 	andeq	r5, r0, r1, lsl #20
    1b18:	08180400 	ldmdaeq	r8, {sl}
    1b1c:	07002302 	streq	r2, [r0, -r2, lsl #6]
    1b20:	00001355 	andeq	r1, r0, r5, asr r3
    1b24:	5a01c103 	bpl	71f38 <__standby_start+0x71f38>
    1b28:	04000000 	streq	r0, [r0], #-0
    1b2c:	23020602 	movwcs	r0, #9730	; 0x2602
    1b30:	0fe40700 	svceq	0x00e40700
    1b34:	c2030000 	andgt	r0, r3, #0
    1b38:	00005a01 	andeq	r5, r0, r1, lsl #20
    1b3c:	02040400 	andeq	r0, r4, #0, 8
    1b40:	07002302 	streq	r2, [r0, -r2, lsl #6]
    1b44:	000003aa 	andeq	r0, r0, sl, lsr #7
    1b48:	5a01c303 	bpl	7275c <__standby_start+0x7275c>
    1b4c:	04000000 	streq	r0, [r0], #-0
    1b50:	23020101 	movwcs	r0, #8449	; 0x2101
    1b54:	11b90700 			; <UNDEFINED> instruction: 0x11b90700
    1b58:	c4030000 	strgt	r0, [r3], #-0
    1b5c:	00005a01 	andeq	r5, r0, r1, lsl #20
    1b60:	00010400 	andeq	r0, r1, r0, lsl #8
    1b64:	00002302 	andeq	r2, r0, r2, lsl #6
    1b68:	0005e808 	andeq	lr, r5, r8, lsl #16
    1b6c:	01c60300 	biceq	r0, r6, r0, lsl #6
    1b70:	000015e7 	andeq	r1, r0, r7, ror #11
    1b74:	00060f09 	andeq	r0, r6, r9, lsl #30
    1b78:	c9030400 	stmdbgt	r3, {sl}
    1b7c:	0016c301 	andseq	ip, r6, r1, lsl #6
    1b80:	13a40700 			; <UNDEFINED> instruction: 0x13a40700
    1b84:	cb030000 	blgt	c1b8c <__standby_start+0xc1b8c>
    1b88:	00005a01 	andeq	r5, r0, r1, lsl #20
    1b8c:	1c040400 	cfstrsne	mvf0, [r4], {-0}
    1b90:	07002302 	streq	r2, [r0, -r2, lsl #6]
    1b94:	00000fda 	ldrdeq	r0, [r0], -sl
    1b98:	5a01cc03 	bpl	74bac <__standby_start+0x74bac>
    1b9c:	04000000 	streq	r0, [r0], #-0
    1ba0:	23020814 	movwcs	r0, #10260	; 0x2814
    1ba4:	13550700 	cmpne	r5, #0, 14
    1ba8:	cd030000 	stcgt	0, cr0, [r3, #-0]
    1bac:	00005a01 	andeq	r5, r0, r1, lsl #20
    1bb0:	06020400 	streq	r0, [r2], -r0, lsl #8
    1bb4:	07002302 	streq	r2, [r0, -r2, lsl #6]
    1bb8:	00000fe4 	andeq	r0, r0, r4, ror #31
    1bbc:	5a01ce03 	bpl	753d0 <__standby_start+0x753d0>
    1bc0:	04000000 	streq	r0, [r0], #-0
    1bc4:	23020105 	movwcs	r0, #8453	; 0x2105
    1bc8:	11b90700 			; <UNDEFINED> instruction: 0x11b90700
    1bcc:	cf030000 	svcgt	0x00030000
    1bd0:	00005a01 	andeq	r5, r0, r1, lsl #20
    1bd4:	00010400 	andeq	r0, r1, r0, lsl #8
    1bd8:	00002302 	andeq	r2, r0, r2, lsl #6
    1bdc:	0008a708 	andeq	sl, r8, r8, lsl #14
    1be0:	01d00300 	bicseq	r0, r0, r0, lsl #6
    1be4:	0000165b 	andeq	r1, r0, fp, asr r6
    1be8:	000df909 	andeq	pc, sp, r9, lsl #18
    1bec:	d2030400 	andle	r0, r3, #0, 8
    1bf0:	00172501 	andseq	r2, r7, r1, lsl #10
    1bf4:	0fda0700 	svceq	0x00da0700
    1bf8:	d4030000 	strle	r0, [r3], #-0
    1bfc:	00005a01 	andeq	r5, r0, r1, lsl #20
    1c00:	08180400 	ldmdaeq	r8, {sl}
    1c04:	07002302 	streq	r2, [r0, -r2, lsl #6]
    1c08:	00001355 	andeq	r1, r0, r5, asr r3
    1c0c:	5a01d503 	bpl	77020 <__standby_start+0x77020>
    1c10:	04000000 	streq	r0, [r0], #-0
    1c14:	23020701 	movwcs	r0, #9985	; 0x2701
    1c18:	0fe40700 	svceq	0x00e40700
    1c1c:	d6030000 	strle	r0, [r3], -r0
    1c20:	00005a01 	andeq	r5, r0, r1, lsl #20
    1c24:	01060400 	tsteq	r6, r0, lsl #8
    1c28:	07002302 	streq	r2, [r0, -r2, lsl #6]
    1c2c:	000011b9 			; <UNDEFINED> instruction: 0x000011b9
    1c30:	5a01d703 	bpl	77844 <__standby_start+0x77844>
    1c34:	04000000 	streq	r0, [r0], #-0
    1c38:	23020001 	movwcs	r0, #8193	; 0x2001
    1c3c:	f7080000 			; <UNDEFINED> instruction: 0xf7080000
    1c40:	03000011 	movweq	r0, #17
    1c44:	16cf01d8 			; <UNDEFINED> instruction: 0x16cf01d8
    1c48:	87090000 	strhi	r0, [r9, -r0]
    1c4c:	0400000c 	streq	r0, [r0], #-12
    1c50:	e101dd03 	tst	r1, r3, lsl #26
    1c54:	07000017 	smladeq	r0, r7, r0, r0
    1c58:	000013a4 	andeq	r1, r0, r4, lsr #7
    1c5c:	5a01df03 	bpl	79870 <__standby_start+0x79870>
    1c60:	04000000 	streq	r0, [r0], #-0
    1c64:	23021c04 	movwcs	r1, #11268	; 0x2c04
    1c68:	0fda0700 	svceq	0x00da0700
    1c6c:	e0030000 	and	r0, r3, r0
    1c70:	00005a01 	andeq	r5, r0, r1, lsl #20
    1c74:	15070400 	strne	r0, [r7, #-1024]	; 0xfffffc00
    1c78:	07002302 	streq	r2, [r0, -r2, lsl #6]
    1c7c:	0000064a 	andeq	r0, r0, sl, asr #12
    1c80:	5a01e103 	bpl	7a094 <__standby_start+0x7a094>
    1c84:	04000000 	streq	r0, [r0], #-0
    1c88:	23021401 	movwcs	r1, #9217	; 0x2401
    1c8c:	0fe40700 	svceq	0x00e40700
    1c90:	e2030000 	and	r0, r3, #0
    1c94:	00005a01 	andeq	r5, r0, r1, lsl #20
    1c98:	11030400 	tstne	r3, r0, lsl #8
    1c9c:	07002302 	streq	r2, [r0, -r2, lsl #6]
    1ca0:	00001028 	andeq	r1, r0, r8, lsr #32
    1ca4:	5a01e303 	bpl	7a8b8 <__standby_start+0x7a8b8>
    1ca8:	04000000 	streq	r0, [r0], #-0
    1cac:	23021001 	movwcs	r1, #8193	; 0x2001
    1cb0:	0fee0700 	svceq	0x00ee0700
    1cb4:	e4030000 	str	r0, [r3], #-0
    1cb8:	00005a01 	andeq	r5, r0, r1, lsl #20
    1cbc:	08080400 	stmdaeq	r8, {sl}
    1cc0:	07002302 	streq	r2, [r0, -r2, lsl #6]
    1cc4:	00001035 	andeq	r1, r0, r5, lsr r0
    1cc8:	5a01e503 	bpl	7b0dc <__standby_start+0x7b0dc>
    1ccc:	04000000 	streq	r0, [r0], #-0
    1cd0:	23020602 	movwcs	r0, #9730	; 0x2602
    1cd4:	0ff80700 	svceq	0x00f80700
    1cd8:	e6030000 	str	r0, [r3], -r0
    1cdc:	00005a01 	andeq	r5, r0, r1, lsl #20
    1ce0:	01050400 	tsteq	r5, r0, lsl #8
    1ce4:	07002302 	streq	r2, [r0, -r2, lsl #6]
    1ce8:	00000a6f 	andeq	r0, r0, pc, ror #20
    1cec:	5a01e703 	bpl	7b900 <__standby_start+0x7b900>
    1cf0:	04000000 	streq	r0, [r0], #-0
    1cf4:	23020001 	movwcs	r0, #8193	; 0x2001
    1cf8:	6f080000 	svcvs	0x00080000
    1cfc:	0300000f 	movweq	r0, #15
    1d00:	173101e9 	ldrne	r0, [r1, -r9, ror #3]!
    1d04:	df090000 	svcle	0x00090000
    1d08:	04000009 	streq	r0, [r0], #-9
    1d0c:	6701ee03 	strvs	lr, [r1, -r3, lsl #28]
    1d10:	07000018 	smladeq	r0, r8, r0, r0
    1d14:	000013a4 	andeq	r1, r0, r4, lsr #7
    1d18:	5a01f003 	bpl	7dd2c <__standby_start+0x7dd2c>
    1d1c:	04000000 	streq	r0, [r0], #-0
    1d20:	23021b05 	movwcs	r1, #11013	; 0x2b05
    1d24:	0fda0700 	svceq	0x00da0700
    1d28:	f1030000 			; <UNDEFINED> instruction: 0xf1030000
    1d2c:	00005a01 	andeq	r5, r0, r1, lsl #20
    1d30:	08130400 	ldmdaeq	r3, {sl}
    1d34:	07002302 	streq	r2, [r0, -r2, lsl #6]
    1d38:	00001355 	andeq	r1, r0, r5, asr r3
    1d3c:	5a01f203 	bpl	7e550 <__standby_start+0x7e550>
    1d40:	04000000 	streq	r0, [r0], #-0
    1d44:	23020503 	movwcs	r0, #9475	; 0x2503
    1d48:	0fe40700 	svceq	0x00e40700
    1d4c:	f3030000 	vhadd.u8	d0, d3, d0
    1d50:	00005a01 	andeq	r5, r0, r1, lsl #20
    1d54:	02030400 	andeq	r0, r3, #0, 8
    1d58:	07002302 	streq	r2, [r0, -r2, lsl #6]
    1d5c:	000003aa 	andeq	r0, r0, sl, lsr #7
    1d60:	5a01f403 	bpl	7ed74 <__standby_start+0x7ed74>
    1d64:	04000000 	streq	r0, [r0], #-0
    1d68:	23020101 	movwcs	r0, #8449	; 0x2101
    1d6c:	11b90700 			; <UNDEFINED> instruction: 0x11b90700
    1d70:	f5030000 			; <UNDEFINED> instruction: 0xf5030000
    1d74:	00005a01 	andeq	r5, r0, r1, lsl #20
    1d78:	00010400 	andeq	r0, r1, r0, lsl #8
    1d7c:	00002302 	andeq	r2, r0, r2, lsl #6
    1d80:	00091c08 	andeq	r1, r9, r8, lsl #24
    1d84:	01f60300 	mvnseq	r0, r0, lsl #6
    1d88:	000017ed 	andeq	r1, r0, sp, ror #15
    1d8c:	0012b309 	andseq	fp, r2, r9, lsl #6
    1d90:	f9030400 			; <UNDEFINED> instruction: 0xf9030400
    1d94:	0018db01 	andseq	sp, r8, r1, lsl #22
    1d98:	03aa0700 			; <UNDEFINED> instruction: 0x03aa0700
    1d9c:	fb030000 	blx	c1da6 <__standby_start+0xc1da6>
    1da0:	00005a01 	andeq	r5, r0, r1, lsl #20
    1da4:	1f010400 	svcne	0x00010400
    1da8:	07002302 	streq	r2, [r0, -r2, lsl #6]
    1dac:	00000fda 	ldrdeq	r0, [r0], -sl
    1db0:	5a01fc03 	bpl	80dc4 <__standby_start+0x80dc4>
    1db4:	04000000 	streq	r0, [r0], #-0
    1db8:	2302100f 	movwcs	r1, #8207	; 0x200f
    1dbc:	13a40700 			; <UNDEFINED> instruction: 0x13a40700
    1dc0:	fd030000 	stc2	0, cr0, [r3, #-0]
    1dc4:	00005a01 	andeq	r5, r0, r1, lsl #20
    1dc8:	0d030400 	cfstrseq	mvf0, [r3, #-0]
    1dcc:	07002302 	streq	r2, [r0, -r2, lsl #6]
    1dd0:	00000fe4 	andeq	r0, r0, r4, ror #31
    1dd4:	5a01fe03 	bpl	815e8 <__standby_start+0x815e8>
    1dd8:	04000000 	streq	r0, [r0], #-0
    1ddc:	2302010c 	movwcs	r0, #8460	; 0x210c
    1de0:	11b90700 			; <UNDEFINED> instruction: 0x11b90700
    1de4:	ff030000 			; <UNDEFINED> instruction: 0xff030000
    1de8:	00005a01 	andeq	r5, r0, r1, lsl #20
    1dec:	00010400 	andeq	r0, r1, r0, lsl #8
    1df0:	00002302 	andeq	r2, r0, r2, lsl #6
    1df4:	000ec108 	andeq	ip, lr, r8, lsl #2
    1df8:	02000300 	andeq	r0, r0, #0, 6
    1dfc:	00001873 	andeq	r1, r0, r3, ror r8
    1e00:	000ce109 	andeq	lr, ip, r9, lsl #2
    1e04:	02030400 	andeq	r0, r3, #0, 8
    1e08:	00191902 	andseq	r1, r9, r2, lsl #18
    1e0c:	0fda0700 	svceq	0x00da0700
    1e10:	04030000 	streq	r0, [r3], #-0
    1e14:	00005a02 	andeq	r5, r0, r2, lsl #20
    1e18:	011f0400 	tsteq	pc, r0, lsl #8
    1e1c:	07002302 	streq	r2, [r0, -r2, lsl #6]
    1e20:	000011b9 			; <UNDEFINED> instruction: 0x000011b9
    1e24:	5a020503 	bpl	83238 <__standby_start+0x83238>
    1e28:	04000000 	streq	r0, [r0], #-0
    1e2c:	23020001 	movwcs	r0, #8193	; 0x2001
    1e30:	b9080000 	stmdblt	r8, {}	; <UNPREDICTABLE>
    1e34:	03000004 	movweq	r0, #4
    1e38:	18e70206 	stmiane	r7!, {r1, r2, r9}^
    1e3c:	48090000 	stmdami	r9, {}	; <UNPREDICTABLE>
    1e40:	04000008 	streq	r0, [r0], #-8
    1e44:	57020803 	strpl	r0, [r2, -r3, lsl #16]
    1e48:	07000019 	smladeq	r0, r9, r0, r0
    1e4c:	00000fda 	ldrdeq	r0, [r0], -sl
    1e50:	5a020a03 	bpl	84664 <__standby_start+0x84664>
    1e54:	04000000 	streq	r0, [r0], #-0
    1e58:	2302011f 	movwcs	r0, #8479	; 0x211f
    1e5c:	11b90700 			; <UNDEFINED> instruction: 0x11b90700
    1e60:	0b030000 	bleq	c1e68 <__standby_start+0xc1e68>
    1e64:	00005a02 	andeq	r5, r0, r2, lsl #20
    1e68:	00010400 	andeq	r0, r1, r0, lsl #8
    1e6c:	00002302 	andeq	r2, r0, r2, lsl #6
    1e70:	0012c908 	andseq	ip, r2, r8, lsl #18
    1e74:	020c0300 	andeq	r0, ip, #0, 6
    1e78:	00001925 	andeq	r1, r0, r5, lsr #18
    1e7c:	000ed909 	andeq	sp, lr, r9, lsl #18
    1e80:	0f030400 	svceq	0x00030400
    1e84:	0019ef02 	andseq	lr, r9, r2, lsl #30
    1e88:	13a40700 			; <UNDEFINED> instruction: 0x13a40700
    1e8c:	11030000 	tstne	r3, r0
    1e90:	00005a02 	andeq	r5, r0, r2, lsl #20
    1e94:	1c040400 	cfstrsne	mvf0, [r4], {-0}
    1e98:	07002302 	streq	r2, [r0, -r2, lsl #6]
    1e9c:	00000fda 	ldrdeq	r0, [r0], -sl
    1ea0:	5a021203 	bpl	866b4 <__standby_start+0x866b4>
    1ea4:	04000000 	streq	r0, [r0], #-0
    1ea8:	2302100c 	movwcs	r1, #8204	; 0x200c
    1eac:	03aa0700 			; <UNDEFINED> instruction: 0x03aa0700
    1eb0:	13030000 	movwne	r0, #12288	; 0x3000
    1eb4:	00005a02 	andeq	r5, r0, r2, lsl #20
    1eb8:	0f010400 	svceq	0x00010400
    1ebc:	07002302 	streq	r2, [r0, -r2, lsl #6]
    1ec0:	00000fe4 	andeq	r0, r0, r4, ror #31
    1ec4:	5a021403 	bpl	86ed8 <__standby_start+0x86ed8>
    1ec8:	04000000 	streq	r0, [r0], #-0
    1ecc:	23020807 	movwcs	r0, #10247	; 0x2807
    1ed0:	13550700 	cmpne	r5, #0, 14
    1ed4:	15030000 	strne	r0, [r3, #-0]
    1ed8:	00005a02 	andeq	r5, r0, r2, lsl #20
    1edc:	07010400 	streq	r0, [r1, -r0, lsl #8]
    1ee0:	07002302 	streq	r2, [r0, -r2, lsl #6]
    1ee4:	00000fee 	andeq	r0, r0, lr, ror #31
    1ee8:	5a021603 	bpl	876fc <__standby_start+0x876fc>
    1eec:	04000000 	streq	r0, [r0], #-0
    1ef0:	23020106 	movwcs	r0, #8454	; 0x2106
    1ef4:	11b90700 			; <UNDEFINED> instruction: 0x11b90700
    1ef8:	17030000 	strne	r0, [r3, -r0]
    1efc:	00005a02 	andeq	r5, r0, r2, lsl #20
    1f00:	00010400 	andeq	r0, r1, r0, lsl #8
    1f04:	00002302 	andeq	r2, r0, r2, lsl #6
    1f08:	000e3f08 	andeq	r3, lr, r8, lsl #30
    1f0c:	02180300 	andseq	r0, r8, #0, 6
    1f10:	00001963 	andeq	r1, r0, r3, ror #18
    1f14:	00053909 	andeq	r3, r5, r9, lsl #18
    1f18:	1b030400 	blne	c2f20 <__standby_start+0xc2f20>
    1f1c:	001a2d02 	andseq	r2, sl, r2, lsl #26
    1f20:	03aa0700 			; <UNDEFINED> instruction: 0x03aa0700
    1f24:	1d030000 	stcne	0, cr0, [r3, #-0]
    1f28:	00005a02 	andeq	r5, r0, r2, lsl #20
    1f2c:	1f010400 	svcne	0x00010400
    1f30:	07002302 	streq	r2, [r0, -r2, lsl #6]
    1f34:	00000356 	andeq	r0, r0, r6, asr r3
    1f38:	5a021e03 	bpl	8974c <__standby_start+0x8974c>
    1f3c:	04000000 	streq	r0, [r0], #-0
    1f40:	2302001f 	movwcs	r0, #8223	; 0x201f
    1f44:	9f080000 	svcls	0x00080000
    1f48:	0300000e 	movweq	r0, #14
    1f4c:	19fb021f 	ldmibne	fp!, {r0, r1, r2, r3, r4, r9}^
    1f50:	29090000 	stmdbcs	r9, {}	; <UNPREDICTABLE>
    1f54:	04000006 	streq	r0, [r0], #-6
    1f58:	a1022203 	tstge	r2, r3, lsl #4
    1f5c:	0700001a 	smladeq	r0, sl, r0, r0
    1f60:	000013a4 	andeq	r1, r0, r4, lsr #7
    1f64:	5a022403 	bpl	8af78 <__standby_start+0x8af78>
    1f68:	04000000 	streq	r0, [r0], #-0
    1f6c:	23021c04 	movwcs	r1, #11268	; 0x2c04
    1f70:	0fda0700 	svceq	0x00da0700
    1f74:	25030000 	strcs	r0, [r3, #-0]
    1f78:	00005a02 	andeq	r5, r0, r2, lsl #20
    1f7c:	08140400 	ldmdaeq	r4, {sl}
    1f80:	07002302 	streq	r2, [r0, -r2, lsl #6]
    1f84:	00001355 	andeq	r1, r0, r5, asr r3
    1f88:	5a022603 	bpl	8b79c <__standby_start+0x8b79c>
    1f8c:	04000000 	streq	r0, [r0], #-0
    1f90:	23020602 	movwcs	r0, #9730	; 0x2602
    1f94:	0fe40700 	svceq	0x00e40700
    1f98:	27030000 	strcs	r0, [r3, -r0]
    1f9c:	00005a02 	andeq	r5, r0, r2, lsl #20
    1fa0:	01050400 	tsteq	r5, r0, lsl #8
    1fa4:	07002302 	streq	r2, [r0, -r2, lsl #6]
    1fa8:	000011b9 			; <UNDEFINED> instruction: 0x000011b9
    1fac:	5a022803 	bpl	8bfc0 <__standby_start+0x8bfc0>
    1fb0:	04000000 	streq	r0, [r0], #-0
    1fb4:	23020001 	movwcs	r0, #8193	; 0x2001
    1fb8:	e7080000 	str	r0, [r8, -r0]
    1fbc:	03000003 	movweq	r0, #3
    1fc0:	1a390229 	bne	e4286c <__standby_start+0xe4286c>
    1fc4:	ab090000 	blge	241fcc <__standby_start+0x241fcc>
    1fc8:	0400000a 	streq	r0, [r0], #-10
    1fcc:	27022c03 	strcs	r2, [r2, -r3, lsl #24]
    1fd0:	0700001b 	smladeq	r0, fp, r0, r0
    1fd4:	000013a4 	andeq	r1, r0, r4, lsr #7
    1fd8:	5a022e03 	bpl	8d7ec <__standby_start+0x8d7ec>
    1fdc:	04000000 	streq	r0, [r0], #-0
    1fe0:	23021c04 	movwcs	r1, #11268	; 0x2c04
    1fe4:	0fda0700 	svceq	0x00da0700
    1fe8:	2f030000 	svccs	0x00030000
    1fec:	00005a02 	andeq	r5, r0, r2, lsl #20
    1ff0:	08140400 	ldmdaeq	r4, {sl}
    1ff4:	07002302 	streq	r2, [r0, -r2, lsl #6]
    1ff8:	00001355 	andeq	r1, r0, r5, asr r3
    1ffc:	5a023003 	bpl	8e010 <__standby_start+0x8e010>
    2000:	04000000 	streq	r0, [r0], #-0
    2004:	23020602 	movwcs	r0, #9730	; 0x2602
    2008:	0fe40700 	svceq	0x00e40700
    200c:	31030000 	tstcc	r3, r0
    2010:	00005a02 	andeq	r5, r0, r2, lsl #20
    2014:	02040400 	andeq	r0, r4, #0, 8
    2018:	07002302 	streq	r2, [r0, -r2, lsl #6]
    201c:	000003aa 	andeq	r0, r0, sl, lsr #7
    2020:	5a023203 	bpl	8e834 <__standby_start+0x8e834>
    2024:	04000000 	streq	r0, [r0], #-0
    2028:	23020101 	movwcs	r0, #8449	; 0x2101
    202c:	11b90700 			; <UNDEFINED> instruction: 0x11b90700
    2030:	33030000 	movwcc	r0, #12288	; 0x3000
    2034:	00005a02 	andeq	r5, r0, r2, lsl #20
    2038:	00010400 	andeq	r0, r1, r0, lsl #8
    203c:	00002302 	andeq	r2, r0, r2, lsl #6
    2040:	00096c08 	andeq	r6, r9, r8, lsl #24
    2044:	02340300 	eorseq	r0, r4, #0, 6
    2048:	00001aad 	andeq	r1, r0, sp, lsr #21
    204c:	0013770a 	andseq	r7, r3, sl, lsl #14
    2050:	03015800 	movweq	r5, #6144	; 0x1800
    2054:	1f980238 	svcne	0x00980238
    2058:	0a0b0000 	beq	2c2060 <__standby_start+0x2c2060>
    205c:	0300000a 	movweq	r0, #10
    2060:	1f98023a 	svcne	0x0098023a
    2064:	23020000 	movwcs	r0, #8192	; 0x2000
    2068:	08840b00 	stmeq	r4, {r8, r9, fp}
    206c:	3b030000 	blcc	c2074 <__standby_start+0xc2074>
    2070:	001f9d02 	andseq	r9, pc, r2, lsl #26
    2074:	04230200 	strteq	r0, [r3], #-512	; 0xfffffe00
    2078:	00136f0b 	andseq	r6, r3, fp, lsl #30
    207c:	023c0300 	eorseq	r0, ip, #0, 6
    2080:	00001fa2 	andeq	r1, r0, r2, lsr #31
    2084:	0b082302 	bleq	20ac94 <__standby_start+0x20ac94>
    2088:	00001152 	andeq	r1, r0, r2, asr r1
    208c:	a7023d03 	strge	r3, [r2, -r3, lsl #26]
    2090:	0200001f 	andeq	r0, r0, #31
    2094:	db0b0c23 	blle	2c5128 <__standby_start+0x2c5128>
    2098:	03000007 	movweq	r0, #7
    209c:	1fac023e 	svcne	0x00ac023e
    20a0:	23020000 	movwcs	r0, #8192	; 0x2000
    20a4:	121b0b10 	andsne	r0, fp, #16, 22	; 0x4000
    20a8:	3f030000 	svccc	0x00030000
    20ac:	001fb102 	andseq	fp, pc, r2, lsl #2
    20b0:	14230200 	strtne	r0, [r3], #-512	; 0xfffffe00
    20b4:	0005590b 	andeq	r5, r5, fp, lsl #18
    20b8:	02400300 	subeq	r0, r0, #0, 6
    20bc:	00001fb6 			; <UNDEFINED> instruction: 0x00001fb6
    20c0:	0b182302 	bleq	60acd0 <__standby_start+0x60acd0>
    20c4:	000007ec 	andeq	r0, r0, ip, ror #15
    20c8:	b1024103 	tstlt	r2, r3, lsl #2
    20cc:	0200001f 	andeq	r0, r0, #31
    20d0:	b90b1c23 	stmdblt	fp, {r0, r1, r5, sl, fp, ip}
    20d4:	0300000e 	movweq	r0, #14
    20d8:	1fbb0242 	svcne	0x00bb0242
    20dc:	23020000 	movwcs	r0, #8192	; 0x2000
    20e0:	13ab0b20 			; <UNDEFINED> instruction: 0x13ab0b20
    20e4:	43030000 	movwmi	r0, #12288	; 0x3000
    20e8:	001fc002 	andseq	ip, pc, r2
    20ec:	24230200 	strtcs	r0, [r3], #-512	; 0xfffffe00
    20f0:	0004f60b 	andeq	pc, r4, fp, lsl #12
    20f4:	02440300 	subeq	r0, r4, #0, 6
    20f8:	00001fc5 	andeq	r1, r0, r5, asr #31
    20fc:	0b282302 	bleq	a0ad0c <__standby_start+0xa0ad0c>
    2100:	000013cc 	andeq	r1, r0, ip, asr #7
    2104:	b1024503 	tstlt	r2, r3, lsl #10
    2108:	0200001f 	andeq	r0, r0, #31
    210c:	920b2c23 	andls	r2, fp, #8960	; 0x2300
    2110:	03000011 	movweq	r0, #17
    2114:	1fca0246 	svcne	0x00ca0246
    2118:	23020000 	movwcs	r0, #8192	; 0x2000
    211c:	04010b30 	streq	r0, [r1], #-2864	; 0xfffff4d0
    2120:	47030000 	strmi	r0, [r3, -r0]
    2124:	001fb102 	andseq	fp, pc, r2, lsl #2
    2128:	34230200 	strtcc	r0, [r3], #-512	; 0xfffffe00
    212c:	000e830b 	andeq	r8, lr, fp, lsl #6
    2130:	02480300 	subeq	r0, r8, #0, 6
    2134:	00001fcf 	andeq	r1, r0, pc, asr #31
    2138:	0b382302 	bleq	e0ad48 <__standby_start+0xe0ad48>
    213c:	000003d7 	ldrdeq	r0, [r0], -r7
    2140:	d4024903 	strle	r4, [r2], #-2307	; 0xfffff6fd
    2144:	0200001f 	andeq	r0, r0, #31
    2148:	560b3c23 	strpl	r3, [fp], -r3, lsr #24
    214c:	03000003 	movweq	r0, #3
    2150:	1fe9024a 	svcne	0x00e9024a
    2154:	23020000 	movwcs	r0, #8192	; 0x2000
    2158:	06780b40 	ldrbteq	r0, [r8], -r0, asr #22
    215c:	4b030000 	blmi	c2164 <__standby_start+0xc2164>
    2160:	001fee02 	andseq	lr, pc, r2, lsl #28
    2164:	50230200 	eorpl	r0, r3, r0, lsl #4
    2168:	000c490b 	andeq	r4, ip, fp, lsl #18
    216c:	024c0300 	subeq	r0, ip, #0, 6
    2170:	00001ff3 	strdeq	r1, [r0], -r3
    2174:	0b542302 	bleq	150ad84 <__standby_start+0x150ad84>
    2178:	00000a83 	andeq	r0, r0, r3, lsl #21
    217c:	f8024d03 			; <UNDEFINED> instruction: 0xf8024d03
    2180:	0200001f 	andeq	r0, r0, #31
    2184:	720b5823 	andvc	r5, fp, #2293760	; 0x230000
    2188:	03000012 	movweq	r0, #18
    218c:	1ffd024e 	svcne	0x00fd024e
    2190:	23020000 	movwcs	r0, #8192	; 0x2000
    2194:	09c60b5c 	stmibeq	r6, {r2, r3, r4, r6, r8, r9, fp}^
    2198:	4f030000 	svcmi	0x00030000
    219c:	00200202 	eoreq	r0, r0, r2, lsl #4
    21a0:	60230200 	eorvs	r0, r3, r0, lsl #4
    21a4:	0009cf0b 	andeq	ip, r9, fp, lsl #30
    21a8:	02500300 	subseq	r0, r0, #0, 6
    21ac:	00002007 	andeq	r2, r0, r7
    21b0:	0b642302 	bleq	190adc0 <__standby_start+0x190adc0>
    21b4:	00000641 	andeq	r0, r0, r1, asr #12
    21b8:	0c025103 	stfeqs	f5, [r2], {3}
    21bc:	02000020 	andeq	r0, r0, #32
    21c0:	2e0b6823 	cdpcs	8, 0, cr6, cr11, cr3, {1}
    21c4:	03000007 	movweq	r0, #7
    21c8:	20110252 	andscs	r0, r1, r2, asr r2
    21cc:	23020000 	movwcs	r0, #8192	; 0x2000
    21d0:	0fe40b6c 	svceq	0x00e40b6c
    21d4:	53030000 	movwpl	r0, #12288	; 0x3000
    21d8:	00201602 	eoreq	r1, r0, r2, lsl #12
    21dc:	70230200 	eorvc	r0, r3, r0, lsl #4
    21e0:	0011ac0b 	andseq	sl, r1, fp, lsl #24
    21e4:	02540300 	subseq	r0, r4, #0, 6
    21e8:	0000201b 	andeq	r2, r0, fp, lsl r0
    21ec:	01802303 	orreq	r2, r0, r3, lsl #6
    21f0:	0007830b 	andeq	r8, r7, fp, lsl #6
    21f4:	02550300 	subseq	r0, r5, #0, 6
    21f8:	0000201b 	andeq	r2, r0, fp, lsl r0
    21fc:	01842303 	orreq	r2, r4, r3, lsl #6
    2200:	0005070b 	andeq	r0, r5, fp, lsl #14
    2204:	02560300 	subseq	r0, r6, #0, 6
    2208:	0000201b 	andeq	r2, r0, fp, lsl r0
    220c:	01882303 	orreq	r2, r8, r3, lsl #6
    2210:	000f940b 	andeq	r9, pc, fp, lsl #8
    2214:	02570300 	subseq	r0, r7, #0, 6
    2218:	0000201b 	andeq	r2, r0, fp, lsl r0
    221c:	018c2303 	orreq	r2, ip, r3, lsl #6
    2220:	0007c80b 	andeq	ip, r7, fp, lsl #16
    2224:	02580300 	subseq	r0, r8, #0, 6
    2228:	0000201b 	andeq	r2, r0, fp, lsl r0
    222c:	01902303 	orrseq	r2, r0, r3, lsl #6
    2230:	00110e0b 	andseq	r0, r1, fp, lsl #28
    2234:	02590300 	subseq	r0, r9, #0, 6
    2238:	0000201b 	andeq	r2, r0, fp, lsl r0
    223c:	01942303 	orrseq	r2, r4, r3, lsl #6
    2240:	0010b40b 	andseq	fp, r0, fp, lsl #8
    2244:	025a0300 	subseq	r0, sl, #0, 6
    2248:	0000201b 	andeq	r2, r0, fp, lsl r0
    224c:	01982303 	orrseq	r2, r8, r3, lsl #6
    2250:	0005db0b 	andeq	sp, r5, fp, lsl #22
    2254:	025b0300 	subseq	r0, fp, #0, 6
    2258:	0000201b 	andeq	r2, r0, fp, lsl r0
    225c:	019c2303 	orrseq	r2, ip, r3, lsl #6
    2260:	000b3d0b 	andeq	r3, fp, fp, lsl #26
    2264:	025c0300 	subseq	r0, ip, #0, 6
    2268:	0000201b 	andeq	r2, r0, fp, lsl r0
    226c:	01a02303 	lsleq	r2, r3, #6
    2270:	00043e0b 	andeq	r3, r4, fp, lsl #28
    2274:	025d0300 	subseq	r0, sp, #0, 6
    2278:	0000201b 	andeq	r2, r0, fp, lsl r0
    227c:	01a42303 			; <UNDEFINED> instruction: 0x01a42303
    2280:	000d4f0b 	andeq	r4, sp, fp, lsl #30
    2284:	025e0300 	subseq	r0, lr, #0, 6
    2288:	0000201b 	andeq	r2, r0, fp, lsl r0
    228c:	01a82303 			; <UNDEFINED> instruction: 0x01a82303
    2290:	0006070b 	andeq	r0, r6, fp, lsl #14
    2294:	025f0300 	subseq	r0, pc, #0, 6
    2298:	0000201b 	andeq	r2, r0, fp, lsl r0
    229c:	01ac2303 			; <UNDEFINED> instruction: 0x01ac2303
    22a0:	000a7c0b 	andeq	r7, sl, fp, lsl #24
    22a4:	02600300 	rsbeq	r0, r0, #0, 6
    22a8:	0000201b 	andeq	r2, r0, fp, lsl r0
    22ac:	01b02303 	lslseq	r2, r3, #6
    22b0:	0009910b 	andeq	r9, r9, fp, lsl #2
    22b4:	02610300 	rsbeq	r0, r1, #0, 6
    22b8:	0000201b 	andeq	r2, r0, fp, lsl r0
    22bc:	01b42303 			; <UNDEFINED> instruction: 0x01b42303
    22c0:	0009d80b 	andeq	sp, r9, fp, lsl #16
    22c4:	02620300 	rsbeq	r0, r2, #0, 6
    22c8:	00002020 	andeq	r2, r0, r0, lsr #32
    22cc:	01b82303 			; <UNDEFINED> instruction: 0x01b82303
    22d0:	00088d0b 	andeq	r8, r8, fp, lsl #26
    22d4:	02630300 	rsbeq	r0, r3, #0, 6
    22d8:	00002020 	andeq	r2, r0, r0, lsr #32
    22dc:	01bc2303 			; <UNDEFINED> instruction: 0x01bc2303
    22e0:	000cf90b 	andeq	pc, ip, fp, lsl #18
    22e4:	02640300 	rsbeq	r0, r4, #0, 6
    22e8:	00002020 	andeq	r2, r0, r0, lsr #32
    22ec:	01c02303 	biceq	r2, r0, r3, lsl #6
    22f0:	0010cd0b 	andseq	ip, r0, fp, lsl #26
    22f4:	02650300 	rsbeq	r0, r5, #0, 6
    22f8:	00002025 	andeq	r2, r0, r5, lsr #32
    22fc:	01c42303 	biceq	r2, r4, r3, lsl #6
    2300:	000fd20b 	andeq	sp, pc, fp, lsl #4
    2304:	02660300 	rsbeq	r0, r6, #0, 6
    2308:	0000202a 	andeq	r2, r0, sl, lsr #32
    230c:	01c82303 	biceq	r2, r8, r3, lsl #6
    2310:	0005e10b 	andeq	lr, r5, fp, lsl #2
    2314:	02670300 	rsbeq	r0, r7, #0, 6
    2318:	0000202f 	andeq	r2, r0, pc, lsr #32
    231c:	01cc2303 	biceq	r2, ip, r3, lsl #6
    2320:	000cda0b 	andeq	sp, ip, fp, lsl #20
    2324:	02680300 	rsbeq	r0, r8, #0, 6
    2328:	00002034 	andeq	r2, r0, r4, lsr r0
    232c:	01d02303 	bicseq	r2, r0, r3, lsl #6
    2330:	0006c50b 	andeq	ip, r6, fp, lsl #10
    2334:	02690300 	rsbeq	r0, r9, #0, 6
    2338:	0000201b 	andeq	r2, r0, fp, lsl r0
    233c:	01d42303 	bicseq	r2, r4, r3, lsl #6
    2340:	000fee0b 	andeq	lr, pc, fp, lsl #28
    2344:	026a0300 	rsbeq	r0, sl, #0, 6
    2348:	00002049 	andeq	r2, r0, r9, asr #32
    234c:	01d82303 	bicseq	r2, r8, r3, lsl #6
    2350:	000d7e0b 	andeq	r7, sp, fp, lsl #28
    2354:	026b0300 	rsbeq	r0, fp, #0, 6
    2358:	0000204e 	andeq	r2, r0, lr, asr #32
    235c:	02802303 	addeq	r2, r0, #201326592	; 0xc000000
    2360:	000db80b 	andeq	fp, sp, fp, lsl #16
    2364:	026c0300 	rsbeq	r0, ip, #0, 6
    2368:	00002053 	andeq	r2, r0, r3, asr r0
    236c:	02842303 	addeq	r2, r4, #201326592	; 0xc000000
    2370:	0007a70b 	andeq	sl, r7, fp, lsl #14
    2374:	026d0300 	rsbeq	r0, sp, #0, 6
    2378:	00002053 	andeq	r2, r0, r3, asr r0
    237c:	02882303 	addeq	r2, r8, #201326592	; 0xc000000
    2380:	000a310b 	andeq	r3, sl, fp, lsl #2
    2384:	026e0300 	rsbeq	r0, lr, #0, 6
    2388:	00002053 	andeq	r2, r0, r3, asr r0
    238c:	028c2303 	addeq	r2, ip, #201326592	; 0xc000000
    2390:	000b7d0b 	andeq	r7, fp, fp, lsl #26
    2394:	026f0300 	rsbeq	r0, pc, #0, 6
    2398:	00002053 	andeq	r2, r0, r3, asr r0
    239c:	02902303 	addseq	r2, r0, #201326592	; 0xc000000
    23a0:	0004ee0b 	andeq	lr, r4, fp, lsl #28
    23a4:	02700300 	rsbseq	r0, r0, #0, 6
    23a8:	00002053 	andeq	r2, r0, r3, asr r0
    23ac:	02942303 	addseq	r2, r4, #201326592	; 0xc000000
    23b0:	000bc00b 	andeq	ip, fp, fp
    23b4:	02710300 	rsbseq	r0, r1, #0, 6
    23b8:	00002058 	andeq	r2, r0, r8, asr r0
    23bc:	02982303 	addseq	r2, r8, #201326592	; 0xc000000
    23c0:	0010df0b 	andseq	sp, r0, fp, lsl #30
    23c4:	02720300 	rsbseq	r0, r2, #0, 6
    23c8:	00002058 	andeq	r2, r0, r8, asr r0
    23cc:	029c2303 	addseq	r2, ip, #201326592	; 0xc000000
    23d0:	0007fe0b 	andeq	pc, r7, fp, lsl #28
    23d4:	02730300 	rsbseq	r0, r3, #0, 6
    23d8:	0000205d 	andeq	r2, r0, sp, asr r0
    23dc:	02a02303 	adceq	r2, r0, #201326592	; 0xc000000
    23e0:	000ff80b 	andeq	pc, pc, fp, lsl #16
    23e4:	02740300 	rsbseq	r0, r4, #0, 6
    23e8:	00001fb1 			; <UNDEFINED> instruction: 0x00001fb1
    23ec:	02a42303 	adceq	r2, r4, #201326592	; 0xc000000
    23f0:	000f830b 	andeq	r8, pc, fp, lsl #6
    23f4:	02750300 	rsbseq	r0, r5, #0, 6
    23f8:	00002062 	andeq	r2, r0, r2, rrx
    23fc:	02a82303 	adceq	r2, r8, #201326592	; 0xc000000
    2400:	0005fc0b 	andeq	pc, r5, fp, lsl #24
    2404:	02760300 	rsbseq	r0, r6, #0, 6
    2408:	00002067 	andeq	r2, r0, r7, rrx
    240c:	02ac2303 	adceq	r2, ip, #201326592	; 0xc000000
    2410:	000dd30b 	andeq	sp, sp, fp, lsl #6
    2414:	02770300 	rsbseq	r0, r7, #0, 6
    2418:	00002067 	andeq	r2, r0, r7, rrx
    241c:	02b02303 	adcseq	r2, r0, #201326592	; 0xc000000
    2420:	0009890b 	andeq	r8, r9, fp, lsl #18
    2424:	02780300 	rsbseq	r0, r8, #0, 6
    2428:	0000206c 	andeq	r2, r0, ip, rrx
    242c:	02b42303 	adcseq	r2, r4, #201326592	; 0xc000000
    2430:	0012ec0b 	andseq	lr, r2, fp, lsl #24
    2434:	02790300 	rsbseq	r0, r9, #0, 6
    2438:	0000206c 	andeq	r2, r0, ip, rrx
    243c:	02b82303 	adcseq	r2, r8, #201326592	; 0xc000000
    2440:	0003e10b 	andeq	lr, r3, fp, lsl #2
    2444:	027a0300 	rsbseq	r0, sl, #0, 6
    2448:	00002071 	andeq	r2, r0, r1, ror r0
    244c:	02bc2303 	adcseq	r2, ip, #201326592	; 0xc000000
    2450:	0010ac0b 	andseq	sl, r0, fp, lsl #24
    2454:	027b0300 	rsbseq	r0, fp, #0, 6
    2458:	00002076 	andeq	r2, r0, r6, ror r0
    245c:	02c02303 	sbceq	r2, r0, #201326592	; 0xc000000
    2460:	0012240b 	andseq	r2, r2, fp, lsl #8
    2464:	027c0300 	rsbseq	r0, ip, #0, 6
    2468:	0000207b 	andeq	r2, r0, fp, ror r0
    246c:	02c42303 	sbceq	r2, r4, #201326592	; 0xc000000
    2470:	000aa40b 	andeq	sl, sl, fp, lsl #8
    2474:	027d0300 	rsbseq	r0, sp, #0, 6
    2478:	00002080 	andeq	r2, r0, r0, lsl #1
    247c:	02c82303 	sbceq	r2, r8, #201326592	; 0xc000000
    2480:	000c130b 	andeq	r1, ip, fp, lsl #6
    2484:	027e0300 	rsbseq	r0, lr, #0, 6
    2488:	00002085 	andeq	r2, r0, r5, lsl #1
    248c:	02cc2303 	sbceq	r2, ip, #201326592	; 0xc000000
    2490:	000bae0b 	andeq	sl, fp, fp, lsl #28
    2494:	027f0300 	rsbseq	r0, pc, #0, 6
    2498:	0000208a 	andeq	r2, r0, sl, lsl #1
    249c:	02d02303 	sbcseq	r2, r0, #201326592	; 0xc000000
    24a0:	00042d0b 	andeq	r2, r4, fp, lsl #26
    24a4:	02800300 	addeq	r0, r0, #0, 6
    24a8:	0000208f 	andeq	r2, r0, pc, lsl #1
    24ac:	02d42303 	sbcseq	r2, r4, #201326592	; 0xc000000
    24b0:	016e0c00 	cmneq	lr, r0, lsl #24
    24b4:	db0c0000 	blle	3024bc <__standby_start+0x3024bc>
    24b8:	0c000001 	stceq	0, cr0, [r0], {1}
    24bc:	0000028c 	andeq	r0, r0, ip, lsl #5
    24c0:	00030a0c 	andeq	r0, r3, ip, lsl #20
    24c4:	03dd0c00 	bicseq	r0, sp, #0, 24
    24c8:	5a0c0000 	bpl	3024d0 <__standby_start+0x3024d0>
    24cc:	0c000000 	stceq	0, cr0, [r0], {-0}
    24d0:	000004d2 	ldrdeq	r0, [r0], -r2
    24d4:	0005e90c 	andeq	lr, r5, ip, lsl #18
    24d8:	06780c00 	ldrbteq	r0, [r8], -r0, lsl #24
    24dc:	6d0c0000 	stcvs	0, cr0, [ip, #-0]
    24e0:	0c000007 	stceq	0, cr0, [r0], {7}
    24e4:	00000840 	andeq	r0, r0, r0, asr #16
    24e8:	0008be0c 	andeq	fp, r8, ip, lsl #28
    24ec:	093c0c00 	ldmdbeq	ip!, {sl, fp}
    24f0:	5a0d0000 	bpl	3424f8 <__standby_start+0x3424f8>
    24f4:	e9000000 	stmdb	r0, {}	; <UNPREDICTABLE>
    24f8:	0e00001f 	mcreq	0, 0, r0, cr0, cr15, {0}
    24fc:	00000025 	andeq	r0, r0, r5, lsr #32
    2500:	d90c0003 	stmdble	ip, {r0, r1}
    2504:	0c00001f 	stceq	0, cr0, [r0], {31}
    2508:	000009dc 	ldrdeq	r0, [r0], -ip
    250c:	000a7c0c 	andeq	r7, sl, ip, lsl #24
    2510:	0afa0c00 	beq	ffe85518 <__bss_end+0xfe834d0>
    2514:	340c0000 	strcc	r0, [ip], #-0
    2518:	0c00000b 	stceq	0, cr0, [r0], {11}
    251c:	00000d37 	andeq	r0, r0, r7, lsr sp
    2520:	000eb90c 	andeq	fp, lr, ip, lsl #18
    2524:	0f990c00 	svceq	0x00990c00
    2528:	f70c0000 			; <UNDEFINED> instruction: 0xf70c0000
    252c:	0c000010 	stceq	0, cr0, [r0], {16}
    2530:	00001fd9 	ldrdeq	r1, [r0], -r9
    2534:	00118f0c 	andseq	r8, r1, ip, lsl #30
    2538:	11f10c00 	mvnsne	r0, r0, lsl #24
    253c:	890c0000 	stmdbhi	ip, {}	; <UNPREDICTABLE>
    2540:	0c000012 	stceq	0, cr0, [r0], {18}
    2544:	000012eb 	andeq	r1, r0, fp, ror #5
    2548:	0013b90c 	andseq	fp, r3, ip, lsl #18
    254c:	14090c00 	strne	r0, [r9], #-3072	; 0xfffff400
    2550:	5a0d0000 	bpl	342558 <__standby_start+0x342558>
    2554:	49000000 	stmdbmi	r0, {}	; <UNPREDICTABLE>
    2558:	0e000020 	cdpeq	0, 0, cr0, cr0, cr0, {1}
    255c:	00000025 	andeq	r0, r0, r5, lsr #32
    2560:	390c0009 	stmdbcc	ip, {r0, r3}
    2564:	0c000020 	stceq	0, cr0, [r0], {32}
    2568:	00001555 	andeq	r1, r0, r5, asr r5
    256c:	0015db0c 	andseq	sp, r5, ip, lsl #22
    2570:	164f0c00 	strbne	r0, [pc], -r0, lsl #24
    2574:	c30c0000 	movwgt	r0, #49152	; 0xc000
    2578:	0c000016 	stceq	0, cr0, [r0], {22}
    257c:	00001725 	andeq	r1, r0, r5, lsr #14
    2580:	0017e10c 	andseq	lr, r7, ip, lsl #2
    2584:	18670c00 	stmdane	r7!, {sl, fp}^
    2588:	db0c0000 	blle	302590 <__standby_start+0x302590>
    258c:	0c000018 	stceq	0, cr0, [r0], {24}
    2590:	00001919 	andeq	r1, r0, r9, lsl r9
    2594:	0019570c 	andseq	r5, r9, ip, lsl #14
    2598:	19ef0c00 	stmibne	pc!, {sl, fp}^	; <UNPREDICTABLE>
    259c:	2d0c0000 	stccs	0, cr0, [ip, #-0]
    25a0:	0c00001a 	stceq	0, cr0, [r0], {26}
    25a4:	00001aa1 	andeq	r1, r0, r1, lsr #21
    25a8:	001b270c 	andseq	r2, fp, ip, lsl #14
    25ac:	119a0800 	orrsne	r0, sl, r0, lsl #16
    25b0:	82030000 	andhi	r0, r3, #0
    25b4:	001b3302 	andseq	r3, fp, r2, lsl #6
    25b8:	02b90500 	adcseq	r0, r9, #0, 10
    25bc:	04040000 	streq	r0, [r4], #-0
    25c0:	00210219 	eoreq	r0, r1, r9, lsl r2
    25c4:	00000600 	andeq	r0, r0, r0, lsl #12
    25c8:	1a040000 	bne	1025d0 <__standby_start+0x1025d0>
    25cc:	0000005a 	andeq	r0, r0, sl, asr r0
    25d0:	021c0404 	andseq	r0, ip, #4, 8	; 0x4000000
    25d4:	9d060023 	stcls	0, cr0, [r6, #-140]	; 0xffffff74
    25d8:	04000000 	streq	r0, [r0], #-0
    25dc:	00005a1b 	andeq	r5, r0, fp, lsl sl
    25e0:	18040400 	stmdane	r4, {sl}
    25e4:	06002302 	streq	r2, [r0], -r2, lsl #6
    25e8:	00000139 	andeq	r0, r0, r9, lsr r1
    25ec:	005a1c04 	subseq	r1, sl, r4, lsl #24
    25f0:	04040000 	streq	r0, [r4], #-0
    25f4:	00230214 	eoreq	r0, r3, r4, lsl r2
    25f8:	00012306 	andeq	r2, r1, r6, lsl #6
    25fc:	5a1d0400 	bpl	743604 <__standby_start+0x743604>
    2600:	04000000 	streq	r0, [r0], #-0
    2604:	23021004 	movwcs	r1, #8196	; 0x2004
    2608:	03560600 	cmpeq	r6, #0, 12
    260c:	1e040000 	cdpne	0, 0, cr0, cr4, cr0, {0}
    2610:	0000005a 	andeq	r0, r0, sl, asr r0
    2614:	02001004 	andeq	r1, r0, #4
    2618:	0f000023 	svceq	0x00000023
    261c:	000a4301 	andeq	r4, sl, r1, lsl #6
    2620:	012f0100 	teqeq	pc, r0, lsl #2
    2624:	0000004f 	andeq	r0, r0, pc, asr #32
    2628:	f00004b0 			; <UNDEFINED> instruction: 0xf00004b0
    262c:	f0000544 			; <UNDEFINED> instruction: 0xf0000544
    2630:	0f007d02 	svceq	0x00007d02
    2634:	00047501 	andeq	r7, r4, r1, lsl #10
    2638:	01510100 	cmpeq	r1, r0, lsl #2
    263c:	0000004f 	andeq	r0, r0, pc, asr #32
    2640:	f0000544 			; <UNDEFINED> instruction: 0xf0000544
    2644:	f0000590 			; <UNDEFINED> instruction: 0xf0000590
    2648:	0f007d02 	svceq	0x00007d02
    264c:	000ac601 	andeq	ip, sl, r1, lsl #12
    2650:	016b0100 	cmneq	fp, r0, lsl #2
    2654:	0000004f 	andeq	r0, r0, pc, asr #32
    2658:	f0000590 			; <UNDEFINED> instruction: 0xf0000590
    265c:	f00005c0 			; <UNDEFINED> instruction: 0xf00005c0
    2660:	0f007d02 	svceq	0x00007d02
    2664:	00056101 	andeq	r6, r5, r1, lsl #2
    2668:	01800100 	orreq	r0, r0, r0, lsl #2
    266c:	0000004f 	andeq	r0, r0, pc, asr #32
    2670:	f00005c0 			; <UNDEFINED> instruction: 0xf00005c0
    2674:	f00005f4 			; <UNDEFINED> instruction: 0xf00005f4
    2678:	0f007d02 	svceq	0x00007d02
    267c:	00099801 	andeq	r9, r9, r1, lsl #16
    2680:	01950100 	orrseq	r0, r5, r0, lsl #2
    2684:	0000004f 	andeq	r0, r0, pc, asr #32
    2688:	f00005f4 			; <UNDEFINED> instruction: 0xf00005f4
    268c:	f0000628 			; <UNDEFINED> instruction: 0xf0000628
    2690:	0f007d02 	svceq	0x00007d02
    2694:	0011c501 	andseq	ip, r1, r1, lsl #10
    2698:	01aa0100 			; <UNDEFINED> instruction: 0x01aa0100
    269c:	0000004f 	andeq	r0, r0, pc, asr #32
    26a0:	f0000628 			; <UNDEFINED> instruction: 0xf0000628
    26a4:	f0000690 			; <UNDEFINED> instruction: 0xf0000690
    26a8:	0f007d02 	svceq	0x00007d02
    26ac:	00104101 	andseq	r4, r0, r1, lsl #2
    26b0:	01c30100 	biceq	r0, r3, r0, lsl #2
    26b4:	0000004f 	andeq	r0, r0, pc, asr #32
    26b8:	f0000690 			; <UNDEFINED> instruction: 0xf0000690
    26bc:	f00006f8 			; <UNDEFINED> instruction: 0xf00006f8
    26c0:	0f007d02 	svceq	0x00007d02
    26c4:	0006ec01 	andeq	lr, r6, r1, lsl #24
    26c8:	01dc0100 	bicseq	r0, ip, r0, lsl #2
    26cc:	0000004f 	andeq	r0, r0, pc, asr #32
    26d0:	f00006f8 			; <UNDEFINED> instruction: 0xf00006f8
    26d4:	f0000718 			; <UNDEFINED> instruction: 0xf0000718
    26d8:	0f007d02 	svceq	0x00007d02
    26dc:	000f9e01 	andeq	r9, pc, r1, lsl #28
    26e0:	01ee0100 	mvneq	r0, r0, lsl #2
    26e4:	0000004f 	andeq	r0, r0, pc, asr #32
    26e8:	f0000718 			; <UNDEFINED> instruction: 0xf0000718
    26ec:	f0000738 			; <UNDEFINED> instruction: 0xf0000738
    26f0:	10007d02 	andne	r7, r0, r2, lsl #26
    26f4:	000b9001 	andeq	r9, fp, r1
    26f8:	01000100 	tsteq	r0, r0, lsl #2
    26fc:	00004f01 	andeq	r4, r0, r1, lsl #30
    2700:	00073800 	andeq	r3, r7, r0, lsl #16
    2704:	000780f0 	strdeq	r8, [r7], -r0
    2708:	007d02f0 	ldrshteq	r0, [sp], #-32	; 0xffffffe0
    270c:	0a8e0110 	beq	fe382b54 <__bss_end+0xe380b0c>
    2710:	15010000 	strne	r0, [r1, #-0]
    2714:	004f0101 	subeq	r0, pc, r1, lsl #2
    2718:	07800000 	streq	r0, [r0, r0]
    271c:	07c8f000 	strbeq	pc, [r8, r0]	; <UNPREDICTABLE>
    2720:	7d02f000 	stcvc	0, cr15, [r2, #-0]
    2724:	3d011100 	stfccs	f1, [r1, #-0]
    2728:	01000013 	tsteq	r0, r3, lsl r0
    272c:	4f01012a 	svcmi	0x0001012a
    2730:	c8000000 	stmdagt	r0, {}	; <UNPREDICTABLE>
    2734:	28f00007 	ldmcs	r0!, {r0, r1, r2}^
    2738:	02f00008 	rscseq	r0, r0, #8
    273c:	223a007d 	eorscs	r0, sl, #125	; 0x7d
    2740:	9d120000 	ldcls	0, cr0, [r2, #-0]
    2744:	01000001 	tsteq	r0, r1
    2748:	223a012a 	eorscs	r0, sl, #-2147483638	; 0x8000000a
    274c:	00f10000 	rscseq	r0, r1, r0
    2750:	13000000 	movwne	r0, #0
    2754:	0020a004 	eoreq	sl, r0, r4
    2758:	15011100 	strne	r1, [r1, #-256]	; 0xffffff00
    275c:	0100000f 	tsteq	r0, pc
    2760:	4f010144 	svcmi	0x00010144
    2764:	28000000 	stmdacs	r0, {}	; <UNPREDICTABLE>
    2768:	80f00008 	rscshi	r0, r0, r8
    276c:	02f00008 	rscseq	r0, r0, #8
    2770:	226e007d 	rsbcs	r0, lr, #125	; 0x7d
    2774:	9d120000 	ldcls	0, cr0, [r2, #-0]
    2778:	01000001 	tsteq	r0, r1
    277c:	223a0144 	eorscs	r0, sl, #68, 2
    2780:	010f0000 	mrseq	r0, CPSR
    2784:	14000000 	strne	r0, [r0], #-0
    2788:	000bfc01 	andeq	pc, fp, r1, lsl #24
    278c:	015e0100 	cmpeq	lr, r0, lsl #2
    2790:	00088001 	andeq	r8, r8, r1
    2794:	0008b0f0 	strdeq	fp, [r8], -r0
    2798:	007d02f0 	ldrshteq	r0, [sp], #-32	; 0xffffffe0
    279c:	00002296 	muleq	r0, r6, r2
    27a0:	000c5d15 	andeq	r5, ip, r5, lsl sp
    27a4:	015e0100 	cmpeq	lr, r0, lsl #2
    27a8:	00000033 	andeq	r0, r0, r3, lsr r0
    27ac:	10005001 	andne	r5, r0, r1
    27b0:	000d5f01 	andeq	r5, sp, r1, lsl #30
    27b4:	01740100 	cmneq	r4, r0, lsl #2
    27b8:	00004f01 	andeq	r4, r0, r1, lsl #30
    27bc:	0008b000 	andeq	fp, r8, r0
    27c0:	0008d4f0 	strdeq	sp, [r8], -r0
    27c4:	007d02f0 	ldrshteq	r0, [sp], #-32	; 0xffffffe0
    27c8:	0b580110 	bleq	1602c10 <__standby_start+0x1602c10>
    27cc:	86010000 	strhi	r0, [r1], -r0
    27d0:	004f0101 	subeq	r0, pc, r1, lsl #2
    27d4:	08d40000 	ldmeq	r4, {}^	; <UNPREDICTABLE>
    27d8:	08f4f000 	ldmeq	r4!, {ip, sp, lr, pc}^
    27dc:	7d02f000 	stcvc	0, cr15, [r2, #-0]
    27e0:	037b1600 	cmneq	fp, #0, 12
    27e4:	33040000 	movwcc	r0, #16384	; 0x4000
    27e8:	0000005a 	andeq	r0, r0, sl, asr r0
    27ec:	18170101 	ldmdane	r7, {r0, r8}
    27f0:	01000011 	tsteq	r0, r1, lsl r0
    27f4:	0022e616 	eoreq	lr, r2, r6, lsl r6
    27f8:	b4030500 	strlt	r0, [r3], #-1280	; 0xfffffb00
    27fc:	13f0001f 	mvnsne	r0, #31
    2800:	00209404 	eoreq	r9, r0, r4, lsl #8
    2804:	005a0d00 	subseq	r0, sl, r0, lsl #26
    2808:	22fc0000 	rscscs	r0, ip, #0
    280c:	250e0000 	strcs	r0, [lr, #-0]
    2810:	06000000 	streq	r0, [r0], -r0
    2814:	12a61700 	adcne	r1, r6, #0, 14
    2818:	17010000 	strne	r0, [r1, -r0]
    281c:	000022ec 	andeq	r2, r0, ip, ror #5
    2820:	1fb80305 	svcne	0x00b80305
    2824:	7b18f000 	blvc	63e82c <__standby_start+0x63e82c>
    2828:	01000003 	tsteq	r0, r3
    282c:	00005a18 	andeq	r5, r0, r8, lsl sl
    2830:	03050100 	movweq	r0, #20736	; 0x5100
    2834:	f0002044 			; <UNDEFINED> instruction: 0xf0002044
    2838:	00053b00 	andeq	r3, r5, r0, lsl #22
    283c:	80000200 	andhi	r0, r0, r0, lsl #4
    2840:	04000003 	streq	r0, [r0], #-3
    2844:	0002ed01 	andeq	lr, r2, r1, lsl #26
    2848:	159c0100 	ldrne	r0, [ip, #256]	; 0x100
    284c:	01410000 	mrseq	r0, SPSR
    2850:	08f40000 	ldmeq	r4!, {}^	; <UNPREDICTABLE>
    2854:	0ca0f000 	stceq	0, cr15, [r0]
    2858:	03a0f000 	moveq	pc, #0
    285c:	04020000 	streq	r0, [r2], #-0
    2860:	00013005 	andeq	r3, r1, r5
    2864:	07040200 	streq	r0, [r4, -r0, lsl #4]
    2868:	0000022f 	andeq	r0, r0, pc, lsr #4
    286c:	2a070402 	bcs	1c387c <__standby_start+0x1c387c>
    2870:	02000002 	andeq	r0, r0, #2
    2874:	02870702 	addeq	r0, r7, #524288	; 0x80000
    2878:	01020000 	tsteq	r2, r0
    287c:	0001da08 	andeq	sp, r1, r8, lsl #20
    2880:	08010200 	stmdaeq	r1, {r9}
    2884:	000001d1 	ldrdeq	r0, [r0], -r1
    2888:	69050403 	stmdbvs	r5, {r0, r1, sl}
    288c:	0200746e 	andeq	r7, r0, #1845493760	; 0x6e000000
    2890:	01d30601 	bicseq	r0, r3, r1, lsl #12
    2894:	02020000 	andeq	r0, r2, #0
    2898:	0001df05 	andeq	sp, r1, r5, lsl #30
    289c:	0e100400 	cfmulseq	mvf0, mvf0, mvf0
    28a0:	19020000 	stmdbne	r2, {}	; <UNPREDICTABLE>
    28a4:	0000004f 	andeq	r0, r0, pc, asr #32
    28a8:	0000fc04 	andeq	pc, r0, r4, lsl #24
    28ac:	2c1a0200 	lfmcs	f0, 4, [sl], {-0}
    28b0:	02000000 	andeq	r0, r0, #0
    28b4:	012b0508 	teqeq	fp, r8, lsl #10
    28b8:	08020000 	stmdaeq	r2, {}	; <UNPREDICTABLE>
    28bc:	00022507 	andeq	r2, r2, r7, lsl #10
    28c0:	58010500 	stmdapl	r1, {r8, sl}
    28c4:	01000014 	tsteq	r0, r4, lsl r0
    28c8:	08f4011d 	ldmeq	r4!, {r0, r2, r3, r4, r8}^
    28cc:	0920f000 	stmdbeq	r0!, {ip, sp, lr, pc}
    28d0:	7d02f000 	stcvc	0, cr15, [r2, #-0]
    28d4:	0000b900 	andeq	fp, r0, r0, lsl #18
    28d8:	00690600 	rsbeq	r0, r9, r0, lsl #12
    28dc:	006f1f01 	rsbeq	r1, pc, r1, lsl #30
    28e0:	b3070000 	movwlt	r0, #28672	; 0x7000
    28e4:	01000014 	tsteq	r0, r4, lsl r0
    28e8:	00006f20 	andeq	r6, r0, r0, lsr #30
    28ec:	00012d00 	andeq	r2, r1, r0, lsl #26
    28f0:	01050000 	tsteq	r5, r0
    28f4:	0000165a 	andeq	r1, r0, sl, asr r6
    28f8:	20014701 	andcs	r4, r1, r1, lsl #14
    28fc:	4cf00009 	ldclmi	0, cr0, [r0], #36	; 0x24
    2900:	02f00009 	rscseq	r0, r0, #9
    2904:	00ea007d 	rsceq	r0, sl, sp, ror r0
    2908:	69060000 	stmdbvs	r6, {}	; <UNPREDICTABLE>
    290c:	6f490100 	svcvs	0x00490100
    2910:	07000000 	streq	r0, [r0, -r0]
    2914:	000014b3 			; <UNDEFINED> instruction: 0x000014b3
    2918:	006f4a01 	rsbeq	r4, pc, r1, lsl #20
    291c:	01620000 	cmneq	r2, r0
    2920:	05000000 	streq	r0, [r0, #-0]
    2924:	0015f001 	andseq	pc, r5, r1
    2928:	017f0100 	cmneq	pc, r0, lsl #2
    292c:	f000094c 			; <UNDEFINED> instruction: 0xf000094c
    2930:	f0000978 			; <UNDEFINED> instruction: 0xf0000978
    2934:	1b007d02 	blne	21d44 <__standby_start+0x21d44>
    2938:	06000001 	streq	r0, [r0], -r1
    293c:	81010069 	tsthi	r1, r9, rrx
    2940:	0000006f 	andeq	r0, r0, pc, rrx
    2944:	0014b307 	andseq	fp, r4, r7, lsl #6
    2948:	6f820100 	svcvs	0x00820100
    294c:	97000000 	strls	r0, [r0, -r0]
    2950:	00000001 	andeq	r0, r0, r1
    2954:	14f00108 	ldrbtne	r0, [r0], #264	; 0x108
    2958:	8e010000 	cdphi	0, 0, cr0, cr1, cr0, {0}
    295c:	00097801 	andeq	r7, r9, r1, lsl #16
    2960:	00097cf0 	strdeq	r7, [r9], -r0
    2964:	007d02f0 	ldrshteq	r0, [sp], #-32	; 0xffffffe0
    2968:	141b0105 	ldrne	r0, [fp], #-261	; 0xfffffefb
    296c:	a2010000 	andge	r0, r1, #0
    2970:	00097c01 	andeq	r7, r9, r1, lsl #24
    2974:	0009a4f0 	strdeq	sl, [r9], -r0
    2978:	007d02f0 	ldrshteq	r0, [sp], #-32	; 0xffffffe0
    297c:	00000170 	andeq	r0, r0, r0, ror r1
    2980:	0015e709 	andseq	lr, r5, r9, lsl #14
    2984:	6fa20100 	svcvs	0x00a20100
    2988:	01000000 	tsteq	r0, r0
    298c:	6e6f0a50 	mcrvs	10, 3, r0, cr15, cr0, {2}
    2990:	6fa20100 	svcvs	0x00a20100
    2994:	01000000 	tsteq	r0, r0
    2998:	14b30751 	ldrtne	r0, [r3], #1873	; 0x751
    299c:	a4010000 	strge	r0, [r1], #-0
    29a0:	0000006f 	andeq	r0, r0, pc, rrx
    29a4:	000001cc 	andeq	r0, r0, ip, asr #3
    29a8:	7b010b00 	blvc	455b0 <__standby_start+0x455b0>
    29ac:	01000014 	tsteq	r0, r4, lsl r0
    29b0:	09a40156 	stmibeq	r4!, {r1, r2, r4, r6, r8}
    29b4:	0a08f000 	beq	23e9bc <__standby_start+0x23e9bc>
    29b8:	01f5f000 	mvnseq	pc, r0
    29bc:	01a60000 			; <UNDEFINED> instruction: 0x01a60000
    29c0:	690c0000 	stmdbvs	ip, {}	; <UNPREDICTABLE>
    29c4:	6f580100 	svcvs	0x00580100
    29c8:	15000000 	strne	r0, [r0, #-0]
    29cc:	07000002 	streq	r0, [r0, -r2]
    29d0:	000014b3 			; <UNDEFINED> instruction: 0x000014b3
    29d4:	006f5901 	rsbeq	r5, pc, r1, lsl #18
    29d8:	02340000 	eorseq	r0, r4, #0
    29dc:	0b000000 	bleq	29e4 <__standby_start+0x29e4>
    29e0:	0015b201 	andseq	fp, r5, r1, lsl #4
    29e4:	012c0100 	teqeq	ip, r0, lsl #2
    29e8:	f0000a08 			; <UNDEFINED> instruction: 0xf0000a08
    29ec:	f0000a68 			; <UNDEFINED> instruction: 0xf0000a68
    29f0:	0000027f 	andeq	r0, r0, pc, ror r2
    29f4:	000001dc 	ldrdeq	r0, [r0], -ip
    29f8:	0100690c 	tsteq	r0, ip, lsl #18
    29fc:	00006f2e 	andeq	r6, r0, lr, lsr #30
    2a00:	00029f00 	andeq	r9, r2, r0, lsl #30
    2a04:	14b30700 	ldrtne	r0, [r3], #1792	; 0x700
    2a08:	2f010000 	svccs	0x00010000
    2a0c:	0000006f 	andeq	r0, r0, pc, rrx
    2a10:	000002be 			; <UNDEFINED> instruction: 0x000002be
    2a14:	0f010d00 	svceq	0x00010d00
    2a18:	01000016 	tsteq	r0, r6, lsl r0
    2a1c:	006f01be 	strhteq	r0, [pc], #-30
    2a20:	0a680000 	beq	1a02a28 <__standby_start+0x1a02a28>
    2a24:	0a88f000 	beq	fe23ea2c <__bss_end+0xe23c9e4>
    2a28:	7d02f000 	stcvc	0, cr15, [r2, #-0]
    2a2c:	00021500 	andeq	r1, r2, r0, lsl #10
    2a30:	15e70e00 	strbne	r0, [r7, #3584]!	; 0xe00
    2a34:	be010000 	cdplt	0, 0, cr0, cr1, cr0, {0}
    2a38:	0000006f 	andeq	r0, r0, pc, rrx
    2a3c:	00000309 	andeq	r0, r0, r9, lsl #6
    2a40:	0014b30f 	andseq	fp, r4, pc, lsl #6
    2a44:	6fc00100 	svcvs	0x00c00100
    2a48:	01000000 	tsteq	r0, r0
    2a4c:	010b0053 	qaddeq	r0, r3, fp
    2a50:	00001506 	andeq	r1, r0, r6, lsl #10
    2a54:	8801db01 	stmdahi	r1, {r0, r8, r9, fp, ip, lr, pc}
    2a58:	d0f0000a 	rscsle	r0, r0, sl
    2a5c:	1cf0000a 	ldclne	0, cr0, [r0], #40	; 0x28
    2a60:	78000003 	stmdavc	r0, {r0, r1}
    2a64:	09000002 	stmdbeq	r0, {r1}
    2a68:	000015e7 	andeq	r1, r0, r7, ror #11
    2a6c:	006fdb01 	rsbeq	sp, pc, r1, lsl #22
    2a70:	50010000 	andpl	r0, r1, r0
    2a74:	0016340e 	andseq	r3, r6, lr, lsl #8
    2a78:	6fdb0100 	svcvs	0x00db0100
    2a7c:	3c000000 	stccc	0, cr0, [r0], {-0}
    2a80:	0e000003 	cdpeq	0, 0, cr0, cr0, cr3, {0}
    2a84:	0000146b 	andeq	r1, r0, fp, ror #8
    2a88:	006fdb01 	rsbeq	sp, pc, r1, lsl #22
    2a8c:	034f0000 	movteq	r0, #61440	; 0xf000
    2a90:	ca0e0000 	bgt	382a98 <__standby_start+0x382a98>
    2a94:	01000015 	tsteq	r0, r5, lsl r0
    2a98:	00006fdb 	ldrdeq	r6, [r0], -fp
    2a9c:	00036200 	andeq	r6, r3, r0, lsl #4
    2aa0:	14b30700 	ldrtne	r0, [r3], #1792	; 0x700
    2aa4:	dd010000 	stcle	0, cr0, [r1, #-0]
    2aa8:	0000006f 	andeq	r0, r0, pc, rrx
    2aac:	00000375 	andeq	r0, r0, r5, ror r3
    2ab0:	e1011000 	tst	r1, r0
    2ab4:	01000014 	tsteq	r0, r4, lsl r0
    2ab8:	006f01fc 	strdeq	r0, [pc], #-28	; <UNPREDICTABLE>
    2abc:	0ad00000 	beq	ff402ac4 <__bss_end+0xf400a7c>
    2ac0:	0b00f000 	bleq	3eac8 <__standby_start+0x3eac8>
    2ac4:	03caf000 	biceq	pc, sl, #0
    2ac8:	02ae0000 	adceq	r0, lr, #0
    2acc:	69060000 	stmdbvs	r6, {}	; <UNPREDICTABLE>
    2ad0:	6ffe0100 	svcvs	0x00fe0100
    2ad4:	07000000 	streq	r0, [r0, -r0]
    2ad8:	000014b3 			; <UNDEFINED> instruction: 0x000014b3
    2adc:	006fff01 	rsbeq	pc, pc, r1, lsl #30
    2ae0:	03ea0000 	mvneq	r0, #0
    2ae4:	11000000 	tstne	r0, r0
    2ae8:	00140a01 	andseq	r0, r4, r1, lsl #20
    2aec:	010b0100 	tsteq	fp, r0, lsl #2
    2af0:	00006401 	andeq	r6, r0, r1, lsl #8
    2af4:	000b0000 	andeq	r0, fp, r0
    2af8:	000c28f0 	strdeq	r2, [ip], -r0
    2afc:	00041ef0 	strdeq	r1, [r4], -r0
    2b00:	0003db00 	andeq	sp, r3, r0, lsl #22
    2b04:	00691200 	rsbeq	r1, r9, r0, lsl #4
    2b08:	6f010d01 	svcvs	0x00010d01
    2b0c:	13000000 	movwne	r0, #0
    2b10:	000014b3 			; <UNDEFINED> instruction: 0x000014b3
    2b14:	6f010e01 	svcvs	0x00010e01
    2b18:	4a000000 	bmi	2b20 <__standby_start+0x2b20>
    2b1c:	13000004 	movwne	r0, #4
    2b20:	00001431 	andeq	r1, r0, r1, lsr r4
    2b24:	6f010f01 	svcvs	0x00010f01
    2b28:	8a000000 	bhi	2b30 <__standby_start+0x2b30>
    2b2c:	13000004 	movwne	r0, #4
    2b30:	00001450 	andeq	r1, r0, r0, asr r4
    2b34:	6f011001 	svcvs	0x00011001
    2b38:	a8000000 	stmdage	r0, {}	; <UNPREDICTABLE>
    2b3c:	13000004 	movwne	r0, #4
    2b40:	00001439 	andeq	r1, r0, r9, lsr r4
    2b44:	6f011001 	svcvs	0x00011001
    2b48:	c7000000 	strgt	r0, [r0, -r0]
    2b4c:	14000004 	strne	r0, [r0], #-4
    2b50:	000014aa 	andeq	r1, r0, sl, lsr #9
    2b54:	6f011001 	svcvs	0x00011001
    2b58:	01000000 	tsteq	r0, r0
    2b5c:	1549145b 	strbne	r1, [r9, #-1115]	; 0xfffffba5
    2b60:	10010000 	andne	r0, r1, r0
    2b64:	00006f01 	andeq	r6, r0, r1, lsl #30
    2b68:	14590100 	ldrbne	r0, [r9], #-256	; 0xffffff00
    2b6c:	00001552 	andeq	r1, r0, r2, asr r5
    2b70:	6f011001 	svcvs	0x00011001
    2b74:	01000000 	tsteq	r0, r0
    2b78:	157f145a 	ldrbne	r1, [pc, #-1114]!	; 2726 <__standby_start+0x2726>
    2b7c:	10010000 	andne	r0, r1, r0
    2b80:	00006f01 	andeq	r6, r0, r1, lsl #30
    2b84:	14580100 	ldrbne	r0, [r8], #-256	; 0xffffff00
    2b88:	00001607 	andeq	r1, r0, r7, lsl #12
    2b8c:	6f011001 	svcvs	0x00011001
    2b90:	01000000 	tsteq	r0, r0
    2b94:	14cf1457 	strbne	r1, [pc], #1111	; 2b9c <__standby_start+0x2b9c>
    2b98:	10010000 	andne	r0, r1, r0
    2b9c:	00006f01 	andeq	r6, r0, r1, lsl #30
    2ba0:	14560100 	ldrbne	r0, [r6], #-256	; 0xffffff00
    2ba4:	000014d8 	ldrdeq	r1, [r0], -r8
    2ba8:	6f011001 	svcvs	0x00011001
    2bac:	01000000 	tsteq	r0, r0
    2bb0:	15a81355 	strne	r1, [r8, #853]!	; 0x355
    2bb4:	11010000 	tstne	r1, r0
    2bb8:	00006f01 	andeq	r6, r0, r1, lsl #30
    2bbc:	0004e600 	andeq	lr, r4, r0, lsl #12
    2bc0:	151b1300 	ldrne	r1, [fp, #-768]	; 0xfffffd00
    2bc4:	11010000 	tstne	r1, r0
    2bc8:	00006f01 	andeq	r6, r0, r1, lsl #30
    2bcc:	00050500 	andeq	r0, r5, r0, lsl #10
    2bd0:	0b481500 	bleq	1207fd8 <__standby_start+0x1207fd8>
    2bd4:	0c14f000 	ldceq	0, cr15, [r4], {-0}
    2bd8:	0116f000 	tsteq	r6, r0
    2bdc:	00001524 	andeq	r1, r0, r4, lsr #10
    2be0:	4f012301 	svcmi	0x00012301
    2be4:	01000000 	tsteq	r0, r0
    2be8:	000003b5 			; <UNDEFINED> instruction: 0x000003b5
    2bec:	01160017 	tsteq	r6, r7, lsl r0
    2bf0:	00001441 	andeq	r1, r0, r1, asr #8
    2bf4:	4f012401 	svcmi	0x00012401
    2bf8:	01000000 	tsteq	r0, r0
    2bfc:	000003c9 	andeq	r0, r0, r9, asr #7
    2c00:	01180017 	tsteq	r8, r7, lsl r0
    2c04:	00001492 	muleq	r0, r2, r4
    2c08:	4f015e01 	svcmi	0x00015e01
    2c0c:	01000000 	tsteq	r0, r0
    2c10:	00000017 	andeq	r0, r0, r7, lsl r0
    2c14:	01020119 	tsteq	r2, r9, lsl r1
    2c18:	65010000 	strvs	r0, [r1, #-0]
    2c1c:	0c280101 	stfeqs	f0, [r8], #-4
    2c20:	0c44f000 	mareq	acc0, pc, r4
    2c24:	0519f000 	ldreq	pc, [r9, #-0]
    2c28:	04020000 	streq	r0, [r2], #-0
    2c2c:	b31a0000 	tstlt	sl, #0
    2c30:	01000014 	tsteq	r0, r4, lsl r0
    2c34:	006f0167 	rsbeq	r0, pc, r7, ror #2
    2c38:	11000000 	tstne	r0, r0
    2c3c:	00008201 	andeq	r8, r0, r1, lsl #4
    2c40:	01750100 	cmneq	r5, r0, lsl #2
    2c44:	00006f01 	andeq	r6, r0, r1, lsl #30
    2c48:	000c4400 	andeq	r4, ip, r0, lsl #8
    2c4c:	000c84f0 	strdeq	r8, [ip], -r0
    2c50:	000539f0 	strdeq	r3, [r5], -r0
    2c54:	00043b00 	andeq	r3, r4, r0, lsl #22
    2c58:	00691200 	rsbeq	r1, r9, r0, lsl #4
    2c5c:	6f017701 	svcvs	0x00017701
    2c60:	13000000 	movwne	r0, #0
    2c64:	00001431 	andeq	r1, r0, r1, lsr r4
    2c68:	64017801 	strvs	r7, [r1], #-2049	; 0xfffff7ff
    2c6c:	59000000 	stmdbpl	r0, {}	; <UNPREDICTABLE>
    2c70:	00000005 	andeq	r0, r0, r5
    2c74:	1643011b 			; <UNDEFINED> instruction: 0x1643011b
    2c78:	95010000 	strls	r0, [r1, #-0]
    2c7c:	0c840101 	stfeqs	f0, [r4], {1}
    2c80:	0c88f000 	stceq	0, cr15, [r8], {0}
    2c84:	7d02f000 	stcvc	0, cr15, [r2, #-0]
    2c88:	69011b00 	stmdbvs	r1, {r8, r9, fp, ip}
    2c8c:	01000016 	tsteq	r0, r6, lsl r0
    2c90:	8801019b 	stmdahi	r1, {r0, r1, r3, r4, r7, r8}
    2c94:	8cf0000c 	ldclhi	0, cr0, [r0], #48	; 0x30
    2c98:	02f0000c 	rscseq	r0, r0, #12
    2c9c:	011b007d 	tsteq	fp, sp, ror r0
    2ca0:	00001586 	andeq	r1, r0, r6, lsl #11
    2ca4:	0101a101 	tsteq	r1, r1, lsl #2
    2ca8:	f0000c8c 			; <UNDEFINED> instruction: 0xf0000c8c
    2cac:	f0000c90 			; <UNDEFINED> instruction: 0xf0000c90
    2cb0:	1b007d02 	blne	220c0 <__standby_start+0x220c0>
    2cb4:	0015d201 	andseq	sp, r5, r1, lsl #4
    2cb8:	01a70100 			; <UNDEFINED> instruction: 0x01a70100
    2cbc:	000c9001 	andeq	r9, ip, r1
    2cc0:	000c94f0 	strdeq	r9, [ip], -r0
    2cc4:	007d02f0 	ldrshteq	r0, [sp], #-32	; 0xffffffe0
    2cc8:	1534011c 	ldrne	r0, [r4, #-284]!	; 0xfffffee4
    2ccc:	ad010000 	stcge	0, cr0, [r1, #-0]
    2cd0:	0c940101 	ldfeqs	f0, [r4], {1}
    2cd4:	0c98f000 	ldceq	0, cr15, [r8], {0}
    2cd8:	7d02f000 	stcvc	0, cr15, [r2, #-0]
    2cdc:	0004c400 	andeq	ip, r4, r0, lsl #8
    2ce0:	15e71d00 	strbne	r1, [r7, #3328]!	; 0xd00
    2ce4:	ad010000 	stcge	0, cr0, [r1, #-0]
    2ce8:	00006f01 	andeq	r6, r0, r1, lsl #30
    2cec:	1e500100 	rdfnes	f0, f0, f0
    2cf0:	01006e6f 	tsteq	r0, pc, ror #28
    2cf4:	006f01ad 	rsbeq	r0, pc, sp, lsr #3
    2cf8:	51010000 	tstpl	r1, r0
    2cfc:	5b011f00 	blpl	4a904 <__standby_start+0x4a904>
    2d00:	01000015 	tsteq	r0, r5, lsl r0
    2d04:	6f0101b3 	svcvs	0x000101b3
    2d08:	98000000 	stmdals	r0, {}	; <UNPREDICTABLE>
    2d0c:	9cf0000c 	ldclls	0, cr0, [r0], #48	; 0x30
    2d10:	02f0000c 	rscseq	r0, r0, #12
    2d14:	04f0007d 	ldrbteq	r0, [r0], #125	; 0x7d
    2d18:	e71d0000 	ldr	r0, [sp, -r0]
    2d1c:	01000015 	tsteq	r0, r5, lsl r0
    2d20:	006f01b3 	strhteq	r0, [pc], #-19
    2d24:	50010000 	andpl	r0, r1, r0
    2d28:	bb012000 	bllt	4ad30 <__standby_start+0x4ad30>
    2d2c:	01000014 	tsteq	r0, r4, lsl r0
    2d30:	9c0101b9 	stflss	f0, [r1], {185}	; 0xb9
    2d34:	a0f0000c 	rscsge	r0, r0, ip
    2d38:	02f0000c 	rscseq	r0, r0, #12
    2d3c:	1e1d007d 	mrcne	0, 0, r0, cr13, cr13, {3}
    2d40:	01000001 	tsteq	r0, r1
    2d44:	006f01b9 	strhteq	r0, [pc], #-25
    2d48:	50010000 	andpl	r0, r1, r0
    2d4c:	0014051d 	andseq	r0, r4, sp, lsl r5
    2d50:	01b90100 			; <UNDEFINED> instruction: 0x01b90100
    2d54:	0000006f 	andeq	r0, r0, pc, rrx
    2d58:	701d5101 	andsvc	r5, sp, r1, lsl #2
    2d5c:	01000014 	tsteq	r0, r4, lsl r0
    2d60:	006f01b9 	strhteq	r0, [pc], #-25
    2d64:	52010000 	andpl	r0, r1, #0
    2d68:	0015ca1d 	andseq	ip, r5, sp, lsl sl
    2d6c:	01b90100 			; <UNDEFINED> instruction: 0x01b90100
    2d70:	0000006f 	andeq	r0, r0, pc, rrx
    2d74:	00005301 	andeq	r5, r0, r1, lsl #6
    2d78:	00000650 	andeq	r0, r0, r0, asr r6
    2d7c:	05a50002 	streq	r0, [r5, #2]!
    2d80:	01040000 	tsteq	r4, r0
    2d84:	000002ed 	andeq	r0, r0, sp, ror #5
    2d88:	00185c01 	andseq	r5, r8, r1, lsl #24
    2d8c:	00014100 	andeq	r4, r1, r0, lsl #2
    2d90:	000ca000 	andeq	sl, ip, r0
    2d94:	001330f0 	ldrsheq	r3, [r3], -r0
    2d98:	00050ff0 	strdeq	r0, [r5], -r0	; <UNPREDICTABLE>
    2d9c:	05040200 	streq	r0, [r4, #-512]	; 0xfffffe00
    2da0:	00000130 	andeq	r0, r0, r0, lsr r1
    2da4:	2f070402 	svccs	0x00070402
    2da8:	02000002 	andeq	r0, r0, #2
    2dac:	022a0704 	eoreq	r0, sl, #4, 14	; 0x100000
    2db0:	02020000 	andeq	r0, r2, #0
    2db4:	00028707 	andeq	r8, r2, r7, lsl #14
    2db8:	08010200 	stmdaeq	r1, {r9}
    2dbc:	000001da 	ldrdeq	r0, [r0], -sl
    2dc0:	0016e203 	andseq	lr, r6, r3, lsl #4
    2dc4:	18035000 	stmdane	r3, {ip, lr}
    2dc8:	0000016d 	andeq	r0, r0, sp, ror #2
    2dcc:	00184e04 	andseq	r4, r8, r4, lsl #28
    2dd0:	2c1a0300 	ldccs	3, cr0, [sl], {-0}
    2dd4:	02000000 	andeq	r0, r0, #0
    2dd8:	ac040023 	stcge	0, cr0, [r4], {35}	; 0x23
    2ddc:	03000018 	movweq	r0, #24
    2de0:	00002c1b 	andeq	r2, r0, fp, lsl ip
    2de4:	04230200 	strteq	r0, [r3], #-512	; 0xfffffe00
    2de8:	0018f904 	andseq	pc, r8, r4, lsl #18
    2dec:	2c1c0300 	ldccs	3, cr0, [ip], {-0}
    2df0:	02000000 	andeq	r0, r0, #0
    2df4:	40040823 	andmi	r0, r4, r3, lsr #16
    2df8:	03000018 	movweq	r0, #24
    2dfc:	00002c1d 	andeq	r2, r0, sp, lsl ip
    2e00:	0c230200 	sfmeq	f0, 4, [r3], #-0
    2e04:	00179604 	andseq	r9, r7, r4, lsl #12
    2e08:	2c1e0300 	ldccs	3, cr0, [lr], {-0}
    2e0c:	02000000 	andeq	r0, r0, #0
    2e10:	eb041023 	bl	106ea4 <__standby_start+0x106ea4>
    2e14:	03000018 	movweq	r0, #24
    2e18:	00002c1f 	andeq	r2, r0, pc, lsl ip
    2e1c:	14230200 	strtne	r0, [r3], #-512	; 0xfffffe00
    2e20:	00181504 	andseq	r1, r8, r4, lsl #10
    2e24:	2c200300 	stccs	3, cr0, [r0], #-0
    2e28:	02000000 	andeq	r0, r0, #0
    2e2c:	03041823 	movweq	r1, #18467	; 0x4823
    2e30:	03000019 	movweq	r0, #25
    2e34:	00002c21 	andeq	r2, r0, r1, lsr #24
    2e38:	1c230200 	sfmne	f0, 4, [r3], #-0
    2e3c:	00188604 	andseq	r8, r8, r4, lsl #12
    2e40:	2c220300 	stccs	3, cr0, [r2], #-0
    2e44:	02000000 	andeq	r0, r0, #0
    2e48:	cd042023 	stcgt	0, cr2, [r4, #-140]	; 0xffffff74
    2e4c:	03000017 	movweq	r0, #23
    2e50:	00002c23 	andeq	r2, r0, r3, lsr #24
    2e54:	24230200 	strtcs	r0, [r3], #-512	; 0xfffffe00
    2e58:	0016c704 	andseq	ip, r6, r4, lsl #14
    2e5c:	2c240300 	stccs	3, cr0, [r4], #-0
    2e60:	02000000 	andeq	r0, r0, #0
    2e64:	20042823 	andcs	r2, r4, r3, lsr #16
    2e68:	03000017 	movweq	r0, #23
    2e6c:	00002c25 	andeq	r2, r0, r5, lsr #24
    2e70:	2c230200 	sfmcs	f0, 4, [r3], #-0
    2e74:	00172a04 	andseq	r2, r7, r4, lsl #20
    2e78:	2c260300 	stccs	3, cr0, [r6], #-0
    2e7c:	02000000 	andeq	r0, r0, #0
    2e80:	34043023 	strcc	r3, [r4], #-35	; 0xffffffdd
    2e84:	03000017 	movweq	r0, #23
    2e88:	00002c27 	andeq	r2, r0, r7, lsr #24
    2e8c:	34230200 	strtcc	r0, [r3], #-512	; 0xfffffe00
    2e90:	00173e04 	andseq	r3, r7, r4, lsl #28
    2e94:	2c280300 	stccs	3, cr0, [r8], #-0
    2e98:	02000000 	andeq	r0, r0, #0
    2e9c:	48043823 	stmdami	r4, {r0, r1, r5, fp, ip, sp}
    2ea0:	03000017 	movweq	r0, #23
    2ea4:	00002c29 	andeq	r2, r0, r9, lsr #24
    2ea8:	3c230200 	sfmcc	f0, 4, [r3], #-0
    2eac:	00175204 	andseq	r5, r7, r4, lsl #4
    2eb0:	2c2a0300 	stccs	3, cr0, [sl], #-0
    2eb4:	02000000 	andeq	r0, r0, #0
    2eb8:	6f044023 	svcvs	0x00044023
    2ebc:	03000017 	movweq	r0, #23
    2ec0:	00002c2b 	andeq	r2, r0, fp, lsr #24
    2ec4:	44230200 	strtmi	r0, [r3], #-512	; 0xfffffe00
    2ec8:	00188e04 	andseq	r8, r8, r4, lsl #28
    2ecc:	2c2c0300 	stccs	3, cr0, [ip], #-0
    2ed0:	02000000 	andeq	r0, r0, #0
    2ed4:	98044823 	stmdals	r4, {r0, r1, r5, fp, lr}
    2ed8:	03000018 	movweq	r0, #24
    2edc:	00002c2d 	andeq	r2, r0, sp, lsr #24
    2ee0:	4c230200 	sfmmi	f0, 4, [r3], #-0
    2ee4:	08010200 	stmdaeq	r1, {r9}
    2ee8:	000001d1 	ldrdeq	r0, [r0], -r1
    2eec:	69050405 	stmdbvs	r5, {r0, r2, sl}
    2ef0:	0200746e 	andeq	r7, r0, #1845493760	; 0x6e000000
    2ef4:	01d30601 	bicseq	r0, r3, r1, lsl #12
    2ef8:	02020000 	andeq	r0, r2, #0
    2efc:	0001df05 	andeq	sp, r1, r5, lsl #30
    2f00:	0e100600 	cfmsub32eq	mvax0, mvfx0, mvfx0, mvfx0
    2f04:	19020000 	stmdbne	r2, {}	; <UNPREDICTABLE>
    2f08:	00000174 	andeq	r0, r0, r4, ror r1
    2f0c:	0000fc06 	andeq	pc, r0, r6, lsl #24
    2f10:	2c1a0200 	lfmcs	f0, 4, [sl], {-0}
    2f14:	02000000 	andeq	r0, r0, #0
    2f18:	012b0508 	teqeq	fp, r8, lsl #10
    2f1c:	9d060000 	stcls	0, cr0, [r6, #-0]
    2f20:	02000016 	andeq	r0, r0, #22
    2f24:	0001b11c 	andeq	fp, r1, ip, lsl r1
    2f28:	07080200 	streq	r0, [r8, -r0, lsl #4]
    2f2c:	00000225 	andeq	r0, r0, r5, lsr #4
    2f30:	0016e006 	andseq	lr, r6, r6
    2f34:	48180100 	ldmdami	r8, {r8}
    2f38:	07000000 	streq	r0, [r0, -r0]
    2f3c:	0017d901 	andseq	sp, r7, r1, lsl #18
    2f40:	017f0100 	cmneq	pc, r0, lsl #2
    2f44:	00018901 	andeq	r8, r1, r1, lsl #18
    2f48:	12080100 	andne	r0, r8, #0, 2
    2f4c:	02000017 	andeq	r0, r0, #23
    2f50:	01a6011f 			; <UNDEFINED> instruction: 0x01a6011f
    2f54:	1b030000 	blne	c2f5c <__standby_start+0xc2f5c>
    2f58:	09000002 	stmdbeq	r0, {r1}
    2f5c:	000017c4 	andeq	r1, r0, r4, asr #15
    2f60:	01a61f02 			; <UNDEFINED> instruction: 0x01a61f02
    2f64:	09090000 	stmdbeq	r9, {}	; <UNPREDICTABLE>
    2f68:	02000017 	andeq	r0, r0, #23
    2f6c:	0001941f 	andeq	r9, r1, pc, lsl r4
    2f70:	18c50a00 	stmiane	r5, {r9, fp}^
    2f74:	21020000 	tstcs	r2, r0
    2f78:	000001a6 	andeq	r0, r0, r6, lsr #3
    2f7c:	0016950a 	andseq	r9, r6, sl, lsl #10
    2f80:	a6220200 	strtge	r0, [r2], -r0, lsl #4
    2f84:	0a000001 	beq	2f90 <__standby_start+0x2f90>
    2f88:	00001bb9 			; <UNDEFINED> instruction: 0x00001bb9
    2f8c:	01892302 	orreq	r2, r9, r2, lsl #6
    2f90:	0b000000 	bleq	2f98 <__standby_start+0x2f98>
    2f94:	00152401 	andseq	r2, r5, r1, lsl #8
    2f98:	01290100 	teqeq	r9, r0, lsl #2
    2f9c:	f0000ca0 			; <UNDEFINED> instruction: 0xf0000ca0
    2fa0:	f0000d0c 			; <UNDEFINED> instruction: 0xf0000d0c
    2fa4:	00000577 	andeq	r0, r0, r7, ror r5
    2fa8:	0000024e 	andeq	r0, r0, lr, asr #4
    2fac:	0014b30c 	andseq	fp, r4, ip, lsl #6
    2fb0:	942b0100 	strtls	r0, [fp], #-256	; 0xffffff00
    2fb4:	97000001 	strls	r0, [r0, -r1]
    2fb8:	0d000005 	stceq	0, cr0, [r0, #-20]	; 0xffffffec
    2fbc:	2c010069 	stccs	0, cr0, [r1], {105}	; 0x69
    2fc0:	00000194 	muleq	r0, r4, r1
    2fc4:	010e0000 	tsteq	lr, r0
    2fc8:	00001441 	andeq	r1, r0, r1, asr #8
    2fcc:	0c014801 	stceq	8, cr4, [r1], {1}
    2fd0:	2cf0000d 	ldclcs	0, cr0, [r0], #52	; 0x34
    2fd4:	02f0000d 	rscseq	r0, r0, #13
    2fd8:	0276007d 	rsbseq	r0, r6, #125	; 0x7d
    2fdc:	b30c0000 	movwlt	r0, #49152	; 0xc000
    2fe0:	01000014 	tsteq	r0, r4, lsl r0
    2fe4:	0001944a 	andeq	r9, r1, sl, asr #8
    2fe8:	00061900 	andeq	r1, r6, r0, lsl #18
    2fec:	010e0000 	tsteq	lr, r0
    2ff0:	0000186d 	andeq	r1, r0, sp, ror #16
    2ff4:	2c015301 	stccs	3, cr5, [r1], {1}
    2ff8:	44f0000d 	ldrbtmi	r0, [r0], #13
    2ffc:	02f0000d 	rscseq	r0, r0, #13
    3000:	029e007d 	addseq	r0, lr, #125	; 0x7d
    3004:	b30c0000 	movwlt	r0, #49152	; 0xc000
    3008:	01000014 	tsteq	r0, r4, lsl r0
    300c:	00019455 	andeq	r9, r1, r5, asr r4
    3010:	00064800 	andeq	r4, r6, r0, lsl #16
    3014:	010e0000 	tsteq	lr, r0
    3018:	000018b5 			; <UNDEFINED> instruction: 0x000018b5
    301c:	44015c01 	strmi	r5, [r1], #-3073	; 0xfffff3ff
    3020:	5cf0000d 	ldclpl	0, cr0, [r0], #52	; 0x34
    3024:	02f0000d 	rscseq	r0, r0, #13
    3028:	02c6007d 	sbceq	r0, r6, #125	; 0x7d
    302c:	b30c0000 	movwlt	r0, #49152	; 0xc000
    3030:	01000014 	tsteq	r0, r4, lsl r0
    3034:	0001945e 	andeq	r9, r1, lr, asr r4
    3038:	00067200 	andeq	r7, r6, r0, lsl #4
    303c:	010b0000 	tsteq	fp, r0
    3040:	000017ee 	andeq	r1, r0, lr, ror #15
    3044:	5c016501 	cfstr32pl	mvfx6, [r1], {1}
    3048:	b0f0000d 	rscslt	r0, r0, sp
    304c:	9cf0000d 	ldclls	0, cr0, [r0], #52	; 0x34
    3050:	ea000006 	b	3070 <__standby_start+0x3070>
    3054:	0d000002 	stceq	0, cr0, [r0, #-8]
    3058:	67010069 	strvs	r0, [r1, -r9, rrx]
    305c:	00000194 	muleq	r0, r4, r1
    3060:	010b0000 	tsteq	fp, r0
    3064:	000016ac 	andeq	r1, r0, ip, lsr #13
    3068:	b0017301 	andlt	r7, r1, r1, lsl #6
    306c:	54f0000d 	ldrbtpl	r0, [r0], #13
    3070:	bcf0000e 	ldcllt	0, cr0, [r0], #56	; 0x38
    3074:	11000006 	tstne	r0, r6
    3078:	0f000003 	svceq	0x00000003
    307c:	75010069 	strvc	r0, [r1, #-105]	; 0xffffff97
    3080:	00000194 	muleq	r0, r4, r1
    3084:	000006dc 	ldrdeq	r0, [r0], -ip
    3088:	b3010e00 	movwlt	r0, #7680	; 0x1e00
    308c:	01000017 	tsteq	r0, r7, lsl r0
    3090:	0e54018c 	rdfeqd	f0, f4, #4.0
    3094:	0eb0f000 	cdpeq	0, 11, cr15, cr0, cr0, {0}
    3098:	7d02f000 	stcvc	0, cr15, [r2, #-0]
    309c:	00033900 	andeq	r3, r3, r0, lsl #18
    30a0:	14b30c00 	ldrtne	r0, [r3], #3072	; 0xc00
    30a4:	8e010000 	cdphi	0, 0, cr0, cr1, cr0, {0}
    30a8:	00000194 	muleq	r0, r4, r1
    30ac:	00000729 	andeq	r0, r0, r9, lsr #14
    30b0:	92010e00 	andls	r0, r1, #0, 28
    30b4:	01000014 	tsteq	r0, r4, lsl r0
    30b8:	0eb001b5 	mrceq	1, 5, r0, cr0, cr5, {5}
    30bc:	0ee4f000 	cdpeq	0, 14, cr15, cr4, cr0, {0}
    30c0:	7d02f000 	stcvc	0, cr15, [r2, #-0]
    30c4:	00035f00 	andeq	r5, r3, r0, lsl #30
    30c8:	00690f00 	rsbeq	r0, r9, r0, lsl #30
    30cc:	0194b701 	orrseq	fp, r4, r1, lsl #14
    30d0:	07d60000 	ldrbeq	r0, [r6, r0]
    30d4:	0b000000 	bleq	30dc <__standby_start+0x30dc>
    30d8:	00167f01 	andseq	r7, r6, r1, lsl #30
    30dc:	01bf0100 			; <UNDEFINED> instruction: 0x01bf0100
    30e0:	f0000ee4 			; <UNDEFINED> instruction: 0xf0000ee4
    30e4:	f0001004 			; <UNDEFINED> instruction: 0xf0001004
    30e8:	000007f5 	strdeq	r0, [r0], -r5
    30ec:	000003e4 	andeq	r0, r0, r4, ror #7
    30f0:	6b6c6310 	blvs	1b1bd38 <__standby_start+0x1b1bd38>
    30f4:	94bf0100 	ldrtls	r0, [pc], #256	; 30fc <__standby_start+0x30fc>
    30f8:	15000001 	strne	r0, [r0, #-1]
    30fc:	11000008 	tstne	r0, r8
    3100:	c1010069 	tstgt	r1, r9, rrx
    3104:	00000194 	muleq	r0, r4, r1
    3108:	0014b30c 	andseq	fp, r4, ip, lsl #6
    310c:	94c20100 	strbls	r0, [r2], #256	; 0x100
    3110:	28000001 	stmdacs	r0, {r0}
    3114:	12000008 	andne	r0, r0, #8
    3118:	000001d2 	ldrdeq	r0, [r0], -r2
    311c:	f0000f10 			; <UNDEFINED> instruction: 0xf0000f10
    3120:	f0000f78 			; <UNDEFINED> instruction: 0xf0000f78
    3124:	e313cb01 	tst	r3, #1024	; 0x400
    3128:	15000001 	strne	r0, [r0, #-1]
    312c:	14000009 	strne	r0, [r0], #-9
    3130:	f0000f10 			; <UNDEFINED> instruction: 0xf0000f10
    3134:	f0000f78 			; <UNDEFINED> instruction: 0xf0000f78
    3138:	0001f915 	andeq	pc, r1, r5, lsl r9	; <UNPREDICTABLE>
    313c:	00093d00 	andeq	r3, r9, r0, lsl #26
    3140:	02041500 	andeq	r1, r4, #0, 10
    3144:	09890000 	stmibeq	r9, {}	; <UNPREDICTABLE>
    3148:	0f150000 	svceq	0x00150000
    314c:	d5000002 	strle	r0, [r0, #-2]
    3150:	16000009 	strne	r0, [r0], -r9
    3154:	000001ee 	andeq	r0, r0, lr, ror #3
    3158:	00000018 	andeq	r0, r0, r8, lsl r0
    315c:	0001c317 	andeq	ip, r1, r7, lsl r3
    3160:	00100400 	andseq	r0, r0, r0, lsl #8
    3164:	00100cf0 			; <UNDEFINED> instruction: 0x00100cf0
    3168:	007d02f0 	ldrshteq	r0, [sp], #-32	; 0xffffffe0
    316c:	18d70118 	ldmne	r7, {r3, r4, r8}^
    3170:	91010000 	tstls	r1, r0
    3174:	01890101 	orreq	r0, r9, r1, lsl #2
    3178:	100c0000 	andne	r0, ip, r0
    317c:	1040f000 	subne	pc, r0, r0
    3180:	7d02f000 	stcvc	0, cr15, [r2, #-0]
    3184:	00042200 	andeq	r2, r4, r0, lsl #4
    3188:	14b31900 	ldrtne	r1, [r3], #2304	; 0x900
    318c:	93010000 	movwls	r0, #4096	; 0x1000
    3190:	00019401 	andeq	r9, r1, r1, lsl #8
    3194:	000a2400 	andeq	r2, sl, r0, lsl #8
    3198:	011a0000 	tsteq	sl, r0
    319c:	000017ff 	strdeq	r1, [r0], -pc	; <UNPREDICTABLE>
    31a0:	0101c401 	tsteq	r1, r1, lsl #8
    31a4:	f0001040 			; <UNDEFINED> instruction: 0xf0001040
    31a8:	f0001060 			; <UNDEFINED> instruction: 0xf0001060
    31ac:	59007d02 	stmdbpl	r0, {r1, r8, sl, fp, ip, sp, lr}
    31b0:	1b000004 	blne	31c8 <__standby_start+0x31c8>
    31b4:	01006e6f 	tsteq	r0, pc, ror #28
    31b8:	019401c4 	orrseq	r0, r4, r4, asr #3
    31bc:	50010000 	andpl	r0, r1, r0
    31c0:	0014b319 	andseq	fp, r4, r9, lsl r3
    31c4:	01c60100 	biceq	r0, r6, r0, lsl #2
    31c8:	00000194 	muleq	r0, r4, r1
    31cc:	00000a59 	andeq	r0, r0, r9, asr sl
    31d0:	24011a00 	strcs	r1, [r1], #-2560	; 0xfffff600
    31d4:	01000018 	tsteq	r0, r8, lsl r0
    31d8:	600101dc 	ldrdvs	r0, [r1], -ip
    31dc:	bcf00010 	ldcllt	0, cr0, [r0], #64	; 0x40
    31e0:	02f00010 	rscseq	r0, r0, #16
    31e4:	04b3007d 	ldrteq	r0, [r3], #125	; 0x7d
    31e8:	631c0000 	tstvs	ip, #0
    31ec:	01006b6c 	tsteq	r0, ip, ror #22
    31f0:	019401dc 			; <UNDEFINED> instruction: 0x019401dc
    31f4:	0a820000 	beq	fe0831fc <__bss_end+0xe0811b4>
    31f8:	b3190000 	tstlt	r9, #0
    31fc:	01000014 	tsteq	r0, r4, lsl r0
    3200:	019401de 			; <UNDEFINED> instruction: 0x019401de
    3204:	0a950000 	beq	fe54320c <__bss_end+0xe5411c4>
    3208:	c7190000 	ldrgt	r0, [r9, -r0]
    320c:	01000016 	tsteq	r0, r6, lsl r0
    3210:	019401df 			; <UNDEFINED> instruction: 0x019401df
    3214:	0ae30000 	beq	ff8c321c <__bss_end+0xf8c11d4>
    3218:	7e190000 	cdpvc	0, 1, cr0, cr9, cr0, {0}
    321c:	01000018 	tsteq	r0, r8, lsl r0
    3220:	019401e0 	orrseq	r0, r4, r0, ror #3
    3224:	0afc0000 	beq	fff0322c <__bss_end+0xff011e4>
    3228:	18000000 	stmdane	r0, {}	; <UNPREDICTABLE>
    322c:	0016bd01 	andseq	fp, r6, r1, lsl #26
    3230:	02080100 	andeq	r0, r8, #0, 2
    3234:	00019401 	andeq	r9, r1, r1, lsl #8
    3238:	0010bc00 	andseq	fp, r0, r0, lsl #24
    323c:	001130f0 	ldrsheq	r3, [r1], -r0
    3240:	007d02f0 	ldrshteq	r0, [sp], #-32	; 0xffffffe0
    3244:	00000501 	andeq	r0, r0, r1, lsl #10
    3248:	0014b319 	andseq	fp, r4, r9, lsl r3
    324c:	020a0100 	andeq	r0, sl, #0, 2
    3250:	00000194 	muleq	r0, r4, r1
    3254:	00000b1d 	andeq	r0, r0, sp, lsl fp
    3258:	0016c719 	andseq	ip, r6, r9, lsl r7
    325c:	020b0100 	andeq	r0, fp, #0, 2
    3260:	00000194 	muleq	r0, r4, r1
    3264:	00000b30 	andeq	r0, r0, r0, lsr fp
    3268:	0016a319 	andseq	sl, r6, r9, lsl r3
    326c:	020c0100 	andeq	r0, ip, #0, 2
    3270:	00000194 	muleq	r0, r4, r1
    3274:	00000b64 	andeq	r0, r0, r4, ror #22
    3278:	a8011d00 	stmdage	r1, {r8, sl, fp, ip}
    327c:	01000017 	tsteq	r0, r7, lsl r0
    3280:	018901ef 	orreq	r0, r9, pc, ror #3
    3284:	11300000 	teqne	r0, r0
    3288:	130cf000 	movwne	pc, #49152	; 0xc000	; <UNPREDICTABLE>
    328c:	0b77f000 	bleq	1dff294 <__standby_start+0x1dff294>
    3290:	05550000 	ldrbeq	r0, [r5, #-0]
    3294:	161e0000 	ldrne	r0, [lr], -r0
    3298:	01000003 	tsteq	r0, r3
    329c:	000555ef 	andeq	r5, r5, pc, ror #11
    32a0:	000b9700 	andeq	r9, fp, r0, lsl #14
    32a4:	00691100 	rsbeq	r1, r9, r0, lsl #2
    32a8:	0194f101 	orrseq	pc, r4, r1, lsl #2
    32ac:	b30c0000 	movwlt	r0, #49152	; 0xc000
    32b0:	01000014 	tsteq	r0, r4, lsl r0
    32b4:	000194f2 	strdeq	r9, [r1], -r2
    32b8:	000bb500 	andeq	fp, fp, r0, lsl #10
    32bc:	14310c00 	ldrtne	r0, [r1], #-3072	; 0xfffff400
    32c0:	f3010000 	vhadd.u8	d0, d1, d0
    32c4:	00000189 	andeq	r0, r0, r9, lsl #3
    32c8:	00000cbf 			; <UNDEFINED> instruction: 0x00000cbf
    32cc:	b8041f00 	stmdalt	r4, {r8, r9, sl, fp, ip}
    32d0:	20000001 	andcs	r0, r0, r1
    32d4:	0017e401 	andseq	lr, r7, r1, lsl #8
    32d8:	02280100 	eoreq	r0, r8, #0, 2
    32dc:	00018901 	andeq	r8, r1, r1, lsl #18
    32e0:	00130c00 	andseq	r0, r3, r0, lsl #24
    32e4:	001314f0 			; <UNDEFINED> instruction: 0x001314f0
    32e8:	007d02f0 	ldrshteq	r0, [sp], #-32	; 0xffffffe0
    32ec:	18a20120 	stmiane	r2!, {r5, r8}
    32f0:	2e010000 	cdpcs	0, 0, cr0, cr1, cr0, {0}
    32f4:	01890102 	orreq	r0, r9, r2, lsl #2
    32f8:	13140000 	tstne	r4, #0
    32fc:	131cf000 	tstne	ip, #0
    3300:	7d02f000 	stcvc	0, cr15, [r2, #-0]
    3304:	88012000 	stmdahi	r1, {sp}
    3308:	01000017 	tsteq	r0, r7, lsl r0
    330c:	89010233 	stmdbhi	r1, {r0, r1, r4, r5, r9}
    3310:	1c000001 	stcne	0, cr0, [r0], {1}
    3314:	20f00013 	rscscs	r0, r0, r3, lsl r0
    3318:	02f00013 	rscseq	r0, r0, #19
    331c:	011a007d 	tsteq	sl, sp, ror r0
    3320:	000016d1 	ldrdeq	r1, [r0], -r1	; <UNPREDICTABLE>
    3324:	01023801 	tsteq	r2, r1, lsl #16
    3328:	f0001320 			; <UNDEFINED> instruction: 0xf0001320
    332c:	f0001324 			; <UNDEFINED> instruction: 0xf0001324
    3330:	ce007d02 	cdpgt	13, 0, cr7, cr0, cr2, {0}
    3334:	1b000005 	blne	3350 <__standby_start+0x3350>
    3338:	006b6c63 	rsbeq	r6, fp, r3, ror #24
    333c:	74023801 	strvc	r3, [r2], #-2049	; 0xfffff7ff
    3340:	01000001 	tsteq	r0, r1
    3344:	01210050 	qsubeq	r0, r0, r1
    3348:	00001779 	andeq	r1, r0, r9, ror r7
    334c:	01023d01 	tsteq	r2, r1, lsl #26
    3350:	f0001324 			; <UNDEFINED> instruction: 0xf0001324
    3354:	f0001328 			; <UNDEFINED> instruction: 0xf0001328
    3358:	1a007d02 	bne	22768 <__standby_start+0x22768>
    335c:	0016ee01 	andseq	lr, r6, r1, lsl #28
    3360:	02420100 	subeq	r0, r2, #0, 2
    3364:	00132801 	andseq	r2, r3, r1, lsl #16
    3368:	00132cf0 			; <UNDEFINED> instruction: 0x00132cf0
    336c:	007d02f0 	ldrshteq	r0, [sp], #-32	; 0xffffffe0
    3370:	0000060b 	andeq	r0, r0, fp, lsl #12
    3374:	6b6c631b 	blvs	1b1bfe8 <__standby_start+0x1b1bfe8>
    3378:	02420100 	subeq	r0, r2, #0, 2
    337c:	00000194 	muleq	r0, r4, r1
    3380:	20005001 	andcs	r5, r0, r1
    3384:	00175c01 	andseq	r5, r7, r1, lsl #24
    3388:	02470100 	subeq	r0, r7, #0, 2
    338c:	00018901 	andeq	r8, r1, r1, lsl #18
    3390:	00132c00 	andseq	r2, r3, r0, lsl #24
    3394:	001330f0 	ldrsheq	r3, [r3], -r0
    3398:	007d02f0 	ldrshteq	r0, [sp], #-32	; 0xffffffe0
    339c:	00019422 	andeq	r9, r1, r2, lsr #8
    33a0:	00063400 	andeq	r3, r6, r0, lsl #8
    33a4:	002c2300 	eoreq	r2, ip, r0, lsl #6
    33a8:	001f0000 	andseq	r0, pc, r0
    33ac:	0018cc24 	andseq	ip, r8, r4, lsr #24
    33b0:	24aa0100 	strtcs	r0, [sl], #256	; 0x100
    33b4:	01000006 	tsteq	r0, r6
    33b8:	18cc2501 	stmiane	ip, {r0, r8, sl, sp}^
    33bc:	aa010000 	bge	433c4 <__standby_start+0x433c4>
    33c0:	00000624 	andeq	r0, r0, r4, lsr #12
    33c4:	38030501 	stmdacc	r3, {r0, r8, sl}
    33c8:	00f0001e 	rscseq	r0, r0, lr, lsl r0
    33cc:	00000356 	andeq	r0, r0, r6, asr r3
    33d0:	07df0002 	ldrbeq	r0, [pc, r2]
    33d4:	01040000 	tsteq	r4, r0
    33d8:	000002ed 	andeq	r0, r0, sp, ror #5
    33dc:	0019f101 	andseq	pc, r9, r1, lsl #2
    33e0:	00014100 	andeq	r4, r1, r0, lsl #2
    33e4:	00133000 	andseq	r3, r3, r0
    33e8:	001498f0 			; <UNDEFINED> instruction: 0x001498f0
    33ec:	0007a2f0 	strdeq	sl, [r7], -r0
    33f0:	07040200 	streq	r0, [r4, -r0, lsl #4]
    33f4:	0000022f 	andeq	r0, r0, pc, lsr #4
    33f8:	d1080102 	tstle	r8, r2, lsl #2
    33fc:	03000001 	movweq	r0, #1
    3400:	6e690504 	cdpvs	5, 6, cr0, cr9, cr4, {0}
    3404:	01020074 	tsteq	r2, r4, ror r0
    3408:	0001d306 	andeq	sp, r1, r6, lsl #6
    340c:	05020200 	streq	r0, [r2, #-512]	; 0xfffffe00
    3410:	000001df 	ldrdeq	r0, [r0], -pc	; <UNPREDICTABLE>
    3414:	87070202 	strhi	r0, [r7, -r2, lsl #4]
    3418:	04000002 	streq	r0, [r0], #-2
    341c:	00000e10 	andeq	r0, r0, r0, lsl lr
    3420:	00331902 	eorseq	r1, r3, r2, lsl #18
    3424:	fc040000 	stc2	0, cr0, [r4], {-0}
    3428:	02000000 	andeq	r0, r0, #0
    342c:	0000251a 	andeq	r2, r0, sl, lsl r5
    3430:	05080200 	streq	r0, [r8, #-512]	; 0xfffffe00
    3434:	0000012b 	andeq	r0, r0, fp, lsr #2
    3438:	25070802 	strcs	r0, [r7, #-2050]	; 0xfffff7fe
    343c:	05000002 	streq	r0, [r0, #-2]
    3440:	0000005a 	andeq	r0, r0, sl, asr r0
    3444:	00005a06 	andeq	r5, r0, r6, lsl #20
    3448:	00008800 	andeq	r8, r0, r0, lsl #16
    344c:	00250700 	eoreq	r0, r5, r0, lsl #14
    3450:	00040000 	andeq	r0, r4, r0
    3454:	0000b908 	andeq	fp, r0, r8, lsl #18
    3458:	19030400 	stmdbne	r3, {sl}
    345c:	000000eb 	andeq	r0, r0, fp, ror #1
    3460:	00027509 	andeq	r7, r2, r9, lsl #10
    3464:	27090000 	strcs	r0, [r9, -r0]
    3468:	05000003 	streq	r0, [r0, #-3]
    346c:	00033609 	andeq	r3, r3, r9, lsl #12
    3470:	f9090600 			; <UNDEFINED> instruction: 0xf9090600
    3474:	15000002 	strne	r0, [r0, #-2]
    3478:	0002c909 	andeq	ip, r2, r9, lsl #18
    347c:	db091600 	blle	248c84 <__standby_start+0x248c84>
    3480:	17000002 	strne	r0, [r0, -r2]
    3484:	00034509 	andeq	r4, r3, r9, lsl #10
    3488:	a5091800 	strge	r1, [r9, #-2048]	; 0xfffff800
    348c:	1d000000 	stcne	0, cr0, [r0, #-0]
    3490:	0002a809 	andeq	sl, r2, r9, lsl #16
    3494:	08091f00 	stmdaeq	r9, {r8, r9, sl, fp, ip}
    3498:	26000000 	strcs	r0, [r0], -r0
    349c:	00001809 	andeq	r1, r0, r9, lsl #16
    34a0:	68092700 	stmdavs	r9, {r8, r9, sl, sp}
    34a4:	28000000 	stmdacs	r0, {}	; <UNPREDICTABLE>
    34a8:	00003f09 	andeq	r3, r0, r9, lsl #30
    34ac:	0900c000 	stmdbeq	r0, {lr, pc}
    34b0:	0000004f 	andeq	r0, r0, pc, asr #32
    34b4:	0a0000c1 	beq	37c0 <__standby_start+0x37c0>
    34b8:	000019c6 	andeq	r1, r0, r6, asr #19
    34bc:	032d0394 	teqeq	sp, #148, 6	; 0x50000002
    34c0:	0b000002 	bleq	34d0 <__standby_start+0x34d0>
    34c4:	000019ae 	andeq	r1, r0, lr, lsr #19
    34c8:	00732f03 	rsbseq	r2, r3, r3, lsl #30
    34cc:	23020000 	movwcs	r0, #8192	; 0x2000
    34d0:	19b50b00 	ldmibne	r5!, {r8, r9, fp}
    34d4:	30030000 	andcc	r0, r3, r0
    34d8:	00000073 	andeq	r0, r0, r3, ror r0
    34dc:	0b042302 	bleq	10c0ec <__standby_start+0x10c0ec>
    34e0:	00000fda 	ldrdeq	r0, [r0], -sl
    34e4:	00733103 	rsbseq	r3, r3, r3, lsl #2
    34e8:	23020000 	movwcs	r0, #8192	; 0x2000
    34ec:	199f0b08 	ldmibne	pc, {r3, r8, r9, fp}	; <UNPREDICTABLE>
    34f0:	32030000 	andcc	r0, r3, #0
    34f4:	00000073 	andeq	r0, r0, r3, ror r0
    34f8:	0b0c2302 	bleq	30c108 <__standby_start+0x30c108>
    34fc:	00001927 	andeq	r1, r0, r7, lsr #18
    3500:	02133403 	andseq	r3, r3, #50331648	; 0x3000000
    3504:	23020000 	movwcs	r0, #8192	; 0x2000
    3508:	0fe40b10 	svceq	0x00e40b10
    350c:	35030000 	strcc	r0, [r3, #-0]
    3510:	00000073 	andeq	r0, r0, r3, ror r0
    3514:	0b1c2302 	bleq	70c124 <__standby_start+0x70c124>
    3518:	0000190c 	andeq	r1, r0, ip, lsl #18
    351c:	02183703 	andseq	r3, r8, #786432	; 0xc0000
    3520:	23020000 	movwcs	r0, #8192	; 0x2000
    3524:	0fee0b20 	svceq	0x00ee0b20
    3528:	38030000 	stmdacc	r3, {}	; <UNPREDICTABLE>
    352c:	00000073 	andeq	r0, r0, r3, ror r0
    3530:	0b2c2302 	bleq	b0c140 <__standby_start+0xb0c140>
    3534:	0000197f 	andeq	r1, r0, pc, ror r9
    3538:	021d3a03 	andseq	r3, sp, #12288	; 0x3000
    353c:	23020000 	movwcs	r0, #8192	; 0x2000
    3540:	0ff80b30 	svceq	0x00f80b30
    3544:	3b030000 	blcc	c354c <__standby_start+0xc354c>
    3548:	00000073 	andeq	r0, r0, r3, ror r0
    354c:	0b3c2302 	bleq	f0c15c <__standby_start+0xf0c15c>
    3550:	00001c89 	andeq	r1, r0, r9, lsl #25
    3554:	02223d03 	eoreq	r3, r2, #3, 26	; 0xc0
    3558:	23020000 	movwcs	r0, #8192	; 0x2000
    355c:	10020b40 	andne	r0, r2, r0, asr #22
    3560:	3e030000 	cdpcc	0, 0, cr0, cr3, cr0, {0}
    3564:	00000073 	andeq	r0, r0, r3, ror r0
    3568:	0b4c2302 	bleq	130c178 <__standby_start+0x130c178>
    356c:	000019be 			; <UNDEFINED> instruction: 0x000019be
    3570:	02274003 	eoreq	r4, r7, #3
    3574:	23020000 	movwcs	r0, #8192	; 0x2000
    3578:	19ff0b50 	ldmibne	pc!, {r4, r6, r8, r9, fp}^	; <UNPREDICTABLE>
    357c:	41030000 	tstmi	r3, r0
    3580:	00000073 	andeq	r0, r0, r3, ror r0
    3584:	0b5c2302 	bleq	170c194 <__standby_start+0x170c194>
    3588:	00001952 	andeq	r1, r0, r2, asr r9
    358c:	022c4303 	eoreq	r4, ip, #201326592	; 0xc000000
    3590:	23020000 	movwcs	r0, #8192	; 0x2000
    3594:	1a090b60 	bne	24631c <__standby_start+0x24631c>
    3598:	44030000 	strmi	r0, [r3], #-0
    359c:	00000073 	andeq	r0, r0, r3, ror r0
    35a0:	0b6c2302 	bleq	1b0c1b0 <__standby_start+0x1b0c1b0>
    35a4:	0000192f 	andeq	r1, r0, pc, lsr #18
    35a8:	02314603 	eorseq	r4, r1, #3145728	; 0x300000
    35ac:	23020000 	movwcs	r0, #8192	; 0x2000
    35b0:	1a130b70 	bne	4c6378 <__standby_start+0x4c6378>
    35b4:	47030000 	strmi	r0, [r3, -r0]
    35b8:	00000073 	andeq	r0, r0, r3, ror r0
    35bc:	0b7c2302 	bleq	1f0c1cc <__standby_start+0x1f0c1cc>
    35c0:	0000191f 	andeq	r1, r0, pc, lsl r9
    35c4:	02364903 	eorseq	r4, r6, #49152	; 0xc000
    35c8:	23030000 	movwcs	r0, #12288	; 0x3000
    35cc:	06000180 	streq	r0, [r0], -r0, lsl #3
    35d0:	0000005a 	andeq	r0, r0, sl, asr r0
    35d4:	00000213 	andeq	r0, r0, r3, lsl r2
    35d8:	00002507 	andeq	r2, r0, r7, lsl #10
    35dc:	05000200 	streq	r0, [r0, #-512]	; 0xfffffe00
    35e0:	00000203 	andeq	r0, r0, r3, lsl #4
    35e4:	00020305 	andeq	r0, r2, r5, lsl #6
    35e8:	02030500 	andeq	r0, r3, #0, 10
    35ec:	03050000 	movweq	r0, #20480	; 0x5000
    35f0:	05000002 	streq	r0, [r0, #-2]
    35f4:	00000203 	andeq	r0, r0, r3, lsl #4
    35f8:	00020305 	andeq	r0, r2, r5, lsl #6
    35fc:	02030500 	andeq	r0, r3, #0, 10
    3600:	78050000 	stmdavc	r5, {}	; <UNPREDICTABLE>
    3604:	0c000000 	stceq	0, cr0, [r0], {-0}
    3608:	00198701 	andseq	r8, r9, r1, lsl #14
    360c:	01250100 	teqeq	r5, r0, lsl #2
    3610:	0000004f 	andeq	r0, r0, pc, asr #32
    3614:	f0001330 			; <UNDEFINED> instruction: 0xf0001330
    3618:	f00013c4 			; <UNDEFINED> instruction: 0xf00013c4
    361c:	0c007d02 	stceq	13, cr7, [r0], {2}
    3620:	00194101 	andseq	r4, r9, r1, lsl #2
    3624:	01510100 	cmpeq	r1, r0, lsl #2
    3628:	0000004f 	andeq	r0, r0, pc, asr #32
    362c:	f00013c4 			; <UNDEFINED> instruction: 0xf00013c4
    3630:	f0001420 			; <UNDEFINED> instruction: 0xf0001420
    3634:	0d007d02 	stceq	13, cr7, [r0, #-8]
    3638:	00196c01 	andseq	r6, r9, r1, lsl #24
    363c:	016d0100 	cmneq	sp, r0, lsl #2
    3640:	0000004f 	andeq	r0, r0, pc, asr #32
    3644:	f0001420 			; <UNDEFINED> instruction: 0xf0001420
    3648:	f0001468 			; <UNDEFINED> instruction: 0xf0001468
    364c:	00000cdd 	ldrdeq	r0, [r0], -sp
    3650:	000002b6 			; <UNDEFINED> instruction: 0x000002b6
    3654:	6372730e 	cmnvs	r2, #939524096	; 0x38000000
    3658:	886d0100 	stmdahi	sp!, {r8}^
    365c:	fd000000 	stc2	0, cr0, [r0, #-0]
    3660:	0f00000c 	svceq	0x0000000c
    3664:	000019d8 	ldrdeq	r1, [r0], -r8
    3668:	005a6f01 	subseq	r6, sl, r1, lsl #30
    366c:	0d100000 	ldceq	0, cr0, [r0, #-0]
    3670:	980f0000 	stmdals	pc, {}	; <UNPREDICTABLE>
    3674:	01000019 	tsteq	r0, r9, lsl r0
    3678:	00005a70 	andeq	r5, r0, r0, ror sl
    367c:	000d3d00 	andeq	r3, sp, r0, lsl #26
    3680:	01100000 	tsteq	r0, r0
    3684:	0000195a 	andeq	r1, r0, sl, asr r9
    3688:	4f018501 	svcmi	0x00018501
    368c:	68000000 	stmdavs	r0, {}	; <UNPREDICTABLE>
    3690:	98f00014 	ldmls	r0!, {r2, r4}^
    3694:	02f00014 	rscseq	r0, r0, #20
    3698:	030f007d 	movweq	r0, #61565	; 0xf07d
    369c:	730e0000 	movwvc	r0, #57344	; 0xe000
    36a0:	01006372 	tsteq	r0, r2, ror r3
    36a4:	00008885 	andeq	r8, r0, r5, lsl #17
    36a8:	000d5f00 	andeq	r5, sp, r0, lsl #30
    36ac:	19a70f00 	stmibne	r7!, {r8, r9, sl, fp}
    36b0:	87010000 	strhi	r0, [r1, -r0]
    36b4:	0000004f 	andeq	r0, r0, pc, asr #32
    36b8:	00000d72 	andeq	r0, r0, r2, ror sp
    36bc:	0019d80f 	andseq	sp, r9, pc, lsl #16
    36c0:	5a880100 	bpl	fe203ac8 <__bss_end+0xe201a80>
    36c4:	86000000 	strhi	r0, [r0], -r0
    36c8:	0f00000d 	svceq	0x0000000d
    36cc:	00001998 	muleq	r0, r8, r9
    36d0:	005a8901 	subseq	r8, sl, r1, lsl #18
    36d4:	0da60000 	stceq	0, cr0, [r6]
    36d8:	11000000 	tstne	r0, r0
    36dc:	00001938 	andeq	r1, r0, r8, lsr r9
    36e0:	02031401 	andeq	r1, r3, #16777216	; 0x1000000
    36e4:	03050000 	movweq	r0, #20480	; 0x5000
    36e8:	f0001fd8 			; <UNDEFINED> instruction: 0xf0001fd8
    36ec:	00191411 	andseq	r1, r9, r1, lsl r4
    36f0:	03140100 	tsteq	r4, #0, 2
    36f4:	05000002 	streq	r0, [r0, #-2]
    36f8:	001fe403 	andseq	lr, pc, r3, lsl #8
    36fc:	19e711f0 	stmibne	r7!, {r4, r5, r6, r7, r8, ip}^
    3700:	14010000 	strne	r0, [r1], #-0
    3704:	00000203 	andeq	r0, r0, r3, lsl #4
    3708:	1ff00305 	svcne	0x00f00305
    370c:	df11f000 	svcle	0x0011f000
    3710:	01000019 	tsteq	r0, r9, lsl r0
    3714:	00035315 	andeq	r5, r3, r5, lsl r3
    3718:	d4030500 	strle	r0, [r3], #-1280	; 0xfffffb00
    371c:	12f0001f 	rscsne	r0, r0, #31
    3720:	0000eb04 	andeq	lr, r0, r4, lsl #22
    3724:	00c50000 	sbceq	r0, r5, r0
    3728:	00020000 	andeq	r0, r2, r0
    372c:	000008e4 	andeq	r0, r0, r4, ror #17
    3730:	02ed0104 	rsceq	r0, sp, #4, 2
    3734:	1d010000 	stcne	0, cr0, [r1, #-0]
    3738:	4100001a 	tstmi	r0, sl, lsl r0
    373c:	98000001 	stmdals	r0, {r0}
    3740:	b8f00014 	ldmlt	r0!, {r2, r4}^
    3744:	45f00014 	ldrbmi	r0, [r0, #20]!
    3748:	02000008 	andeq	r0, r0, #8
    374c:	022f0704 	eoreq	r0, pc, #4, 14	; 0x100000
    3750:	01020000 	tsteq	r2, r0
    3754:	0001d108 	andeq	sp, r1, r8, lsl #2
    3758:	05040300 	streq	r0, [r4, #-768]	; 0xfffffd00
    375c:	00746e69 	rsbseq	r6, r4, r9, ror #28
    3760:	d3060102 	movwle	r0, #24834	; 0x6102
    3764:	02000001 	andeq	r0, r0, #1
    3768:	01df0502 	bicseq	r0, pc, r2, lsl #10
    376c:	02020000 	andeq	r0, r2, #0
    3770:	00028707 	andeq	r8, r2, r7, lsl #14
    3774:	0e100400 	cfmulseq	mvf0, mvf0, mvf0
    3778:	19020000 	stmdbne	r2, {}	; <UNPREDICTABLE>
    377c:	00000033 	andeq	r0, r0, r3, lsr r0
    3780:	2b050802 	blcs	145790 <__standby_start+0x145790>
    3784:	02000001 	andeq	r0, r0, #1
    3788:	02250708 	eoreq	r0, r5, #8, 14	; 0x200000
    378c:	01050000 	tsteq	r5, r0
    3790:	00001a4c 	andeq	r1, r0, ip, asr #20
    3794:	4f012301 	svcmi	0x00012301
    3798:	98000000 	stmdals	r0, {}	; <UNPREDICTABLE>
    379c:	a0f00014 	rscsge	r0, r0, r4, lsl r0
    37a0:	02f00014 	rscseq	r0, r0, #20
    37a4:	0105007d 	tsteq	r5, sp, ror r0
    37a8:	00001a2a 	andeq	r1, r0, sl, lsr #20
    37ac:	4f013601 	svcmi	0x00013601
    37b0:	a0000000 	andge	r0, r0, r0
    37b4:	a8f00014 	ldmge	r0!, {r2, r4}^
    37b8:	02f00014 	rscseq	r0, r0, #20
    37bc:	0105007d 	tsteq	r5, sp, ror r0
    37c0:	00001a5c 	andeq	r1, r0, ip, asr sl
    37c4:	4f014901 	svcmi	0x00014901
    37c8:	a8000000 	stmdage	r0, {}	; <UNPREDICTABLE>
    37cc:	b0f00014 	rscslt	r0, r0, r4, lsl r0
    37d0:	02f00014 	rscseq	r0, r0, #20
    37d4:	0105007d 	tsteq	r5, sp, ror r0
    37d8:	00001a3a 	andeq	r1, r0, sl, lsr sl
    37dc:	4f015b01 	svcmi	0x00015b01
    37e0:	b0000000 	andlt	r0, r0, r0
    37e4:	b8f00014 	ldmlt	r0!, {r2, r4}^
    37e8:	02f00014 	rscseq	r0, r0, #20
    37ec:	7600007d 			; <UNDEFINED> instruction: 0x7600007d
    37f0:	02000001 	andeq	r0, r0, #1
    37f4:	00093200 	andeq	r3, r9, r0, lsl #4
    37f8:	ed010400 	cfstrs	mvf0, [r1, #-0]
    37fc:	01000002 	tsteq	r0, r2
    3800:	00001a95 	muleq	r0, r5, sl
    3804:	00000141 	andeq	r0, r0, r1, asr #2
    3808:	f00014b8 			; <UNDEFINED> instruction: 0xf00014b8
    380c:	f0001558 			; <UNDEFINED> instruction: 0xf0001558
    3810:	0000089a 	muleq	r0, sl, r8
    3814:	2f070402 	svccs	0x00070402
    3818:	02000002 	andeq	r0, r0, #2
    381c:	01d10801 	bicseq	r0, r1, r1, lsl #16
    3820:	04030000 	streq	r0, [r3], #-0
    3824:	746e6905 	strbtvc	r6, [lr], #-2309	; 0xfffff6fb
    3828:	06010200 	streq	r0, [r1], -r0, lsl #4
    382c:	000001d3 	ldrdeq	r0, [r0], -r3
    3830:	df050202 	svcle	0x00050202
    3834:	02000001 	andeq	r0, r0, #1
    3838:	02870702 	addeq	r0, r7, #524288	; 0x80000
    383c:	10040000 	andne	r0, r4, r0
    3840:	0200000e 	andeq	r0, r0, #14
    3844:	00003319 	andeq	r3, r0, r9, lsl r3
    3848:	00fc0400 	rscseq	r0, ip, r0, lsl #8
    384c:	1a020000 	bne	83854 <__standby_start+0x83854>
    3850:	00000025 	andeq	r0, r0, r5, lsr #32
    3854:	2b050802 	blcs	145864 <__standby_start+0x145864>
    3858:	02000001 	andeq	r0, r0, #1
    385c:	02250708 	eoreq	r0, r5, #8, 14	; 0x200000
    3860:	5a050000 	bpl	143868 <__standby_start+0x143868>
    3864:	06000000 	streq	r0, [r0], -r0
    3868:	00001b1a 	andeq	r1, r0, sl, lsl fp
    386c:	cb170314 	blgt	5c44c4 <__standby_start+0x5c44c4>
    3870:	07000000 	streq	r0, [r0, -r0]
    3874:	00001ad8 	ldrdeq	r1, [r0], -r8
    3878:	00731a03 	rsbseq	r1, r3, r3, lsl #20
    387c:	23020000 	movwcs	r0, #8192	; 0x2000
    3880:	1aaa0700 	bne	fea85488 <__bss_end+0xea83440>
    3884:	1b030000 	blne	c388c <__standby_start+0xc388c>
    3888:	00000073 	andeq	r0, r0, r3, ror r0
    388c:	07042302 	streq	r2, [r4, -r2, lsl #6]
    3890:	00001a6e 	andeq	r1, r0, lr, ror #20
    3894:	00731c03 	rsbseq	r1, r3, r3, lsl #24
    3898:	23020000 	movwcs	r0, #8192	; 0x2000
    389c:	1b2c0708 	blne	b054c4 <__standby_start+0xb054c4>
    38a0:	1d030000 	stcne	0, cr0, [r3, #-0]
    38a4:	00000073 	andeq	r0, r0, r3, ror r0
    38a8:	070c2302 	streq	r2, [ip, -r2, lsl #6]
    38ac:	00001ae3 	andeq	r1, r0, r3, ror #21
    38b0:	00731e03 	rsbseq	r1, r3, r3, lsl #28
    38b4:	23020000 	movwcs	r0, #8192	; 0x2000
    38b8:	79040010 	stmdbvc	r4, {r4}
    38bc:	0300001a 	movweq	r0, #26
    38c0:	0000781f 	andeq	r7, r0, pc, lsl r8
    38c4:	ef010800 	svc	0x00010800
    38c8:	0100001a 	tsteq	r0, sl, lsl r0
    38cc:	004f0127 	subeq	r0, pc, r7, lsr #2
    38d0:	14b80000 	ldrtne	r0, [r8], #0
    38d4:	1510f000 	ldrne	pc, [r0, #-0]
    38d8:	0dc8f000 	stcleq	0, cr15, [r8]
    38dc:	01090000 	tsteq	r9, r0
    38e0:	00001ab5 			; <UNDEFINED> instruction: 0x00001ab5
    38e4:	4f014401 	svcmi	0x00014401
    38e8:	10000000 	andne	r0, r0, r0
    38ec:	30f00015 	rscscc	r0, r0, r5, lsl r0
    38f0:	02f00015 	rscseq	r0, r0, #21
    38f4:	0109007d 	tsteq	r9, sp, ror r0
    38f8:	00001b08 	andeq	r1, r0, r8, lsl #22
    38fc:	4f015701 	svcmi	0x00015701
    3900:	30000000 	andcc	r0, r0, r0
    3904:	58f00015 	ldmpl	r0!, {r0, r2, r4}^
    3908:	02f00015 	rscseq	r0, r0, #21
    390c:	a30a007d 	movwge	r0, #41085	; 0xa07d
    3910:	0100001a 	tsteq	r0, sl, lsl r0
    3914:	00013014 	andeq	r3, r1, r4, lsl r0
    3918:	fc030500 	stc2	5, cr0, [r3], {-0}
    391c:	0bf0001f 	bleq	ffc039a0 <__bss_end+0xfc01958>
    3920:	0000cb04 	andeq	ip, r0, r4, lsl #22
    3924:	1b380a00 	blne	e0612c <__standby_start+0xe0612c>
    3928:	15010000 	strne	r0, [r1, #-0]
    392c:	0000005a 	andeq	r0, r0, sl, asr r0
    3930:	20000305 	andcs	r0, r0, r5, lsl #6
    3934:	000af000 	andeq	pc, sl, r0
    3938:	0100001b 	tsteq	r0, fp, lsl r0
    393c:	00005a15 	andeq	r5, r0, r5, lsl sl
    3940:	04030500 	streq	r0, [r3], #-1280	; 0xfffffb00
    3944:	0cf00020 	ldcleq	0, cr0, [r0], #128	; 0x80
    3948:	00001a8d 	andeq	r1, r0, sp, lsl #21
    394c:	005a1501 	subseq	r1, sl, r1, lsl #10
    3950:	c60c0000 	strgt	r0, [ip], -r0
    3954:	0100001a 	tsteq	r0, sl, lsl r0
    3958:	00005a15 	andeq	r5, r0, r5, lsl sl
    395c:	1acf0c00 	bne	ff3c6964 <__bss_end+0xf3c491c>
    3960:	15010000 	strne	r0, [r1, #-0]
    3964:	0000005a 	andeq	r0, r0, sl, asr r0
    3968:	0003ca00 	andeq	ip, r3, r0, lsl #20
    396c:	e1000200 	tst	r0, r0, lsl #4
    3970:	04000009 	streq	r0, [r0], #-9
    3974:	0002ed01 	andeq	lr, r2, r1, lsl #26
    3978:	1b780100 	blne	1e03d80 <__standby_start+0x1e03d80>
    397c:	01410000 	mrseq	r0, SPSR
    3980:	15580000 	ldrbne	r0, [r8, #-0]
    3984:	1898f000 	ldmne	r8, {ip, sp, lr, pc}
    3988:	0915f000 	ldmdbeq	r5, {ip, sp, lr, pc}
    398c:	04020000 	streq	r0, [r2], #-0
    3990:	00022f07 	andeq	r2, r2, r7, lsl #30
    3994:	08010200 	stmdaeq	r1, {r9}
    3998:	000001d1 	ldrdeq	r0, [r0], -r1
    399c:	69050403 	stmdbvs	r5, {r0, r1, sl}
    39a0:	0200746e 	andeq	r7, r0, #1845493760	; 0x6e000000
    39a4:	01d30601 	bicseq	r0, r3, r1, lsl #12
    39a8:	f3040000 	vhadd.u8	d0, d4, d0
    39ac:	0300001b 	movweq	r0, #27
    39b0:	00002c16 	andeq	r2, r0, r6, lsl ip
    39b4:	05020200 	streq	r0, [r2, #-512]	; 0xfffffe00
    39b8:	000001df 	ldrdeq	r0, [r0], -pc	; <UNPREDICTABLE>
    39bc:	87070202 	strhi	r0, [r7, -r2, lsl #4]
    39c0:	04000002 	streq	r0, [r0], #-2
    39c4:	00000e10 	andeq	r0, r0, r0, lsl lr
    39c8:	00331903 	eorseq	r1, r3, r3, lsl #18
    39cc:	fc040000 	stc2	0, cr0, [r4], {-0}
    39d0:	03000000 	movweq	r0, #0
    39d4:	0000251a 	andeq	r2, r0, sl, lsl r5
    39d8:	05080200 	streq	r0, [r8, #-512]	; 0xfffffe00
    39dc:	0000012b 	andeq	r0, r0, fp, lsr #2
    39e0:	25070802 	strcs	r0, [r7, #-2050]	; 0xfffff7fe
    39e4:	05000002 	streq	r0, [r0, #-2]
    39e8:	0000025a 	andeq	r0, r0, sl, asr r2
    39ec:	b5170404 	ldrlt	r0, [r7, #-1028]	; 0xfffffbfc
    39f0:	06000000 	streq	r0, [r0], -r0
    39f4:	000000cc 	andeq	r0, r0, ip, asr #1
    39f8:	00dc0600 	sbcseq	r0, ip, r0, lsl #12
    39fc:	06010000 	streq	r0, [r1], -r0
    3a00:	000000ec 	andeq	r0, r0, ip, ror #1
    3a04:	01e90602 	mvneq	r0, r2, lsl #12
    3a08:	06030000 	streq	r0, [r3], -r0
    3a0c:	000001f8 	strdeq	r0, [r0], -r8
    3a10:	02070604 	andeq	r0, r7, #4, 12	; 0x400000
    3a14:	06050000 	streq	r0, [r5], -r0
    3a18:	00000216 	andeq	r0, r0, r6, lsl r2
    3a1c:	ca070006 	bgt	1c3a3c <__standby_start+0x1c3a3c>
    3a20:	1c00001b 	stcne	0, cr0, [r0], {27}
    3a24:	01234604 	teqeq	r3, r4, lsl #12
    3a28:	69080000 	stmdbvs	r8, {}	; <UNPREDICTABLE>
    3a2c:	47040064 	strmi	r0, [r4, -r4, rrx]
    3a30:	0000007e 	andeq	r0, r0, lr, ror r0
    3a34:	09002302 	stmdbeq	r0, {r1, r8, r9, sp}
    3a38:	00001c2f 	andeq	r1, r0, pc, lsr #24
    3a3c:	00334804 	eorseq	r4, r3, r4, lsl #16
    3a40:	23020000 	movwcs	r0, #8192	; 0x2000
    3a44:	1b710904 	blne	1c45e5c <__standby_start+0x1c45e5c>
    3a48:	49040000 	stmdbmi	r4, {}	; <UNPREDICTABLE>
    3a4c:	00000033 	andeq	r0, r0, r3, lsr r0
    3a50:	09082302 	stmdbeq	r8, {r1, r8, r9, sp}
    3a54:	00001beb 	andeq	r1, r0, fp, ror #23
    3a58:	00334a04 	eorseq	r4, r3, r4, lsl #20
    3a5c:	23020000 	movwcs	r0, #8192	; 0x2000
    3a60:	1c1b090c 	ldcne	9, cr0, [fp], {12}
    3a64:	4b040000 	blmi	103a6c <__standby_start+0x103a6c>
    3a68:	00000033 	andeq	r0, r0, r3, lsr r0
    3a6c:	09102302 	ldmdbeq	r0, {r1, r8, r9, sp}
    3a70:	00001bb5 			; <UNDEFINED> instruction: 0x00001bb5
    3a74:	00334c04 	eorseq	r4, r3, r4, lsl #24
    3a78:	23020000 	movwcs	r0, #8192	; 0x2000
    3a7c:	1b970914 	blne	fe5c5ed4 <__bss_end+0xe5c3e8c>
    3a80:	4d040000 	stcmi	0, cr0, [r4, #-0]
    3a84:	00000033 	andeq	r0, r0, r3, lsr r0
    3a88:	00182302 	andseq	r2, r8, r2, lsl #6
    3a8c:	001bdd05 	andseq	sp, fp, r5, lsl #26
    3a90:	29050400 	stmdbcs	r5, {sl}
    3a94:	0000013c 	andeq	r0, r0, ip, lsr r1
    3a98:	001bd306 	andseq	sp, fp, r6, lsl #6
    3a9c:	8d060000 	stchi	0, cr0, [r6, #-0]
    3aa0:	0100001b 	tsteq	r0, fp, lsl r0
    3aa4:	1c360a00 	ldcne	10, cr0, [r6], #-0
    3aa8:	26010000 	strcs	r0, [r1], -r0
    3aac:	00006501 	andeq	r6, r0, r1, lsl #10
    3ab0:	00155800 	andseq	r5, r5, r0, lsl #16
    3ab4:	0015a8f0 			; <UNDEFINED> instruction: 0x0015a8f0
    3ab8:	007d02f0 	ldrshteq	r0, [sp], #-32	; 0xffffffe0
    3abc:	000001a3 	andeq	r0, r0, r3, lsr #3
    3ac0:	0017c40b 	andseq	ip, r7, fp, lsl #8
    3ac4:	65260100 	strvs	r0, [r6, #-256]!	; 0xffffff00
    3ac8:	e8000000 	stmda	r0, {}	; <UNPREDICTABLE>
    3acc:	0b00000d 	bleq	3b08 <__standby_start+0x3b08>
    3ad0:	00001709 	andeq	r1, r0, r9, lsl #14
    3ad4:	00652601 	rsbeq	r2, r5, r1, lsl #12
    3ad8:	0e270000 	cdpeq	0, 2, cr0, cr7, cr0, {0}
    3adc:	c50c0000 	strgt	r0, [ip, #-0]
    3ae0:	01000018 	tsteq	r0, r8, lsl r0
    3ae4:	00006528 	andeq	r6, r0, r8, lsr #10
    3ae8:	000e5000 	andeq	r5, lr, r0
    3aec:	16950c00 	ldrne	r0, [r5], r0, lsl #24
    3af0:	29010000 	stmdbcs	r1, {}	; <UNPREDICTABLE>
    3af4:	00000065 	andeq	r0, r0, r5, rrx
    3af8:	00000e93 	muleq	r0, r3, lr
    3afc:	001bb90c 	andseq	fp, fp, ip, lsl #18
    3b00:	5a2a0100 	bpl	a83f08 <__standby_start+0xa83f08>
    3b04:	c9000000 	stmdbgt	r0, {}	; <UNPREDICTABLE>
    3b08:	0000000e 	andeq	r0, r0, lr
    3b0c:	001b540a 	andseq	r5, fp, sl, lsl #8
    3b10:	017a0200 	cmneq	sl, r0, lsl #4
    3b14:	000001e8 	andeq	r0, r0, r8, ror #3
    3b18:	f00015a8 			; <UNDEFINED> instruction: 0xf00015a8
    3b1c:	f00015ec 			; <UNDEFINED> instruction: 0xf00015ec
    3b20:	e8007d02 	stmda	r0, {r1, r8, sl, fp, ip, sp, lr}
    3b24:	0d000001 	stceq	0, cr0, [r0, #-4]
    3b28:	02006469 	andeq	r6, r0, #1761607680	; 0x69000000
    3b2c:	0000337a 	andeq	r3, r0, sl, ror r3
    3b30:	000f1700 	andeq	r1, pc, r0, lsl #14
    3b34:	69720e00 	ldmdbvs	r2!, {r9, sl, fp}^
    3b38:	e87c0200 	ldmda	ip!, {r9}^
    3b3c:	35000001 	strcc	r0, [r0, #-1]
    3b40:	0e00000f 	cdpeq	0, 0, cr0, cr0, cr15, {0}
    3b44:	7d020069 	stcvc	0, cr0, [r2, #-420]	; 0xfffffe5c
    3b48:	00000033 	andeq	r0, r0, r3, lsr r0
    3b4c:	00000f48 	andeq	r0, r0, r8, asr #30
    3b50:	b5040f00 	strlt	r0, [r4, #-3840]	; 0xfffff100
    3b54:	10000000 	andne	r0, r0, r0
    3b58:	001b5e01 	andseq	r5, fp, r1, lsl #28
    3b5c:	01250200 	teqeq	r5, r0, lsl #4
    3b60:	0000005a 	andeq	r0, r0, sl, asr r0
    3b64:	f00015ec 			; <UNDEFINED> instruction: 0xf00015ec
    3b68:	f0001684 			; <UNDEFINED> instruction: 0xf0001684
    3b6c:	00000f72 	andeq	r0, r0, r2, ror pc
    3b70:	0000023a 	andeq	r0, r0, sl, lsr r2
    3b74:	6c617611 	stclvs	6, cr7, [r1], #-68	; 0xffffffbc
    3b78:	41270200 	teqmi	r7, r0, lsl #4
    3b7c:	12000000 	andne	r0, r0, #0
    3b80:	00001b88 	andeq	r1, r0, r8, lsl #23
    3b84:	00412702 	subeq	r2, r1, r2, lsl #14
    3b88:	b30c0000 	movwlt	r0, #49152	; 0xc000
    3b8c:	02000014 	andeq	r0, r0, #20
    3b90:	00004127 	andeq	r4, r0, r7, lsr #2
    3b94:	000f9200 	andeq	r9, pc, r0, lsl #4
    3b98:	00691100 	rsbeq	r1, r9, r0, lsl #2
    3b9c:	005a2802 	subseq	r2, sl, r2, lsl #16
    3ba0:	10000000 	andne	r0, r0, r0
    3ba4:	001c0801 	andseq	r0, ip, r1, lsl #16
    3ba8:	014c0200 	mrseq	r0, SPSR
    3bac:	0000005a 	andeq	r0, r0, sl, asr r0
    3bb0:	f0001684 			; <UNDEFINED> instruction: 0xf0001684
    3bb4:	f00016fc 			; <UNDEFINED> instruction: 0xf00016fc
    3bb8:	00000fd4 	ldrdeq	r0, [r0], -r4
    3bbc:	00000267 	andeq	r0, r0, r7, ror #4
    3bc0:	0014b30c 	andseq	fp, r4, ip, lsl #6
    3bc4:	414e0200 	mrsmi	r0, SPSR
    3bc8:	f4000000 	vst4.8	{d0-d3}, [r0], r0
    3bcc:	0000000f 	andeq	r0, r0, pc
    3bd0:	001c2313 	andseq	r2, ip, r3, lsl r3
    3bd4:	01630200 	cmneq	r3, r0, lsl #4
    3bd8:	00000033 	andeq	r0, r0, r3, lsr r0
    3bdc:	00028f03 	andeq	r8, r2, r3, lsl #30
    3be0:	1bc51400 	blne	ff148be8 <__bss_end+0xf146ba0>
    3be4:	63020000 	movwvs	r0, #8192	; 0x2000
    3be8:	000001e8 	andeq	r0, r0, r8, ror #3
    3bec:	001b4c14 	andseq	r4, fp, r4, lsl ip
    3bf0:	5a630200 	bpl	18c43f8 <__standby_start+0x18c43f8>
    3bf4:	00000000 	andeq	r0, r0, r0
    3bf8:	1ba10115 	blne	fe844054 <__bss_end+0xe84200c>
    3bfc:	96020000 	strls	r0, [r2], -r0
    3c00:	0016fc01 	andseq	pc, r6, r1, lsl #24
    3c04:	001824f0 			; <UNDEFINED> instruction: 0x001824f0
    3c08:	001036f0 			; <UNDEFINED> instruction: 0x001036f0
    3c0c:	00032500 	andeq	r2, r3, r0, lsl #10
    3c10:	18fe0b00 	ldmne	lr!, {r8, r9, fp}^
    3c14:	96020000 	strls	r0, [r2], -r0
    3c18:	0000007e 	andeq	r0, r0, lr, ror r0
    3c1c:	00001056 	andeq	r1, r0, r6, asr r0
    3c20:	001b4c0b 	andseq	r4, fp, fp, lsl #24
    3c24:	5a960200 	bpl	fe58442c <__bss_end+0xe5823e4>
    3c28:	7f000000 	svcvc	0x00000000
    3c2c:	0c000010 	stceq	0, cr0, [r0], {16}
    3c30:	00001bc5 	andeq	r1, r0, r5, asr #23
    3c34:	01e89802 	mvneq	r9, r2, lsl #16
    3c38:	10a80000 	adcne	r0, r8, r0
    3c3c:	760e0000 	strvc	r0, [lr], -r0
    3c40:	02006c61 	andeq	r6, r0, #24832	; 0x6100
    3c44:	00004199 	muleq	r0, r9, r1
    3c48:	0010d200 	andseq	sp, r0, r0, lsl #4
    3c4c:	1b880c00 	blne	fe206c54 <__bss_end+0xe204c0c>
    3c50:	99020000 	stmdbls	r2, {}	; <UNPREDICTABLE>
    3c54:	00000041 	andeq	r0, r0, r1, asr #32
    3c58:	00001106 	andeq	r1, r0, r6, lsl #2
    3c5c:	0014b30c 	andseq	fp, r4, ip, lsl #6
    3c60:	41990200 	orrsmi	r0, r9, r0, lsl #4
    3c64:	19000000 	stmdbne	r0, {}	; <UNPREDICTABLE>
    3c68:	16000011 			; <UNDEFINED> instruction: 0x16000011
    3c6c:	00000267 	andeq	r0, r0, r7, ror #4
    3c70:	f0001714 			; <UNDEFINED> instruction: 0xf0001714
    3c74:	f0001730 			; <UNDEFINED> instruction: 0xf0001730
    3c78:	8317a002 	tsthi	r7, #2
    3c7c:	39000002 	stmdbcc	r0, {r1}
    3c80:	17000011 	smladne	r0, r1, r0, r0
    3c84:	00000278 	andeq	r0, r0, r8, ror r2
    3c88:	00001157 	andeq	r1, r0, r7, asr r1
    3c8c:	01100000 	tsteq	r0, r0
    3c90:	00001b40 	andeq	r1, r0, r0, asr #22
    3c94:	6501d702 	strvs	sp, [r1, #-1794]	; 0xfffff8fe
    3c98:	24000000 	strcs	r0, [r0], #-0
    3c9c:	98f00018 	ldmls	r0!, {r3, r4}^
    3ca0:	75f00018 	ldrbvc	r0, [r0, #24]!
    3ca4:	86000011 			; <UNDEFINED> instruction: 0x86000011
    3ca8:	0b000003 	bleq	3cbc <__standby_start+0x3cbc>
    3cac:	000018fe 	strdeq	r1, [r0], -lr
    3cb0:	007ed702 	rsbseq	sp, lr, r2, lsl #14
    3cb4:	11950000 	orrsne	r0, r5, r0
    3cb8:	c50c0000 	strgt	r0, [ip, #-0]
    3cbc:	0200001b 	andeq	r0, r0, #27
    3cc0:	0001e8d9 	ldrdeq	lr, [r1], -r9
    3cc4:	0011b300 	andseq	fp, r1, r0, lsl #6
    3cc8:	61760e00 	cmnvs	r6, r0, lsl #28
    3ccc:	da02006c 	ble	83e84 <__standby_start+0x83e84>
    3cd0:	00000041 	andeq	r0, r0, r1, asr #32
    3cd4:	000011dd 	ldrdeq	r1, [r0], -sp
    3cd8:	001b8812 	andseq	r8, fp, r2, lsl r8
    3cdc:	41da0200 	bicsmi	r0, sl, r0, lsl #4
    3ce0:	11000000 	tstne	r0, r0
    3ce4:	00746572 	rsbseq	r6, r4, r2, ror r5
    3ce8:	0033db02 	eorseq	sp, r3, r2, lsl #22
    3cec:	18000000 	stmdane	r0, {}	; <UNPREDICTABLE>
    3cf0:	00000033 	andeq	r0, r0, r3, lsr r0
    3cf4:	00000396 	muleq	r0, r6, r3
    3cf8:	00002519 	andeq	r2, r0, r9, lsl r5
    3cfc:	1a000f00 	bne	7904 <__standby_start+0x7904>
    3d00:	00001bf8 	strdeq	r1, [r0], -r8
    3d04:	03a76b02 			; <UNDEFINED> instruction: 0x03a76b02
    3d08:	03050000 	movweq	r0, #20480	; 0x5000
    3d0c:	f0001dec 			; <UNDEFINED> instruction: 0xf0001dec
    3d10:	0003861b 	andeq	r8, r3, fp, lsl r6
    3d14:	00b51800 	adcseq	r1, r5, r0, lsl #16
    3d18:	03bc0000 			; <UNDEFINED> instruction: 0x03bc0000
    3d1c:	25190000 	ldrcs	r0, [r9, #-0]
    3d20:	05000000 	streq	r0, [r0, #-0]
    3d24:	1bbf1a00 	blne	fefca52c <__bss_end+0xefc84e4>
    3d28:	71020000 	tstvc	r2, r0
    3d2c:	000003ac 	andeq	r0, r0, ip, lsr #7
    3d30:	1eb80305 	cdpne	3, 11, cr0, cr8, cr5, {0}
    3d34:	3400f000 	strcc	pc, [r0], #-0
    3d38:	02000005 	andeq	r0, r0, #5
    3d3c:	000b6300 	andeq	r6, fp, r0, lsl #6
    3d40:	ed010400 	cfstrs	mvf0, [r1, #-0]
    3d44:	01000002 	tsteq	r0, r2
    3d48:	00001e21 	andeq	r1, r0, r1, lsr #28
    3d4c:	00000141 	andeq	r0, r0, r1, asr #2
    3d50:	f0001898 			; <UNDEFINED> instruction: 0xf0001898
    3d54:	f0001a88 			; <UNDEFINED> instruction: 0xf0001a88
    3d58:	00000a36 	andeq	r0, r0, r6, lsr sl
    3d5c:	2f070402 	svccs	0x00070402
    3d60:	02000002 	andeq	r0, r0, #2
    3d64:	01d10801 	bicseq	r0, r1, r1, lsl #16
    3d68:	04030000 	streq	r0, [r3], #-0
    3d6c:	746e6905 	strbtvc	r6, [lr], #-2309	; 0xfffff6fb
    3d70:	06010200 	streq	r0, [r1], -r0, lsl #4
    3d74:	000001d3 	ldrdeq	r0, [r0], -r3
    3d78:	df050202 	svcle	0x00050202
    3d7c:	02000001 	andeq	r0, r0, #1
    3d80:	02870702 	addeq	r0, r7, #524288	; 0x80000
    3d84:	10040000 	andne	r0, r4, r0
    3d88:	0200000e 	andeq	r0, r0, #14
    3d8c:	00003319 	andeq	r3, r0, r9, lsl r3
    3d90:	00fc0400 	rscseq	r0, ip, r0, lsl #8
    3d94:	1a020000 	bne	83d9c <__standby_start+0x83d9c>
    3d98:	00000025 	andeq	r0, r0, r5, lsr #32
    3d9c:	2b050802 	blcs	145dac <__standby_start+0x145dac>
    3da0:	02000001 	andeq	r0, r0, #1
    3da4:	02250708 	eoreq	r0, r5, #8, 14	; 0x200000
    3da8:	5a050000 	bpl	143db0 <__standby_start+0x143db0>
    3dac:	06000000 	streq	r0, [r0], -r0
    3db0:	0000005a 	andeq	r0, r0, sl, asr r0
    3db4:	00000088 	andeq	r0, r0, r8, lsl #1
    3db8:	00002507 	andeq	r2, r0, r7, lsl #10
    3dbc:	08000300 	stmdaeq	r0, {r8, r9}
    3dc0:	00001d02 	andeq	r1, r0, r2, lsl #26
    3dc4:	19030130 	stmdbne	r3, {r4, r5, r8}
    3dc8:	0000032e 	andeq	r0, r0, lr, lsr #6
    3dcc:	001dfe09 	andseq	pc, sp, r9, lsl #28
    3dd0:	731c0300 	tstvc	ip, #0, 6
    3dd4:	02000000 	andeq	r0, r0, #0
    3dd8:	ce090023 	cdpgt	0, 0, cr0, cr9, cr3, {1}
    3ddc:	0300001d 	movweq	r0, #29
    3de0:	0000731d 	andeq	r7, r0, sp, lsl r3
    3de4:	04230200 	strteq	r0, [r3], #-512	; 0xfffffe00
    3de8:	000fda09 	andeq	sp, pc, r9, lsl #20
    3dec:	3e1e0300 	cdpcc	3, 1, cr0, cr14, cr0, {0}
    3df0:	02000003 	andeq	r0, r0, #3
    3df4:	82090823 	andhi	r0, r9, #2293760	; 0x230000
    3df8:	0300001e 	movweq	r0, #30
    3dfc:	00007320 	andeq	r7, r0, r0, lsr #6
    3e00:	10230200 	eorne	r0, r3, r0, lsl #4
    3e04:	001ca509 	andseq	sl, ip, r9, lsl #10
    3e08:	73210300 	teqvc	r1, #0, 6
    3e0c:	02000000 	andeq	r0, r0, #0
    3e10:	d3091423 	movwle	r1, #37923	; 0x9423
    3e14:	0300001c 	movweq	r0, #28
    3e18:	00007322 	andeq	r7, r0, r2, lsr #6
    3e1c:	18230200 	stmdane	r3!, {r9}
    3e20:	000fe409 	andeq	lr, pc, r9, lsl #8
    3e24:	73230300 	teqvc	r3, #0, 6
    3e28:	02000000 	andeq	r0, r0, #0
    3e2c:	cb091c23 	blgt	24aec0 <__standby_start+0x24aec0>
    3e30:	0300001c 	movweq	r0, #28
    3e34:	00007325 	andeq	r7, r0, r5, lsr #6
    3e38:	20230200 	eorcs	r0, r3, r0, lsl #4
    3e3c:	001dad09 	andseq	sl, sp, r9, lsl #26
    3e40:	73260300 	teqvc	r6, #0, 6
    3e44:	02000000 	andeq	r0, r0, #0
    3e48:	de092423 	cdple	4, 0, cr2, cr9, cr3, {1}
    3e4c:	0300001d 	movweq	r0, #29
    3e50:	00007327 	andeq	r7, r0, r7, lsr #6
    3e54:	28230200 	stmdacs	r3!, {r9}
    3e58:	000fee09 	andeq	lr, pc, r9, lsl #28
    3e5c:	73280300 	teqvc	r8, #0, 6
    3e60:	02000000 	andeq	r0, r0, #0
    3e64:	4f092c23 	svcmi	0x00092c23
    3e68:	0300001d 	movweq	r0, #29
    3e6c:	0000732a 	andeq	r7, r0, sl, lsr #6
    3e70:	30230200 	eorcc	r0, r3, r0, lsl #4
    3e74:	001cf709 	andseq	pc, ip, r9, lsl #14
    3e78:	732b0300 	teqvc	fp, #0, 6
    3e7c:	02000000 	andeq	r0, r0, #0
    3e80:	14093423 	strne	r3, [r9], #-1059	; 0xfffffbdd
    3e84:	0300001d 	movweq	r0, #29
    3e88:	0000732c 	andeq	r7, r0, ip, lsr #6
    3e8c:	38230200 	stmdacc	r3!, {r9}
    3e90:	000ff809 	andeq	pc, pc, r9, lsl #16
    3e94:	732d0300 	teqvc	sp, #0, 6
    3e98:	02000000 	andeq	r0, r0, #0
    3e9c:	bf093c23 	svclt	0x00093c23
    3ea0:	0300001d 	movweq	r0, #29
    3ea4:	0000732f 	andeq	r7, r0, pc, lsr #6
    3ea8:	40230200 	eormi	r0, r3, r0, lsl #4
    3eac:	001e1609 	andseq	r1, lr, r9, lsl #12
    3eb0:	73300300 	teqvc	r0, #0, 6
    3eb4:	02000000 	andeq	r0, r0, #0
    3eb8:	02094423 	andeq	r4, r9, #587202560	; 0x23000000
    3ebc:	03000010 	movweq	r0, #16
    3ec0:	00034331 	andeq	r4, r3, r1, lsr r3
    3ec4:	48230200 	stmdami	r3!, {r9}
    3ec8:	001e8a09 	andseq	r8, lr, r9, lsl #20
    3ecc:	73330300 	teqvc	r3, #0, 6
    3ed0:	02000000 	andeq	r0, r0, #0
    3ed4:	1f095023 	svcne	0x00095023
    3ed8:	0300001d 	movweq	r0, #29
    3edc:	00007334 	andeq	r7, r0, r4, lsr r3
    3ee0:	54230200 	strtpl	r0, [r3], #-512	; 0xfffffe00
    3ee4:	001d2a09 	andseq	r2, sp, r9, lsl #20
    3ee8:	73350300 	teqvc	r5, #0, 6
    3eec:	02000000 	andeq	r0, r0, #0
    3ef0:	ff095823 			; <UNDEFINED> instruction: 0xff095823
    3ef4:	03000019 	movweq	r0, #25
    3ef8:	00007336 	andeq	r7, r0, r6, lsr r3
    3efc:	5c230200 	sfmpl	f0, 4, [r3], #-0
    3f00:	001cef09 	andseq	lr, ip, r9, lsl #30
    3f04:	73380300 	teqvc	r8, #0, 6
    3f08:	02000000 	andeq	r0, r0, #0
    3f0c:	53096023 	movwpl	r6, #36899	; 0x9023
    3f10:	0300001e 	movweq	r0, #30
    3f14:	00007339 	andeq	r7, r0, r9, lsr r3
    3f18:	64230200 	strtvs	r0, [r3], #-512	; 0xfffffe00
    3f1c:	001e7009 	andseq	r7, lr, r9
    3f20:	733a0300 	teqvc	sl, #0, 6
    3f24:	02000000 	andeq	r0, r0, #0
    3f28:	09096823 	stmdbeq	r9, {r0, r1, r5, fp, sp, lr}
    3f2c:	0300001a 	movweq	r0, #26
    3f30:	0003583b 	andeq	r5, r3, fp, lsr r8
    3f34:	6c230200 	sfmvs	f0, 4, [r3], #-0
    3f38:	001dc709 	andseq	ip, sp, r9, lsl #14
    3f3c:	733d0300 	teqvc	sp, #0, 6
    3f40:	03000000 	movweq	r0, #0
    3f44:	09018023 	stmdbeq	r1, {r0, r1, r5, pc}
    3f48:	00001e4b 	andeq	r1, r0, fp, asr #28
    3f4c:	00733e03 	rsbseq	r3, r3, r3, lsl #28
    3f50:	23030000 	movwcs	r0, #12288	; 0x3000
    3f54:	7c090184 	stfvcs	f0, [r9], {132}	; 0x84
    3f58:	0300001c 	movweq	r0, #28
    3f5c:	0000733f 	andeq	r7, r0, pc, lsr r3
    3f60:	88230300 	stmdahi	r3!, {r8, r9}
    3f64:	1db80901 	ldcne	9, cr0, [r8, #4]!
    3f68:	40030000 	andmi	r0, r3, r0
    3f6c:	00000073 	andeq	r0, r0, r3, ror r0
    3f70:	018c2303 	orreq	r2, ip, r3, lsl #6
    3f74:	001c9709 	andseq	r9, ip, r9, lsl #14
    3f78:	73420300 	movtvc	r0, #8960	; 0x2300
    3f7c:	03000000 	movweq	r0, #0
    3f80:	09019023 	stmdbeq	r1, {r0, r1, r5, ip, pc}
    3f84:	00001d74 	andeq	r1, r0, r4, ror sp
    3f88:	00734303 	rsbseq	r4, r3, r3, lsl #6
    3f8c:	23030000 	movwcs	r0, #12288	; 0x3000
    3f90:	13090194 	movwne	r0, #37268	; 0x9194
    3f94:	0300001a 	movweq	r0, #26
    3f98:	00035d44 	andeq	r5, r3, r4, asr #26
    3f9c:	98230300 	stmdals	r3!, {r8, r9}
    3fa0:	1d9c0901 	ldcne	9, cr0, [ip, #4]
    3fa4:	46030000 	strmi	r0, [r3], -r0
    3fa8:	00000073 	andeq	r0, r0, r3, ror r0
    3fac:	01a02303 	lsleq	r2, r3, #6
    3fb0:	001d7c09 	andseq	r7, sp, r9, lsl #24
    3fb4:	73470300 	movtvc	r0, #29440	; 0x7300
    3fb8:	03000000 	movweq	r0, #0
    3fbc:	0901a423 	stmdbeq	r1, {r0, r1, r5, sl, sp, pc}
    3fc0:	00001d47 	andeq	r1, r0, r7, asr #26
    3fc4:	00734803 	rsbseq	r4, r3, r3, lsl #16
    3fc8:	23030000 	movwcs	r0, #12288	; 0x3000
    3fcc:	3d0901a8 	stfccs	f0, [r9, #-672]	; 0xfffffd60
    3fd0:	0300001d 	movweq	r0, #29
    3fd4:	00037249 	andeq	r7, r3, r9, asr #4
    3fd8:	ac230300 	stcge	3, cr0, [r3], #-0
    3fdc:	1da50901 	stcne	9, cr0, [r5, #4]!
    3fe0:	4b030000 	blmi	c3fe8 <__standby_start+0xc3fe8>
    3fe4:	00000073 	andeq	r0, r0, r3, ror r0
    3fe8:	02802303 	addeq	r2, r0, #201326592	; 0xc000000
    3fec:	001c9e09 	andseq	r9, ip, r9, lsl #28
    3ff0:	734c0300 	movtvc	r0, #49920	; 0xc300
    3ff4:	03000000 	movweq	r0, #0
    3ff8:	09028423 	stmdbeq	r2, {r0, r1, r5, sl, pc}
    3ffc:	00001cb0 			; <UNDEFINED> instruction: 0x00001cb0
    4000:	00734d03 	rsbseq	r4, r3, r3, lsl #26
    4004:	23030000 	movwcs	r0, #12288	; 0x3000
    4008:	8f090288 	svchi	0x00090288
    400c:	0300001c 	movweq	r0, #28
    4010:	0000734e 	andeq	r7, r0, lr, asr #6
    4014:	8c230300 	stchi	3, cr0, [r3], #-0
    4018:	1c560902 	mrrcne	9, 0, r0, r6, cr2
    401c:	50030000 	andpl	r0, r3, r0
    4020:	00000073 	andeq	r0, r0, r3, ror r0
    4024:	02902303 	addseq	r2, r0, #201326592	; 0xc000000
    4028:	001d3509 	andseq	r3, sp, r9, lsl #10
    402c:	73510300 	cmpvc	r1, #0, 6
    4030:	03000000 	movweq	r0, #0
    4034:	09029423 	stmdbeq	r2, {r0, r1, r5, sl, ip, pc}
    4038:	00001c84 	andeq	r1, r0, r4, lsl #25
    403c:	00735203 	rsbseq	r5, r3, r3, lsl #4
    4040:	23030000 	movwcs	r0, #12288	; 0x3000
    4044:	60090298 	mulvs	r9, r8, r2
    4048:	0300001c 	movweq	r0, #28
    404c:	00007353 	andeq	r7, r0, r3, asr r3
    4050:	9c230300 	stcls	3, cr0, [r3], #-0
    4054:	1dd50902 	ldclne	9, cr0, [r5, #8]
    4058:	55030000 	strpl	r0, [r3, #-0]
    405c:	00000377 	andeq	r0, r0, r7, ror r3
    4060:	02a02303 	adceq	r2, r0, #201326592	; 0xc000000
    4064:	005a0600 	subseq	r0, sl, r0, lsl #12
    4068:	033e0000 	teqeq	lr, #0
    406c:	25070000 	strcs	r0, [r7, #-0]
    4070:	01000000 	tsteq	r0, r0
    4074:	032e0500 	teqeq	lr, #0, 10
    4078:	2e050000 	cdpcs	0, 0, cr0, cr5, cr0, {0}
    407c:	06000003 	streq	r0, [r0], -r3
    4080:	0000005a 	andeq	r0, r0, sl, asr r0
    4084:	00000358 	andeq	r0, r0, r8, asr r3
    4088:	00002507 	andeq	r2, r0, r7, lsl #10
    408c:	05000400 	streq	r0, [r0, #-1024]	; 0xfffffc00
    4090:	00000348 	andeq	r0, r0, r8, asr #6
    4094:	00032e05 	andeq	r2, r3, r5, lsl #28
    4098:	005a0600 	subseq	r0, sl, r0, lsl #12
    409c:	03720000 	cmneq	r2, #0
    40a0:	25070000 	strcs	r0, [r7, #-0]
    40a4:	14000000 	strne	r0, [r0], #-0
    40a8:	03620500 	cmneq	r2, #0, 10
    40ac:	78050000 	stmdavc	r5, {}	; <UNPREDICTABLE>
    40b0:	04000000 	streq	r0, [r0], #-0
    40b4:	00001cb7 			; <UNDEFINED> instruction: 0x00001cb7
    40b8:	00885703 	addeq	r5, r8, r3, lsl #14
    40bc:	de0a0000 	cdple	0, 0, cr0, cr10, cr0, {0}
    40c0:	0400001c 	streq	r0, [r0], #-28	; 0xffffffe4
    40c4:	03a05a03 	moveq	r5, #12288	; 0x3000
    40c8:	430b0000 	movwmi	r0, #45056	; 0xb000
    40cc:	0000001c 	andeq	r0, r0, ip, lsl r0
    40d0:	001c6c0b 	andseq	r6, ip, fp, lsl #24
    40d4:	0c000100 	stfeqs	f0, [r0], {-0}
    40d8:	001e0501 	andseq	r0, lr, r1, lsl #10
    40dc:	01250100 	teqeq	r5, r0, lsl #2
    40e0:	0000004f 	andeq	r0, r0, pc, asr #32
    40e4:	f0001898 			; <UNDEFINED> instruction: 0xf0001898
    40e8:	f0001920 			; <UNDEFINED> instruction: 0xf0001920
    40ec:	00001207 	andeq	r1, r0, r7, lsl #4
    40f0:	000003c7 	andeq	r0, r0, r7, asr #7
    40f4:	0100690d 	tsteq	r0, sp, lsl #18
    40f8:	00004f27 	andeq	r4, r0, r7, lsr #30
    40fc:	010e0000 	tsteq	lr, r0
    4100:	00001d8b 	andeq	r1, r0, fp, lsl #27
    4104:	4f014e01 	svcmi	0x00014e01
    4108:	20000000 	andcs	r0, r0, r0
    410c:	6cf00019 	ldclvs	0, cr0, [r0], #100	; 0x64
    4110:	02f00019 	rscseq	r0, r0, #25
    4114:	03ed007d 	mvneq	r0, #125	; 0x7d
    4118:	690d0000 	stmdbvs	sp, {}	; <UNPREDICTABLE>
    411c:	4f500100 	svcmi	0x00500100
    4120:	00000000 	andeq	r0, r0, r0
    4124:	01b5010e 			; <UNDEFINED> instruction: 0x01b5010e
    4128:	6d010000 	stcvs	0, cr0, [r1, #-0]
    412c:	00004f01 	andeq	r4, r0, r1, lsl #30
    4130:	00196c00 	andseq	r6, r9, r0, lsl #24
    4134:	0019bcf0 			; <UNDEFINED> instruction: 0x0019bcf0
    4138:	007d02f0 	ldrshteq	r0, [sp], #-32	; 0xffffffe0
    413c:	00000419 	andeq	r0, r0, r9, lsl r4
    4140:	001d840f 	andseq	r8, sp, pc, lsl #8
    4144:	5a6d0100 	bpl	1b4454c <__standby_start+0x1b4454c>
    4148:	27000000 	strcs	r0, [r0, -r0]
    414c:	00000012 	andeq	r0, r0, r2, lsl r0
    4150:	1e2f0110 	mcrne	1, 1, r0, cr15, cr0, {0}
    4154:	8c010000 	stchi	0, cr0, [r1], {-0}
    4158:	0019bc01 	andseq	fp, r9, r1, lsl #24
    415c:	0019e0f0 	ldrsheq	lr, [r9], -r0
    4160:	007d02f0 	ldrshteq	r0, [sp], #-32	; 0xffffffe0
    4164:	1d570110 	ldfnee	f0, [r7, #-64]	; 0xffffffc0
    4168:	a3010000 	movwge	r0, #4096	; 0x1000
    416c:	0019e001 	andseq	lr, r9, r1
    4170:	001a08f0 			; <UNDEFINED> instruction: 0x001a08f0
    4174:	007d02f0 	ldrshteq	r0, [sp], #-32	; 0xffffffe0
    4178:	1e5e010e 	rdfnee	f0, f6, #0.5
    417c:	ba010000 	blt	44184 <__standby_start+0x44184>
    4180:	00004f01 	andeq	r4, r0, r1, lsl #30
    4184:	001a0800 	andseq	r0, sl, r0, lsl #16
    4188:	001a38f0 			; <UNDEFINED> instruction: 0x001a38f0
    418c:	007d02f0 	ldrshteq	r0, [sp], #-32	; 0xffffffe0
    4190:	00000478 	andeq	r0, r0, r8, ror r4
    4194:	0018fe0f 	andseq	pc, r8, pc, lsl #28
    4198:	87ba0100 	ldrhi	r0, [sl, r0, lsl #2]!
    419c:	3a000003 	bcc	41b0 <__standby_start+0x41b0>
    41a0:	11000012 	tstne	r0, r2, lsl r0
    41a4:	000019a7 	andeq	r1, r0, r7, lsr #19
    41a8:	004fbc01 	subeq	fp, pc, r1, lsl #24
    41ac:	12000000 	andne	r0, r0, #0
    41b0:	001de901 	andseq	lr, sp, r1, lsl #18
    41b4:	01e10100 	mvneq	r0, r0, lsl #2
    41b8:	f0001a38 			; <UNDEFINED> instruction: 0xf0001a38
    41bc:	f0001a88 			; <UNDEFINED> instruction: 0xf0001a88
    41c0:	0000124d 	andeq	r1, r0, sp, asr #4
    41c4:	000004a9 	andeq	r0, r0, r9, lsr #9
    41c8:	00736d13 	rsbseq	r6, r3, r3, lsl sp
    41cc:	0033e101 	eorseq	lr, r3, r1, lsl #2
    41d0:	126d0000 	rsbne	r0, sp, #0
    41d4:	690d0000 	stmdbvs	sp, {}	; <UNPREDICTABLE>
    41d8:	33e30100 	mvncc	r0, #0, 2
    41dc:	00000000 	andeq	r0, r0, r0
    41e0:	001e7b14 	andseq	r7, lr, r4, lsl fp
    41e4:	ba130100 	blt	4c45ec <__standby_start+0x4c45ec>
    41e8:	05000004 	streq	r0, [r0, #-4]
    41ec:	00200803 	eoreq	r0, r0, r3, lsl #16
    41f0:	7c0415f0 	cfstr32vc	mvfx1, [r4], {240}	; 0xf0
    41f4:	14000003 	strne	r0, [r0], #-3
    41f8:	00001dfb 	strdeq	r1, [r0], -fp
    41fc:	005a1401 	subseq	r1, sl, r1, lsl #8
    4200:	03050000 	movweq	r0, #20480	; 0x5000
    4204:	f000200c 			; <UNDEFINED> instruction: 0xf000200c
    4208:	001e8214 	andseq	r8, lr, r4, lsl r2
    420c:	5a140100 	bpl	504614 <__standby_start+0x504614>
    4210:	05000000 	streq	r0, [r0, #-0]
    4214:	00201003 	eoreq	r1, r0, r3
    4218:	1ca514f0 	cfstrsne	mvf1, [r5], #960	; 0x3c0
    421c:	14010000 	strne	r0, [r1], #-0
    4220:	0000005a 	andeq	r0, r0, sl, asr r0
    4224:	20140305 	andscs	r0, r4, r5, lsl #6
    4228:	d314f000 	tstle	r4, #0
    422c:	0100001c 	tsteq	r0, ip, lsl r0
    4230:	00005a14 	andeq	r5, r0, r4, lsl sl
    4234:	18030500 	stmdane	r3, {r8, sl}
    4238:	14f00020 	ldrbtne	r0, [r0], #32
    423c:	00001ccb 	andeq	r1, r0, fp, asr #25
    4240:	005a1401 	subseq	r1, sl, r1, lsl #8
    4244:	03050000 	movweq	r0, #20480	; 0x5000
    4248:	f000201c 			; <UNDEFINED> instruction: 0xf000201c
    424c:	001dad14 	andseq	sl, sp, r4, lsl sp
    4250:	5a140100 	bpl	504658 <__standby_start+0x504658>
    4254:	05000000 	streq	r0, [r0, #-0]
    4258:	00202003 	eoreq	r2, r0, r3
    425c:	1dde14f0 	cfldrdne	mvd1, [lr, #960]	; 0x3c0
    4260:	14010000 	strne	r0, [r1], #-0
    4264:	0000005a 	andeq	r0, r0, sl, asr r0
    4268:	20240305 	eorcs	r0, r4, r5, lsl #6
    426c:	bc00f000 	stclt	0, cr15, [r0], {-0}
    4270:	02000002 	andeq	r0, r0, #2
    4274:	000c9700 	andeq	r9, ip, r0, lsl #14
    4278:	ed010400 	cfstrs	mvf0, [r1, #-0]
    427c:	01000002 	tsteq	r0, r2
    4280:	00001f2f 	andeq	r1, r0, pc, lsr #30
    4284:	00000141 	andeq	r0, r0, r1, asr #2
    4288:	f0001a88 			; <UNDEFINED> instruction: 0xf0001a88
    428c:	f0001dc0 			; <UNDEFINED> instruction: 0xf0001dc0
    4290:	00000b00 	andeq	r0, r0, r0, lsl #22
    4294:	2f070402 	svccs	0x00070402
    4298:	02000002 	andeq	r0, r0, #2
    429c:	01d10801 	bicseq	r0, r1, r1, lsl #16
    42a0:	04030000 	streq	r0, [r3], #-0
    42a4:	746e6905 	strbtvc	r6, [lr], #-2309	; 0xfffff6fb
    42a8:	06010200 	streq	r0, [r1], -r0, lsl #4
    42ac:	000001d3 	ldrdeq	r0, [r0], -r3
    42b0:	001bf304 	andseq	pc, fp, r4, lsl #6
    42b4:	2c160200 	lfmcs	f0, 4, [r6], {-0}
    42b8:	02000000 	andeq	r0, r0, #0
    42bc:	01df0502 	bicseq	r0, pc, r2, lsl #10
    42c0:	02020000 	andeq	r0, r2, #0
    42c4:	00028707 	andeq	r8, r2, r7, lsl #14
    42c8:	0e100400 	cfmulseq	mvf0, mvf0, mvf0
    42cc:	19020000 	stmdbne	r2, {}	; <UNPREDICTABLE>
    42d0:	00000033 	andeq	r0, r0, r3, lsr r0
    42d4:	0000fc04 	andeq	pc, r0, r4, lsl #24
    42d8:	251a0200 	ldrcs	r0, [sl, #-512]	; 0xfffffe00
    42dc:	02000000 	andeq	r0, r0, #0
    42e0:	012b0508 	teqeq	fp, r8, lsl #10
    42e4:	08020000 	stmdaeq	r2, {}	; <UNPREDICTABLE>
    42e8:	00022507 	andeq	r2, r2, r7, lsl #10
    42ec:	1f790500 	svcne	0x00790500
    42f0:	03240000 	teqeq	r4, #0
    42f4:	00010919 	andeq	r0, r1, r9, lsl r9
    42f8:	1f860600 	svcne	0x00860600
    42fc:	1b030000 	blne	c4304 <__standby_start+0xc4304>
    4300:	00000109 	andeq	r0, r0, r9, lsl #2
    4304:	06002302 	streq	r2, [r0], -r2, lsl #6
    4308:	00001f17 	andeq	r1, r0, r7, lsl pc
    430c:	01091c03 	tsteq	r9, r3, lsl #24
    4310:	23020000 	movwcs	r0, #8192	; 0x2000
    4314:	1ef00604 	cdpne	6, 15, cr0, cr0, cr4, {0}
    4318:	1d030000 	stcne	0, cr0, [r3, #-0]
    431c:	00000109 	andeq	r0, r0, r9, lsl #2
    4320:	06082302 	streq	r2, [r8], -r2, lsl #6
    4324:	00001f60 	andeq	r1, r0, r0, ror #30
    4328:	01091e03 	tsteq	r9, r3, lsl #28
    432c:	23020000 	movwcs	r0, #8192	; 0x2000
    4330:	1f99060c 	svcne	0x0099060c
    4334:	1f030000 	svcne	0x00030000
    4338:	00000109 	andeq	r0, r0, r9, lsl #2
    433c:	06102302 	ldreq	r2, [r0], -r2, lsl #6
    4340:	00001ee7 	andeq	r1, r0, r7, ror #29
    4344:	01092003 	tsteq	r9, r3
    4348:	23020000 	movwcs	r0, #8192	; 0x2000
    434c:	1eb00614 	mrcne	6, 5, r0, cr0, cr4, {0}
    4350:	21030000 	tstcs	r3, r0
    4354:	00000109 	andeq	r0, r0, r9, lsl #2
    4358:	06182302 	ldreq	r2, [r8], -r2, lsl #6
    435c:	00001e92 	muleq	r0, r2, lr
    4360:	01092203 	tsteq	r9, r3, lsl #4
    4364:	23020000 	movwcs	r0, #8192	; 0x2000
    4368:	1f90061c 	svcne	0x0090061c
    436c:	23030000 	movwcs	r0, #12288	; 0x3000
    4370:	00000109 	andeq	r0, r0, r9, lsl #2
    4374:	00202302 	eoreq	r2, r0, r2, lsl #6
    4378:	00002507 	andeq	r2, r0, r7, lsl #10
    437c:	1eda0400 	cdpne	4, 13, cr0, cr10, cr0, {0}
    4380:	25030000 	strcs	r0, [r3, #-0]
    4384:	0000007e 	andeq	r0, r0, lr, ror r0
    4388:	001bdd08 	andseq	sp, fp, r8, lsl #26
    438c:	29030400 	stmdbcs	r3, {sl}
    4390:	00000132 	andeq	r0, r0, r2, lsr r1
    4394:	001bd309 	andseq	sp, fp, r9, lsl #6
    4398:	8d090000 	stchi	0, cr0, [r9, #-0]
    439c:	0100001b 	tsteq	r0, fp, lsl r0
    43a0:	68010a00 	stmdavs	r1, {r9, fp}
    43a4:	0100001f 	tsteq	r0, pc, lsl r0
    43a8:	005a012e 	subseq	r0, sl, lr, lsr #2
    43ac:	1a880000 	bne	fe2043b4 <__bss_end+0xe20236c>
    43b0:	1ad0f000 	bne	ff4403b8 <__bss_end+0xf43e370>
    43b4:	7d02f000 	stcvc	0, cr15, [r2, #-0]
    43b8:	00015e00 	andeq	r5, r1, r0, lsl #28
    43bc:	1ecc0b00 	vdivne.f64	d16, d12, d0
    43c0:	2e010000 	cdpcs	0, 0, cr0, cr1, cr0, {0}
    43c4:	00000033 	andeq	r0, r0, r3, lsr r0
    43c8:	0000129d 	muleq	r0, sp, r2
    43cc:	06010c00 	streq	r0, [r1], -r0, lsl #24
    43d0:	0100001f 	tsteq	r0, pc, lsl r0
    43d4:	005a0146 	subseq	r0, sl, r6, asr #2
    43d8:	1ad00000 	bne	ff4043e0 <__bss_end+0xf402398>
    43dc:	1b18f000 	blne	6403e4 <__standby_start+0x6403e4>
    43e0:	12b0f000 	adcsne	pc, r0, #0
    43e4:	ba0d0000 	blt	3443ec <__standby_start+0x3443ec>
    43e8:	0100001e 	tsteq	r0, lr, lsl r0
    43ec:	00330161 	eorseq	r0, r3, r1, ror #2
    43f0:	9f010000 	svcls	0x00010000
    43f4:	0e000001 	cdpeq	0, 0, cr0, cr0, cr1, {0}
    43f8:	00001ea7 	andeq	r1, r0, r7, lsr #29
    43fc:	00256301 	eoreq	r6, r5, r1, lsl #6
    4400:	580e0000 	stmdapl	lr, {}	; <UNPREDICTABLE>
    4404:	0100001f 	tsteq	r0, pc, lsl r0
    4408:	00002564 	andeq	r2, r0, r4, ror #10
    440c:	010f0000 	mrseq	r0, CPSR
    4410:	00001f3d 	andeq	r1, r0, sp, lsr pc
    4414:	5a019301 	bpl	69020 <__standby_start+0x69020>
    4418:	18000000 	stmdane	r0, {}	; <UNPREDICTABLE>
    441c:	c0f0001b 	rscsgt	r0, r0, fp, lsl r0
    4420:	d0f0001d 	rscsle	r0, r0, sp, lsl r0
    4424:	5a000012 	bpl	4474 <__standby_start+0x4474>
    4428:	10000002 	andne	r0, r0, r2
    442c:	0100706f 	tsteq	r0, pc, rrx
    4430:	00011993 	muleq	r1, r3, r9
    4434:	0012f000 	andseq	pc, r2, r0
    4438:	1f8a0b00 	svcne	0x008a0b00
    443c:	93010000 	movwls	r0, #4096	; 0x1000
    4440:	00000041 	andeq	r0, r0, r1, asr #32
    4444:	00001303 	andeq	r1, r0, r3, lsl #6
    4448:	001f490b 	andseq	r4, pc, fp, lsl #18
    444c:	41930100 	orrsmi	r0, r3, r0, lsl #2
    4450:	16000000 	strne	r0, [r0], -r0
    4454:	0b000013 	bleq	44a8 <__standby_start+0x44a8>
    4458:	00001c03 	andeq	r1, r0, r3, lsl #24
    445c:	025a9301 	subseq	r9, sl, #67108864	; 0x4000000
    4460:	13290000 	teqne	r9, #0
    4464:	a4110000 	ldrge	r0, [r1], #-0
    4468:	0100001f 	tsteq	r0, pc, lsl r0
    446c:	00002c95 	muleq	r0, r5, ip
    4470:	00134700 	andseq	r4, r3, r0, lsl #14
    4474:	1f581100 	svcne	0x00581100
    4478:	96010000 	strls	r0, [r1], -r0
    447c:	00000025 	andeq	r0, r0, r5, lsr #32
    4480:	000013a7 	andeq	r1, r0, r7, lsr #7
    4484:	74657212 	strbtvc	r7, [r5], #-530	; 0xfffffdee
    4488:	33970100 	orrscc	r0, r7, #0, 2
    448c:	b9000000 	stmdblt	r0, {}	; <UNPREDICTABLE>
    4490:	13000014 	movwne	r0, #20
    4494:	00001f4f 	andeq	r1, r0, pc, asr #30
    4498:	38011401 	stmdacc	r1, {r0, sl, ip}
    449c:	14f0001d 	ldrbtne	r0, [r0], #29
    44a0:	00000177 	andeq	r0, r0, r7, ror r1
    44a4:	f0001d38 			; <UNDEFINED> instruction: 0xf0001d38
    44a8:	f0001db8 			; <UNDEFINED> instruction: 0xf0001db8
    44ac:	15011701 	strne	r1, [r1, #-1793]	; 0xfffff8ff
    44b0:	f0001d38 			; <UNDEFINED> instruction: 0xf0001d38
    44b4:	f0001db8 			; <UNDEFINED> instruction: 0xf0001db8
    44b8:	00018816 	andeq	r8, r1, r6, lsl r8
    44bc:	01931700 	orrseq	r1, r3, r0, lsl #14
    44c0:	14d90000 	ldrbne	r0, [r9], #0
    44c4:	00000000 	andeq	r0, r0, r0
    44c8:	41041800 	tstmi	r4, r0, lsl #16
    44cc:	19000000 	stmdbne	r0, {}	; <UNPREDICTABLE>
    44d0:	00000270 	andeq	r0, r0, r0, ror r2
    44d4:	00000270 	andeq	r0, r0, r0, ror r2
    44d8:	0000251a 	andeq	r2, r0, sl, lsl r5
    44dc:	18000200 	stmdane	r0, {r9}
    44e0:	00010e04 	andeq	r0, r1, r4, lsl #28
    44e4:	1ef91b00 	vmovne.f64	d17, #144	; 0x90
    44e8:	16010000 	strne	r0, [r1], -r0
    44ec:	00000287 	andeq	r0, r0, r7, lsl #5
    44f0:	1e2c0305 	cdpne	3, 2, cr0, cr12, cr5, {0}
    44f4:	601cf000 	andsvs	pc, ip, r0
    44f8:	1b000002 	blne	4508 <__standby_start+0x4508>
    44fc:	00001f22 	andeq	r1, r0, r2, lsr #30
    4500:	00651c01 	rsbeq	r1, r5, r1, lsl #24
    4504:	03050000 	movweq	r0, #20480	; 0x5000
    4508:	f000202c 			; <UNDEFINED> instruction: 0xf000202c
    450c:	001e9a1b 	andseq	r9, lr, fp, lsl sl
    4510:	651d0100 	ldrvs	r0, [sp, #-256]	; 0xffffff00
    4514:	05000000 	streq	r0, [r0, #-0]
    4518:	00203003 	eoreq	r3, r0, r3
    451c:	1ed21bf0 	vmovne.u8	r1, d18[3]
    4520:	1e010000 	cdpne	0, 0, cr0, cr1, cr0, {0}
    4524:	00000270 	andeq	r0, r0, r0, ror r2
    4528:	20280305 	eorcs	r0, r8, r5, lsl #6
    452c:	e400f000 	str	pc, [r0], #-0
    4530:	02000000 	andeq	r0, r0, #0
    4534:	000e1600 	andeq	r1, lr, r0, lsl #12
    4538:	ed010400 	cfstrs	mvf0, [r1, #-0]
    453c:	01000002 	tsteq	r0, r2
    4540:	00001fae 	andeq	r1, r0, lr, lsr #31
    4544:	00000141 	andeq	r0, r0, r1, asr #2
    4548:	f0001dc0 			; <UNDEFINED> instruction: 0xf0001dc0
    454c:	f0001de0 			; <UNDEFINED> instruction: 0xf0001de0
    4550:	00000bfd 	strdeq	r0, [r0], -sp
    4554:	2f070402 	svccs	0x00070402
    4558:	02000002 	andeq	r0, r0, #2
    455c:	01d10801 	bicseq	r0, r1, r1, lsl #16
    4560:	04030000 	streq	r0, [r3], #-0
    4564:	746e6905 	strbtvc	r6, [lr], #-2309	; 0xfffff6fb
    4568:	06010200 	streq	r0, [r1], -r0, lsl #4
    456c:	000001d3 	ldrdeq	r0, [r0], -r3
    4570:	df050202 	svcle	0x00050202
    4574:	02000001 	andeq	r0, r0, #1
    4578:	02870702 	addeq	r0, r7, #524288	; 0x80000
    457c:	10040000 	andne	r0, r4, r0
    4580:	0200000e 	andeq	r0, r0, #14
    4584:	00003319 	andeq	r3, r0, r9, lsl r3
    4588:	00fc0400 	rscseq	r0, ip, r0, lsl #8
    458c:	1a020000 	bne	84594 <__standby_start+0x84594>
    4590:	00000025 	andeq	r0, r0, r5, lsr #32
    4594:	2b050802 	blcs	1465a4 <__standby_start+0x1465a4>
    4598:	02000001 	andeq	r0, r0, #1
    459c:	02250708 	eoreq	r0, r5, #8, 14	; 0x200000
    45a0:	01050000 	tsteq	r5, r0
    45a4:	00002002 	andeq	r2, r0, r2
    45a8:	4f012601 	svcmi	0x00012601
    45ac:	c0000000 	andgt	r0, r0, r0
    45b0:	c8f0001d 	ldmgt	r0!, {r0, r2, r3, r4}^
    45b4:	02f0001d 	rscseq	r0, r0, #29
    45b8:	0105007d 	tsteq	r5, sp, ror r0
    45bc:	00001fbc 			; <UNDEFINED> instruction: 0x00001fbc
    45c0:	4f013701 	svcmi	0x00013701
    45c4:	c8000000 	stmdagt	r0, {}	; <UNPREDICTABLE>
    45c8:	d0f0001d 	rscsle	r0, r0, sp, lsl r0
    45cc:	02f0001d 	rscseq	r0, r0, #29
    45d0:	0106007d 	tsteq	r6, sp, ror r0
    45d4:	00001fcd 	andeq	r1, r0, sp, asr #31
    45d8:	4f014b01 	svcmi	0x00014b01
    45dc:	d0000000 	andle	r0, r0, r0
    45e0:	d8f0001d 	ldmle	r0!, {r0, r2, r3, r4}^
    45e4:	02f0001d 	rscseq	r0, r0, #29
    45e8:	00cf007d 	sbceq	r0, pc, sp, ror r0	; <UNPREDICTABLE>
    45ec:	1e070000 	cdpne	0, 0, cr0, cr7, cr0, {0}
    45f0:	01000001 	tsteq	r0, r1
    45f4:	00005a4b 	andeq	r5, r0, fp, asr #20
    45f8:	00152a00 	andseq	r2, r5, r0, lsl #20
    45fc:	01050000 	tsteq	r5, r0
    4600:	00001fea 	andeq	r1, r0, sl, ror #31
    4604:	4f015e01 	svcmi	0x00015e01
    4608:	d8000000 	stmdale	r0, {}	; <UNPREDICTABLE>
    460c:	e0f0001d 	rscs	r0, r0, sp, lsl r0
    4610:	02f0001d 	rscseq	r0, r0, #29
    4614:	7b00007d 	blvc	4810 <__standby_start+0x4810>
    4618:	02000000 	andeq	r0, r0, #0
    461c:	000e8c00 	andeq	r8, lr, r0, lsl #24
    4620:	53010400 	movwpl	r0, #5120	; 0x1400
    4624:	e000000c 	and	r0, r0, ip
    4628:	ecf0001d 	ldcl	0, cr0, [r0], #116	; 0x74
    462c:	73f0001d 	mvnsvc	r0, #29
    4630:	646e6174 	strbtvs	r6, [lr], #-372	; 0xfffffe8c
    4634:	645f7962 	ldrbvs	r7, [pc], #-2402	; 463c <__standby_start+0x463c>
    4638:	79616c65 	stmdbvc	r1!, {r0, r2, r5, r6, sl, fp, sp, lr}^
    463c:	2f00532e 	svccs	0x0000532e
    4640:	656d6f68 	strbvs	r6, [sp, #-3944]!	; 0xfffff098
    4644:	3636732f 	ldrtcc	r7, [r6], -pc, lsr #6
    4648:	30316135 	eorscc	r6, r1, r5, lsr r1
    464c:	316b6b2f 	cmncc	fp, pc, lsr #22
    4650:	696c2f30 	stmdbvs	ip!, {r4, r5, r8, r9, sl, fp, sp}^
    4654:	65656863 	strbvs	r6, [r5, #-2147]!	; 0xfffff79d
    4658:	6e696c2f 	cdpvs	12, 6, cr6, cr9, cr15, {1}
    465c:	322d7875 	eorcc	r7, sp, #7667712	; 0x750000
    4660:	332e362e 	teqcc	lr, #48234496	; 0x2e00000
    4664:	72612f36 	rsbvc	r2, r1, #54, 30	; 0xd8
    4668:	612f6863 	teqvs	pc, r3, ror #16
    466c:	6d2f6d72 	stcvs	13, cr6, [pc, #-456]!	; 44ac <__standby_start+0x44ac>
    4670:	2d686361 	stclcs	3, cr6, [r8, #-388]!	; 0xfffffe7c
    4674:	346e7573 	strbtcc	r7, [lr], #-1395	; 0xfffffa8d
    4678:	6d702f69 	ldclvs	15, cr2, [r0, #-420]!	; 0xfffffe5c
    467c:	6174732f 	cmnvs	r4, pc, lsr #6
    4680:	7962646e 	stmdbvc	r2!, {r1, r2, r3, r5, r6, sl, sp, lr}^
    4684:	554e4700 	strbpl	r4, [lr, #-1792]	; 0xfffff900
    4688:	20534120 	subscs	r4, r3, r0, lsr #2
    468c:	30322e32 	eorscc	r2, r2, r2, lsr lr
    4690:	0031352e 	eorseq	r3, r1, lr, lsr #10
    4694:	Address 0x00004694 is out of bounds.


Disassembly of section .debug_line:

00000000 <.debug_line>:
   0:	00000155 	andeq	r0, r0, r5, asr r1
   4:	00b80002 	adcseq	r0, r8, r2
   8:	01020000 	tsteq	r2, r0
   c:	000d0efb 	strdeq	r0, [sp], -fp
  10:	01010101 	tsteq	r1, r1, lsl #2
  14:	01000000 	tsteq	r0, r0
  18:	2f010000 	svccs	0x00010000
  1c:	656d6f68 	strbvs	r6, [sp, #-3944]!	; 0xfffff098
  20:	3636732f 	ldrtcc	r7, [r6], -pc, lsr #6
  24:	30316135 	eorscc	r6, r1, r5, lsr r1
  28:	316b6b2f 	cmncc	fp, pc, lsr #22
  2c:	696c2f30 	stmdbvs	ip!, {r4, r5, r8, r9, sl, fp, sp}^
  30:	65656863 	strbvs	r6, [r5, #-2147]!	; 0xfffff79d
  34:	6e696c2f 	cdpvs	12, 6, cr6, cr9, cr15, {1}
  38:	322d7875 	eorcc	r7, sp, #7667712	; 0x750000
  3c:	332e362e 	teqcc	lr, #48234496	; 0x2e00000
  40:	6e692f36 	mcrvs	15, 3, r2, cr9, cr6, {1}
  44:	64756c63 	ldrbtvs	r6, [r5], #-3171	; 0xfffff39d
  48:	696c2f65 	stmdbvs	ip!, {r0, r2, r5, r6, r8, r9, sl, fp, sp}^
  4c:	2f78756e 	svccs	0x0078756e
  50:	65776f70 	ldrbvs	r6, [r7, #-3952]!	; 0xfffff090
  54:	73000072 	movwvc	r0, #114	; 0x72
  58:	646e6174 	strbtvs	r6, [lr], #-372	; 0xfffffe8c
  5c:	632e7962 	teqvs	lr, #1605632	; 0x188000
  60:	00000000 	andeq	r0, r0, r0
  64:	705f7761 	subsvc	r7, pc, r1, ror #14
  68:	00682e6d 	rsbeq	r2, r8, sp, ror #28
  6c:	73000001 	movwvc	r0, #1
  70:	646e6174 	strbtvs	r6, [lr], #-372	; 0xfffffe8c
  74:	635f7962 	cmpvs	pc, #1605632	; 0x188000
  78:	6b636f6c 	blvs	18dbe30 <__standby_start+0x18dbe30>
  7c:	0000682e 	andeq	r6, r0, lr, lsr #16
  80:	74730000 	ldrbtvc	r0, [r3], #-0
  84:	62646e61 	rsbvs	r6, r4, #1552	; 0x610
  88:	6f705f79 	svcvs	0x00705f79
  8c:	2e726577 	mrccs	5, 3, r6, cr2, cr7, {3}
  90:	00000068 	andeq	r0, r0, r8, rrx
  94:	61747300 	cmnvs	r4, r0, lsl #6
  98:	7962646e 	stmdbvc	r2!, {r1, r2, r3, r5, r6, sl, sp, lr}^
  9c:	746e695f 	strbtvc	r6, [lr], #-2399	; 0xfffff6a1
  a0:	0000682e 	andeq	r6, r0, lr, lsr #16
  a4:	74730000 	ldrbtvc	r0, [r3], #-0
  a8:	62646e61 	rsbvs	r6, r4, #1552	; 0x610
  ac:	2e695f79 	mcrcs	15, 3, r5, cr9, cr9, {3}
  b0:	00000068 	andeq	r0, r0, r8, rrx
  b4:	6d6f6300 	stclvs	3, cr6, [pc, #-0]	; bc <__standby_start+0xbc>
  b8:	2e6e6f6d 	cdpcs	15, 6, cr6, cr14, cr13, {3}
  bc:	00000068 	andeq	r0, r0, r8, rrx
  c0:	05000000 	streq	r0, [r0, #-0]
  c4:	00000002 	andeq	r0, r0, r2
  c8:	013803f0 			; <UNDEFINED> instruction: 0x013803f0
  cc:	09034831 	stmdbeq	r3, {r0, r4, r5, fp, lr}
  d0:	0200302e 	andeq	r3, r0, #46	; 0x2e
  d4:	a1310104 	teqge	r1, r4, lsl #2
  d8:	660e0384 	strvs	r0, [lr], -r4, lsl #7
  dc:	4c2e7203 	sfmmi	f7, 4, [lr], #-12
  e0:	2f2f2f89 	svccs	0x002f2f89
  e4:	674c6730 	smlaldxvs	r6, ip, r0, r7
  e8:	2f674c2f 	svccs	0x00674c2f
  ec:	4c844c4b 	stcmi	12, cr4, [r4], {75}	; 0x4b
  f0:	684c2f67 	stmdavs	ip, {r0, r1, r2, r5, r6, r8, r9, sl, fp, sp}^
  f4:	684f2f83 	stmdavs	pc, {r0, r1, r7, r8, r9, sl, fp, sp}^	; <UNPREDICTABLE>
  f8:	4d2e3703 	stcmi	7, cr3, [lr, #-12]!
  fc:	4d67312f 	stfmie	f3, [r7, #-188]!	; 0xffffff44
 100:	694b312b 	stmdbvs	fp, {r0, r1, r3, r5, r8, ip, sp}^
 104:	3083304b 	addcc	r3, r3, fp, asr #32
 108:	2f314c2f 	svccs	0x00314c2f
 10c:	0e033232 	mcreq	2, 0, r3, cr3, cr2, {1}
 110:	2e74032e 	cdpcs	3, 7, cr0, cr4, cr14, {1}
 114:	304d2f4b 	subcc	r2, sp, fp, asr #30
 118:	4b4b4d30 	blmi	12d35e0 <__standby_start+0x12d35e0>
 11c:	2d9f4b2d 	vldrcs	d4, [pc, #180]	; 1d8 <__standby_start+0x1d8>
 120:	2f2d9f2f 	svccs	0x002d9f2f
 124:	9f2f2d9f 	svcls	0x002f2d9f
 128:	2b312f2d 	blcs	c4bde4 <__standby_start+0xc4bde4>
 12c:	2f312b85 	svccs	0x00312b85
 130:	4c2f4d67 	stcmi	13, cr4, [pc], #-412	; ffffff9c <__bss_end+0xfffdf54>
 134:	86034d2f 	strhi	r4, [r3], -pc, lsr #26
 138:	30304a7f 	eorscc	r4, r0, pc, ror sl
 13c:	30674d31 	rsbcc	r4, r7, r1, lsr sp
 140:	30673383 	rsbcc	r3, r7, r3, lsl #7
 144:	312f2f2f 	teqcc	pc, pc, lsr #30
 148:	4c2c3085 	stcmi	0, cr3, [ip], #-532	; 0xfffffdec
 14c:	2e7f9f03 	cdpcs	15, 7, cr9, cr15, cr3, {0}
 150:	2e00e203 	cdpcs	2, 0, cr14, cr0, cr3, {0}
 154:	01000e02 	tsteq	r0, r2, lsl #28
 158:	00006e01 	andeq	r6, r0, r1, lsl #28
 15c:	3e000200 	cdpcc	2, 0, cr0, cr0, cr0, {0}
 160:	02000000 	andeq	r0, r0, #0
 164:	0d0efb01 	vstreq	d15, [lr, #-4]
 168:	01010100 	tsteq	r1, r0, lsl #2
 16c:	00000001 	andeq	r0, r0, r1
 170:	01000001 	tsteq	r0, r1
 174:	6d6f6300 	stclvs	3, cr6, [pc, #-0]	; 17c <__standby_start+0x17c>
 178:	2e6e6f6d 	cdpcs	15, 6, cr6, cr14, cr13, {3}
 17c:	00000063 	andeq	r0, r0, r3, rrx
 180:	61747300 	cmnvs	r4, r0, lsl #6
 184:	7962646e 	stmdbvc	r2!, {r1, r2, r3, r5, r6, sl, sp, lr}^
 188:	6f6c635f 	svcvs	0x006c635f
 18c:	682e6b63 	stmdavs	lr!, {r0, r1, r5, r6, r8, r9, fp, sp, lr}
 190:	00000000 	andeq	r0, r0, r0
 194:	6d6d6f63 	stclvs	15, cr6, [sp, #-396]!	; 0xfffffe74
 198:	682e6e6f 	stmdavs	lr!, {r0, r1, r2, r3, r5, r6, r9, sl, fp, sp, lr}
 19c:	00000000 	andeq	r0, r0, r0
 1a0:	02050000 	andeq	r0, r5, #0
 1a4:	f0000350 			; <UNDEFINED> instruction: 0xf0000350
 1a8:	16012303 	strne	r2, [r1], -r3, lsl #6
 1ac:	02040200 	andeq	r0, r4, #0, 4
 1b0:	04020088 	streq	r0, [r2], #-136	; 0xffffff78
 1b4:	02002d02 	andeq	r2, r0, #2, 26	; 0x80
 1b8:	002f0204 	eoreq	r0, pc, r4, lsl #4
 1bc:	2d010402 	cfstrscs	mvf0, [r1, #-8]
 1c0:	13661703 	cmnne	r6, #786432	; 0xc0000
 1c4:	04021167 	streq	r1, [r2], #-359	; 0xfffffe99
 1c8:	6a010100 	bvs	405d0 <__standby_start+0x405d0>
 1cc:	02000000 	andeq	r0, r0, #0
 1d0:	00001e00 	andeq	r1, r0, r0, lsl #28
 1d4:	fb010200 	blx	409de <__standby_start+0x409de>
 1d8:	01000d0e 	tsteq	r0, lr, lsl #26
 1dc:	00010101 	andeq	r0, r1, r1, lsl #2
 1e0:	00010000 	andeq	r0, r1, r0
 1e4:	73000100 	movwvc	r0, #256	; 0x100
 1e8:	6b636174 	blvs	18d87c0 <__standby_start+0x18d87c0>
 1ec:	0000532e 	andeq	r5, r0, lr, lsr #6
 1f0:	00000000 	andeq	r0, r0, r0
 1f4:	038c0205 	orreq	r0, ip, #1342177280	; 0x50000000
 1f8:	2f1af000 	svccs	0x001af000
 1fc:	342f332f 	strtcc	r3, [pc], #-815	; 204 <__standby_start+0x204>
 200:	332f2f30 	teqcc	pc, #48, 30	; 0xc0
 204:	2f2f2f30 	svccs	0x002f2f30
 208:	2f2f2f2f 	svccs	0x002f2f2f
 20c:	2f2f2f2f 	svccs	0x002f2f2f
 210:	2f302f2f 	svccs	0x00302f2f
 214:	2f2f2f2f 	svccs	0x002f2f2f
 218:	2f2f2f2f 	svccs	0x002f2f2f
 21c:	2f2f2f2f 	svccs	0x002f2f2f
 220:	2f312f2f 	svccs	0x00312f2f
 224:	2f2f2f2f 	svccs	0x002f2f2f
 228:	2f2f2f2f 	svccs	0x002f2f2f
 22c:	2f2f2f2f 	svccs	0x002f2f2f
 230:	2f302f2f 	svccs	0x00302f2f
 234:	01002002 	tsteq	r0, r2
 238:	00016301 	andeq	r6, r1, r1, lsl #6
 23c:	9c000200 	sfmls	f0, 4, [r0], {-0}
 240:	02000000 	andeq	r0, r0, #0
 244:	0d0efb01 	vstreq	d15, [lr, #-4]
 248:	01010100 	tsteq	r1, r0, lsl #2
 24c:	00000001 	andeq	r0, r0, r1
 250:	01000001 	tsteq	r0, r1
 254:	6d6f682f 	stclvs	8, cr6, [pc, #-188]!	; 1a0 <__standby_start+0x1a0>
 258:	36732f65 	ldrbtcc	r2, [r3], -r5, ror #30
 25c:	31613536 	cmncc	r1, r6, lsr r5
 260:	6b6b2f30 	blvs	1acbf28 <__standby_start+0x1acbf28>
 264:	6c2f3031 	stcvs	0, cr3, [pc], #-196	; 1a8 <__standby_start+0x1a8>
 268:	65686369 	strbvs	r6, [r8, #-873]!	; 0xfffffc97
 26c:	696c2f65 	stmdbvs	ip!, {r0, r2, r5, r6, r8, r9, sl, fp, sp}^
 270:	2d78756e 	cfldr64cs	mvdx7, [r8, #-440]!	; 0xfffffe48
 274:	2e362e32 	mrccs	14, 1, r2, cr6, cr2, {1}
 278:	612f3633 	teqvs	pc, r3, lsr r6	; <UNPREDICTABLE>
 27c:	2f686372 	svccs	0x00686372
 280:	2f6d7261 	svccs	0x006d7261
 284:	6863616d 	stmdavs	r3!, {r0, r2, r3, r5, r6, r8, sp, lr}^
 288:	6e75732d 	cdpvs	3, 7, cr7, cr5, cr13, {1}
 28c:	692f6934 	stmdbvs	pc!, {r2, r4, r5, r8, fp, sp, lr}	; <UNPREDICTABLE>
 290:	756c636e 	strbvc	r6, [ip, #-878]!	; 0xfffffc92
 294:	6d2f6564 	cfstr32vs	mvfx6, [pc, #-400]!	; 10c <__standby_start+0x10c>
 298:	00686361 	rsbeq	r6, r8, r1, ror #6
 29c:	61747300 	cmnvs	r4, r0, lsl #6
 2a0:	7962646e 	stmdbvc	r2!, {r1, r2, r3, r5, r6, sl, sp, lr}^
 2a4:	6f6c635f 	svcvs	0x006c635f
 2a8:	632e6b63 	teqvs	lr, #101376	; 0x18c00
 2ac:	00000000 	andeq	r0, r0, r0
 2b0:	6d6d6f63 	stclvs	15, cr6, [sp, #-396]!	; 0xfffffe74
 2b4:	682e6e6f 	stmdavs	lr!, {r0, r1, r2, r3, r5, r6, r9, sl, fp, sp, lr}
 2b8:	00000000 	andeq	r0, r0, r0
 2bc:	756d6363 	strbvc	r6, [sp, #-867]!	; 0xfffffc9d
 2c0:	6765725f 			; <UNDEFINED> instruction: 0x6765725f
 2c4:	00682e73 	rsbeq	r2, r8, r3, ror lr
 2c8:	73000001 	movwvc	r0, #1
 2cc:	646e6174 	strbtvs	r6, [lr], #-372	; 0xfffffe8c
 2d0:	635f7962 	cmpvs	pc, #1605632	; 0x188000
 2d4:	6b636f6c 	blvs	18dc08c <__standby_start+0x18dc08c>
 2d8:	0000682e 	andeq	r6, r0, lr, lsr #16
 2dc:	00000000 	andeq	r0, r0, r0
 2e0:	04b00205 	ldrteq	r0, [r0], #517	; 0x205
 2e4:	2f03f000 	svccs	0x0003f000
 2e8:	0f031301 	svceq	0x00031301
 2ec:	2e71032e 	cdpcs	3, 7, cr0, cr1, cr14, {1}
 2f0:	67674b4d 	strbvs	r4, [r7, -sp, asr #22]!
 2f4:	69676767 	stmdbvs	r7!, {r0, r1, r2, r5, r6, r8, r9, sl, sp, lr}^
 2f8:	08120369 	ldmdaeq	r2, {r0, r3, r5, r6, r8, r9}
 2fc:	0903143c 	stmdbeq	r3, {r2, r3, r4, r5, sl, ip}
 300:	2e77032e 	cdpcs	3, 7, cr0, cr7, cr14, {1}
 304:	4b4b4b67 	blmi	12d30a8 <__standby_start+0x12d30a8>
 308:	034d4b4b 	movteq	r4, #56139	; 0xdb4b
 30c:	33134a0f 	tstcc	r3, #61440	; 0xf000
 310:	03698429 	cmneq	r9, #687865856	; 0x29000000
 314:	4f13660f 	svcmi	0x0013660f
 318:	03698429 	cmneq	r9, #687865856	; 0x29000000
 31c:	4f13660f 	svcmi	0x0013660f
 320:	03698429 	cmneq	r9, #687865856	; 0x29000000
 324:	0313660f 	tsteq	r3, #15728640	; 0xf00000
 328:	77032e09 	strvc	r2, [r3, -r9, lsl #28]
 32c:	6767832e 	strbvs	r8, [r7, -lr, lsr #6]!
 330:	69676767 	stmdbvs	r7!, {r0, r1, r2, r5, r6, r8, r9, sl, sp, lr}^
 334:	134a0f03 	movtne	r0, #44803	; 0xaf03
 338:	032e0903 	teqeq	lr, #49152	; 0xc000
 33c:	67832e77 			; <UNDEFINED> instruction: 0x67832e77
 340:	67676767 	strbvs	r6, [r7, -r7, ror #14]!
 344:	4a0f0369 	bmi	3c10f0 <__standby_start+0x3c10f0>
 348:	842c3013 	strthi	r3, [ip], #-19	; 0xffffffed
 34c:	134a0f03 	movtne	r0, #44803	; 0xaf03
 350:	03842c30 	orreq	r2, r4, #48, 24	; 0x3000
 354:	4f134a0f 	svcmi	0x00134a0f
 358:	67678329 	strbvs	r8, [r7, -r9, lsr #6]!
 35c:	4a0f0368 	bmi	3c1104 <__standby_start+0x3c1104>
 360:	83294f13 	teqhi	r9, #19, 30	; 0x4c
 364:	03686767 	cmneq	r8, #27000832	; 0x19c0000
 368:	4f134a0f 	svcmi	0x00134a0f
 36c:	2c309fd7 	ldccs	15, cr9, [r0], #-860	; 0xfffffca4
 370:	2e790384 	cdpcs	3, 7, cr0, cr9, cr4, {4}
 374:	4a0f0336 	bmi	3c1054 <__standby_start+0x3c1054>
 378:	83d74f13 	bicshi	r4, r7, #19, 30	; 0x4c
 37c:	4a790384 	bmi	1e41194 <__standby_start+0x1e41194>
 380:	4a0f0336 	bmi	3c1060 <__standby_start+0x3c1060>
 384:	2b312f2f 	blcs	c4c048 <__standby_start+0xc4c048>
 388:	2b312b31 	blcs	c4b054 <__standby_start+0xc4b054>
 38c:	66110331 			; <UNDEFINED> instruction: 0x66110331
 390:	842c4c13 	strthi	r4, [ip], #-3091	; 0xfffff3ed
 394:	134a0f03 	movtne	r0, #44803	; 0xaf03
 398:	02842c30 	addeq	r2, r4, #48, 24	; 0x3000
 39c:	01010004 	tsteq	r1, r4
 3a0:	0000016b 	andeq	r0, r0, fp, ror #2
 3a4:	00380002 	eorseq	r0, r8, r2
 3a8:	01020000 	tsteq	r2, r0
 3ac:	000d0efb 	strdeq	r0, [sp], -fp
 3b0:	01010101 	tsteq	r1, r1, lsl #2
 3b4:	01000000 	tsteq	r0, r0
 3b8:	64010000 	strvs	r0, [r1], #-0
 3bc:	006d6172 	rsbeq	r6, sp, r2, ror r1
 3c0:	6d617264 	sfmvs	f7, 2, [r1, #-400]!	; 0xfffffe70
 3c4:	2e2f2e2f 	cdpcs	14, 2, cr2, cr15, cr15, {1}
 3c8:	6400002e 	strvs	r0, [r0], #-46	; 0xffffffd2
 3cc:	2e6d6172 	mcrcs	1, 3, r6, cr13, cr2, {3}
 3d0:	00010063 	andeq	r0, r1, r3, rrx
 3d4:	6d6f6300 	stclvs	3, cr6, [pc, #-0]	; 3dc <__standby_start+0x3dc>
 3d8:	2e6e6f6d 	cdpcs	15, 6, cr6, cr14, cr13, {3}
 3dc:	00020068 	andeq	r0, r2, r8, rrx
 3e0:	05000000 	streq	r0, [r0, #-0]
 3e4:	0008f402 	andeq	pc, r8, r2, lsl #8
 3e8:	011d03f0 			; <UNDEFINED> instruction: 0x011d03f0
 3ec:	2f2f4b16 	svccs	0x002f4b16
 3f0:	01040200 	tsteq	r4, r0, lsl #4
 3f4:	112f6731 	teqne	pc, r1, lsr r7	; <UNPREDICTABLE>
 3f8:	164a1f03 	strbne	r1, [sl], -r3, lsl #30
 3fc:	002f2f4b 	eoreq	r2, pc, fp, asr #30
 400:	31010402 	tstcc	r1, r2, lsl #8
 404:	03112f67 	tsteq	r1, #412	; 0x19c
 408:	4b164a2d 	blmi	592cc4 <__standby_start+0x592cc4>
 40c:	02002f2f 	andeq	r2, r0, #47, 30	; 0xbc
 410:	67310104 	ldrvs	r0, [r1, -r4, lsl #2]!
 414:	144e112f 	strbne	r1, [lr], #-303	; 0xfffffed1
 418:	2e130311 	mrccs	3, 0, r0, cr3, cr1, {0}
 41c:	2d2f4c15 	stccs	12, cr4, [pc, #-84]!	; 3d0 <__standby_start+0x3d0>
 420:	032f3030 	teqeq	pc, #48	; 0x30
 424:	33667faa 	cmncc	r6, #680	; 0x2a8
 428:	2f2f4b31 	svccs	0x002f4b31
 42c:	01040200 	tsteq	r4, r0, lsl #4
 430:	2f4d832f 	svccs	0x004d832f
 434:	0200312f 	andeq	r3, r0, #-1073741813	; 0xc000000b
 438:	00300204 	eorseq	r0, r0, r4, lsl #4
 43c:	48020402 	stmdami	r2, {r1, sl}
 440:	02040200 	andeq	r0, r4, #0, 4
 444:	04020030 	streq	r0, [r2], #-48	; 0xffffffd0
 448:	034e2c02 	movteq	r2, #60418	; 0xec02
 44c:	334a7fbd 	movtcc	r7, #44989	; 0xafbd
 450:	02040200 	andeq	r0, r4, #0, 4
 454:	04020030 	streq	r0, [r2], #-48	; 0xffffffd0
 458:	02004802 	andeq	r4, r0, #131072	; 0x20000
 45c:	00300204 	eorseq	r0, r0, r4, lsl #4
 460:	2c020402 	cfstrscs	mvf0, [r2], {2}
 464:	312f4b50 	teqcc	pc, r0, asr fp	; <UNPREDICTABLE>
 468:	2f2f2f31 	svccs	0x002f2f31
 46c:	01040200 	tsteq	r4, r0, lsl #4
 470:	2d2f672f 	stccs	7, cr6, [pc, #-188]!	; 3bc <__standby_start+0x3bc>
 474:	4a00fa03 	bmi	3ec88 <__standby_start+0x3ec88>
 478:	4b293515 	blmi	a4d8d4 <__standby_start+0xa4d8d4>
 47c:	4a110350 	bmi	4411c4 <__standby_start+0x4411c4>
 480:	30312b15 	eorscc	r2, r1, r5, lsl fp
 484:	2c303030 	ldccs	0, cr3, [r0], #-192	; 0xffffff40
 488:	2f2f2f2a 	svccs	0x002f2f2a
 48c:	2f2f2f2f 	svccs	0x002f2f2f
 490:	35661503 	strbcc	r1, [r6, #-1283]!	; 0xfffffafd
 494:	2f2f4b2b 	svccs	0x002f4b2b
 498:	2f2f2f30 	svccs	0x002f2f30
 49c:	78031a4d 	stmdavc	r3, {r0, r2, r3, r6, r9, fp, ip}
 4a0:	2f4b522e 	svccs	0x004b522e
 4a4:	2f312c2f 	svccs	0x00312c2f
 4a8:	2f2f2f2f 	svccs	0x002f2f2f
 4ac:	302f2d2f 	eorcc	r2, pc, pc, lsr #26
 4b0:	032e0a03 	teqeq	lr, #12288	; 0x3000
 4b4:	312f2e79 	teqcc	pc, r9, ror lr	; <UNPREDICTABLE>
 4b8:	312f4c4d 	teqcc	pc, sp, asr #24
 4bc:	2f312b31 	svccs	0x00312b31
 4c0:	01040200 	tsteq	r4, r0, lsl #4
 4c4:	31318467 	teqcc	r1, r7, ror #8
 4c8:	312b342b 	teqcc	fp, fp, lsr #8
 4cc:	312f2f31 	teqcc	pc, r1, lsr pc	; <UNPREDICTABLE>
 4d0:	312f2f2f 	teqcc	pc, pc, lsr #30
 4d4:	2f312f2f 	svccs	0x00312f2f
 4d8:	0402002f 	streq	r0, [r2], #-47	; 0xffffffd1
 4dc:	2f853001 	svccs	0x00853001
 4e0:	a14d304d 	mrsge	r3, SPSR
 4e4:	4e313132 	mrcmi	1, 1, r3, cr1, cr2, {1}
 4e8:	3032312d 	eorscc	r3, r2, sp, lsr #2
 4ec:	314c4b31 	cmpcc	ip, r1, lsr fp
 4f0:	4c2f3131 	stfmis	f3, [pc], #-196	; 434 <__standby_start+0x434>
 4f4:	11144e32 	tstne	r4, r2, lsr lr
 4f8:	33111433 	tstcc	r1, #855638016	; 0x33000000
 4fc:	14331114 	ldrtne	r1, [r3], #-276	; 0xfffffeec
 500:	11143311 	tstne	r4, r1, lsl r3
 504:	33111433 	tstcc	r1, #855638016	; 0x33000000
 508:	02021114 	andeq	r1, r2, #20, 2
 50c:	8f010100 	svchi	0x00010100
 510:	02000002 	andeq	r0, r0, #2
 514:	00008f00 	andeq	r8, r0, r0, lsl #30
 518:	fb010200 	blx	40d22 <__standby_start+0x40d22>
 51c:	01000d0e 	tsteq	r0, lr, lsl #26
 520:	00010101 	andeq	r0, r1, r1, lsl #2
 524:	00010000 	andeq	r0, r1, r0
 528:	72640100 	rsbvc	r0, r4, #0, 2
 52c:	64006d61 	strvs	r6, [r0], #-3425	; 0xfffff29f
 530:	2f6d6172 	svccs	0x006d6172
 534:	2e2e2f2e 	cdpcs	15, 2, cr2, cr14, cr14, {1}
 538:	6f682f00 	svcvs	0x00682f00
 53c:	732f656d 	teqvc	pc, #457179136	; 0x1b400000
 540:	61353636 	teqvs	r5, r6, lsr r6
 544:	6b2f3031 	blvs	bcc610 <__standby_start+0xbcc610>
 548:	2f30316b 	svccs	0x0030316b
 54c:	6863696c 	stmdavs	r3!, {r2, r3, r5, r6, r8, fp, sp, lr}^
 550:	6c2f6565 	cfstr32vs	mvfx6, [pc], #-404	; 3c4 <__standby_start+0x3c4>
 554:	78756e69 	ldmdavc	r5!, {r0, r3, r5, r6, r9, sl, fp, sp, lr}^
 558:	362e322d 	strtcc	r3, [lr], -sp, lsr #4
 55c:	2f36332e 	svccs	0x0036332e
 560:	68637261 	stmdavs	r3!, {r0, r5, r6, r9, ip, sp, lr}^
 564:	6d72612f 	ldfvse	f6, [r2, #-188]!	; 0xffffff44
 568:	63616d2f 	cmnvs	r1, #3008	; 0xbc0
 56c:	75732d68 	ldrbvc	r2, [r3, #-3432]!	; 0xfffff298
 570:	2f69346e 	svccs	0x0069346e
 574:	6c636e69 	stclvs	14, cr6, [r3], #-420	; 0xfffffe5c
 578:	2f656475 	svccs	0x00656475
 57c:	6863616d 	stmdavs	r3!, {r0, r2, r3, r5, r6, r8, sp, lr}^
 580:	72640000 	rsbvc	r0, r4, #0
 584:	695f6d61 	ldmdbvs	pc, {r0, r5, r6, r8, sl, fp, sp, lr}^	; <UNPREDICTABLE>
 588:	2e74696e 	cdpcs	9, 7, cr6, cr4, cr14, {3}
 58c:	00010063 	andeq	r0, r1, r3, rrx
 590:	6d6f6300 	stclvs	3, cr6, [pc, #-0]	; 598 <__standby_start+0x598>
 594:	2e6e6f6d 	cdpcs	15, 6, cr6, cr14, cr13, {3}
 598:	00020068 	andeq	r0, r2, r8, rrx
 59c:	61726400 	cmnvs	r2, r0, lsl #8
 5a0:	00682e6d 	rsbeq	r2, r8, sp, ror #28
 5a4:	00000003 	andeq	r0, r0, r3
 5a8:	a0020500 	andge	r0, r2, r0, lsl #10
 5ac:	03f0000c 	mvnseq	r0, #12
 5b0:	46160129 	ldrmi	r0, [r6], -r9, lsr #2
 5b4:	4c4d2f32 	mcrrmi	15, 3, r2, sp, cr2
 5b8:	2f2f2c31 	svccs	0x002f2c31
 5bc:	314f2f2f 	mrscc	r2, SPSR
 5c0:	2f2f2f2c 	svccs	0x002f2f2c
 5c4:	15872f2f 	strne	r2, [r7, #3887]	; 0xf2f
 5c8:	2f2f4b4c 	svccs	0x002f4b4c
 5cc:	2f4b154d 	svccs	0x004b154d
 5d0:	4b154d2f 	blmi	553a94 <__standby_start+0x553a94>
 5d4:	324d2f2f 	subcc	r2, sp, #47, 30	; 0xbc
 5d8:	2f309f2d 	svccs	0x00309f2d
 5dc:	2f304b2d 	svccs	0x00304b2d
 5e0:	4e2d682d 	cdpmi	8, 2, cr6, cr13, cr13, {1}
 5e4:	02002b15 	andeq	r2, r0, #21504	; 0x5400
 5e8:	00330204 	eorseq	r0, r3, r4, lsl #4
 5ec:	48020402 	stmdami	r2, {r1, sl}
 5f0:	02040200 	andeq	r0, r4, #0, 4
 5f4:	04020030 	streq	r0, [r2], #-48	; 0xffffffd0
 5f8:	02002c02 	andeq	r2, r0, #512	; 0x200
 5fc:	00300204 	eorseq	r0, r0, r4, lsl #4
 600:	80020402 	andhi	r0, r2, r2, lsl #8
 604:	02004c33 	andeq	r4, r0, #13056	; 0x3300
 608:	00300204 	eorseq	r0, r0, r4, lsl #4
 60c:	48020402 	stmdami	r2, {r1, sl}
 610:	02040200 	andeq	r0, r4, #0, 4
 614:	04020030 	streq	r0, [r2], #-48	; 0xffffffd0
 618:	02002c02 	andeq	r2, r0, #512	; 0x200
 61c:	00300204 	eorseq	r0, r0, r4, lsl #4
 620:	64020402 	strvs	r0, [r2], #-1026	; 0xfffffbfe
 624:	02004c33 	andeq	r4, r0, #13056	; 0x3300
 628:	00300204 	eorseq	r0, r0, r4, lsl #4
 62c:	48020402 	stmdami	r2, {r1, sl}
 630:	02040200 	andeq	r0, r4, #0, 4
 634:	04020030 	streq	r0, [r2], #-48	; 0xffffffd0
 638:	02002c02 	andeq	r2, r0, #512	; 0x200
 63c:	00300204 	eorseq	r0, r0, r4, lsl #4
 640:	80020402 	andhi	r0, r2, r2, lsl #8
 644:	4e2d2f32 	mcrmi	15, 1, r2, cr13, cr2, {1}
 648:	2f2f4b15 	svccs	0x002f4b15
 64c:	2f2f2f30 	svccs	0x002f2f30
 650:	2f2f2f30 	svccs	0x002f2f30
 654:	2f2f2f30 	svccs	0x002f2f30
 658:	2f2f2f30 	svccs	0x002f2f30
 65c:	4a0e032f 	bmi	381320 <__standby_start+0x381320>
 660:	04020015 	streq	r0, [r2], #-21	; 0xffffffeb
 664:	02004c02 	andeq	r4, r0, #512	; 0x200
 668:	00480204 	subeq	r0, r8, r4, lsl #4
 66c:	30020402 	andcc	r0, r2, r2, lsl #8
 670:	02040200 	andeq	r0, r4, #0, 4
 674:	04020048 	streq	r0, [r2], #-72	; 0xffffffb8
 678:	02003002 	andeq	r3, r0, #2
 67c:	322c0204 	eorcc	r0, ip, #4, 4	; 0x40000000
 680:	03341769 	teqeq	r4, #27525120	; 0x1a40000
 684:	0b032e75 	bleq	cc060 <__standby_start+0xcc060>
 688:	2e7a032e 	cdpcs	3, 7, cr0, cr10, cr14, {1}
 68c:	2f304634 	svccs	0x00304634
 690:	e3030204 	movw	r0, #12804	; 0x3204
 694:	2d2f4a7e 	vstmdbcs	pc!, {s8-s133}
 698:	4b688a2c 	blmi	1a22f50 <__standby_start+0x1a22f50>
 69c:	04484eda 	strbeq	r4, [r8], #-3802	; 0xfffff126
 6a0:	018f0301 	orreq	r0, pc, r1, lsl #6
 6a4:	032f3366 	teqeq	pc, #-1744830463	; 0x98000001
 6a8:	2f2f2e7a 	svccs	0x002f2e7a
 6ac:	2f2f2f2f 	svccs	0x002f2f2f
 6b0:	2e0b032f 	cdpcs	3, 0, cr0, cr11, cr15, {1}
 6b4:	2f2e7603 	svccs	0x002e7603
 6b8:	2f2f2f31 	svccs	0x002f2f31
 6bc:	2f2f2f2f 	svccs	0x002f2f2f
 6c0:	032e0903 	teqeq	lr, #49152	; 0xc000
 6c4:	322f2e78 	eorcc	r2, pc, #120, 28	; 0x780
 6c8:	312f2f2f 	teqcc	pc, pc, lsr #30
 6cc:	2d302d30 	ldccs	13, cr2, [r0, #-192]!	; 0xffffff40
 6d0:	4a019403 	bmi	656e4 <__standby_start+0x656e4>
 6d4:	4a100314 	bmi	40132c <__standby_start+0x40132c>
 6d8:	002f4b16 	eoreq	r4, pc, r6, lsl fp	; <UNPREDICTABLE>
 6dc:	31010402 	tstcc	r1, r2, lsl #8
 6e0:	20035169 	andcs	r5, r3, r9, ror #2
 6e4:	2c301582 	cfldr32cs	mvfx1, [r0], #-520	; 0xfffffdf8
 6e8:	2f303031 	svccs	0x00303031
 6ec:	174a0d03 	strbne	r0, [sl, -r3, lsl #26]
 6f0:	13032a32 	movwne	r2, #14898	; 0x3a32
 6f4:	4a71032e 	bmi	1c413b4 <__standby_start+0x1c413b4>
 6f8:	2e09032c 	cdpcs	3, 0, cr0, cr9, cr12, {1}
 6fc:	4c302f29 	ldcmi	15, cr2, [r0], #-164	; 0xffffff5c
 700:	2e7a0332 	mrccs	3, 3, r0, cr10, cr2, {1}
 704:	2f4b2f30 	svccs	0x004b2f30
 708:	6618032f 	ldrvs	r0, [r8], -pc, lsr #6
 70c:	2f2f4b17 	svccs	0x002f4b17
 710:	2d2f302d 	stccs	0, cr3, [pc, #-180]!	; 664 <__standby_start+0x664>
 714:	302d2f30 	eorcc	r2, sp, r0, lsr pc
 718:	6a312d2f 	bvs	c4bbdc <__standby_start+0xc4bbdc>
 71c:	302f2d4c 	eorcc	r2, pc, ip, asr #26
 720:	312f2f2d 	teqcc	pc, sp, lsr #30
 724:	4a7dcb03 	bmi	1f73338 <__standby_start+0x1f73338>
 728:	352b3134 	strcc	r3, [fp, #-308]!	; 0xfffffecc
 72c:	4d312f4d 	ldcmi	15, cr2, [r1, #-308]!	; 0xfffffecc
 730:	31312f68 	teqcc	r1, r8, ror #30
 734:	312b4d2b 	teqcc	fp, fp, lsr #26
 738:	2d2f6830 	stccs	8, cr6, [pc, #-192]!	; 680 <__standby_start+0x680>
 73c:	302d2f30 	eorcc	r2, sp, r0, lsr pc
 740:	2f302d2f 	svccs	0x00302d2f
 744:	322f302d 	eorcc	r3, pc, #45	; 0x2d
 748:	2e790334 	mrccs	3, 3, r0, cr9, cr4, {1}
 74c:	2f2a312f 	svccs	0x002a312f
 750:	2f2f2f2d 	svccs	0x002f2f2d
 754:	002f312f 	eoreq	r3, pc, pc, lsr #2
 758:	67010402 	strvs	r0, [r1, -r2, lsl #8]
 75c:	2d303184 	ldfcss	f3, [r0, #-528]!	; 0xfffffdf0
 760:	67322f2f 	ldrvs	r2, [r2, -pc, lsr #30]!
 764:	4b4d312f 	blmi	134cc28 <__standby_start+0x134cc28>
 768:	674d4d4b 	strbvs	r4, [sp, -fp, asr #26]
 76c:	4c4b314c 	stfmie	f3, [fp], {76}	; 0x4c
 770:	4d4c4c4d 	stclmi	12, cr4, [ip, #-308]	; 0xfffffecc
 774:	312f2f2f 	teqcc	pc, pc, lsr #30
 778:	02002f2f 	andeq	r2, r0, #47, 30	; 0xbc
 77c:	69300104 	ldmdbvs	r0!, {r2, r8}
 780:	314f302f 	mrscc	r3, SPSR
 784:	0334292d 	teqeq	r4, #737280	; 0xb4000
 788:	156601b9 	strbne	r0, [r6, #-441]!	; 0xfffffe47
 78c:	144d144d 	strbne	r1, [sp], #-1101	; 0xfffffbb3
 790:	11143211 	tstne	r4, r1, lsl r2
 794:	32111432 	andscc	r1, r1, #838860800	; 0x32000000
 798:	14321114 	ldrtne	r1, [r2], #-276	; 0xfffffeec
 79c:	00020211 	andeq	r0, r2, r1, lsl r2
 7a0:	009f0101 	addseq	r0, pc, r1, lsl #2
 7a4:	00020000 	andeq	r0, r2, r0
 7a8:	00000041 	andeq	r0, r0, r1, asr #32
 7ac:	0efb0102 	cdpeq	1, 15, cr0, cr11, cr2, {0}
 7b0:	0101000d 	tsteq	r1, sp
 7b4:	00000101 	andeq	r0, r0, r1, lsl #2
 7b8:	00000100 	andeq	r0, r0, r0, lsl #2
 7bc:	74730001 	ldrbtvc	r0, [r3], #-1
 7c0:	62646e61 	rsbvs	r6, r4, #1552	; 0x610
 7c4:	6e695f79 	mcrvs	15, 3, r5, cr9, cr9, {3}
 7c8:	00632e74 	rsbeq	r2, r3, r4, ror lr
 7cc:	63000000 	movwvs	r0, #0
 7d0:	6f6d6d6f 	svcvs	0x006d6d6f
 7d4:	00682e6e 	rsbeq	r2, r8, lr, ror #28
 7d8:	73000000 	movwvc	r0, #0
 7dc:	646e6174 	strbtvs	r6, [lr], #-372	; 0xfffffe8c
 7e0:	695f7962 	ldmdbvs	pc, {r1, r5, r6, r8, fp, ip, sp, lr}^	; <UNPREDICTABLE>
 7e4:	682e746e 	stmdavs	lr!, {r1, r2, r3, r5, r6, sl, ip, sp, lr}
 7e8:	00000000 	andeq	r0, r0, r0
 7ec:	02050000 	andeq	r0, r5, #0
 7f0:	f0001330 			; <UNDEFINED> instruction: 0xf0001330
 7f4:	13012503 	movwne	r2, #5379	; 0x1503
 7f8:	032e0e03 	teqeq	lr, #3, 28	; 0x30
 7fc:	4b4d2e72 	blmi	134c1cc <__standby_start+0x134c1cc>
 800:	4b4b4b4b 	blmi	12d3534 <__standby_start+0x12d3534>
 804:	504b4b4b 	subpl	r4, fp, fp, asr #22
 808:	2f2f2f2b 	svccs	0x002f2f2b
 80c:	29342f2f 	ldmdbcs	r4!, {r0, r1, r2, r3, r5, r8, r9, sl, fp, sp}
 810:	31312f2f 	teqcc	r1, pc, lsr #30
 814:	14660f03 	strbtne	r0, [r6], #-3843	; 0xfffff0fd
 818:	032e0b03 	teqeq	lr, #3072	; 0xc00
 81c:	4b672e75 	blmi	19cc1f8 <__standby_start+0x19cc1f8>
 820:	4b4b4b4b 	blmi	12d3554 <__standby_start+0x12d3554>
 824:	2f2d2f4b 	svccs	0x002d2f4b
 828:	4a0f0331 	bmi	3c14f4 <__standby_start+0x3c14f4>
 82c:	2b322a17 	blcs	c8b090 <__standby_start+0xc8b090>
 830:	2d4b332c 	stclcs	3, cr3, [fp, #-176]	; 0xffffff50
 834:	0f036983 	svceq	0x00036983
 838:	312b1766 	teqcc	fp, r6, ror #14
 83c:	4b4c302c 	blmi	130c8f4 <__standby_start+0x130c8f4>
 840:	01000802 	tsteq	r0, r2, lsl #16
 844:	00005101 	andeq	r5, r0, r1, lsl #2
 848:	2f000200 	svccs	0x00000200
 84c:	02000000 	andeq	r0, r0, #0
 850:	0d0efb01 	vstreq	d15, [lr, #-4]
 854:	01010100 	tsteq	r1, r0, lsl #2
 858:	00000001 	andeq	r0, r0, r1
 85c:	01000001 	tsteq	r0, r1
 860:	61747300 	cmnvs	r4, r0, lsl #6
 864:	7962646e 	stmdbvc	r2!, {r1, r2, r3, r5, r6, sl, sp, lr}^
 868:	2e72695f 	mrccs	9, 3, r6, cr2, cr15, {2}
 86c:	00000063 	andeq	r0, r0, r3, rrx
 870:	6d6f6300 	stclvs	3, cr6, [pc, #-0]	; 878 <__standby_start+0x878>
 874:	2e6e6f6d 	cdpcs	15, 6, cr6, cr14, cr13, {3}
 878:	00000068 	andeq	r0, r0, r8, rrx
 87c:	05000000 	streq	r0, [r0, #-0]
 880:	00149802 	andseq	r9, r4, r2, lsl #16
 884:	012303f0 	strdeq	r0, [r3, -r0]!	; <UNPREDICTABLE>
 888:	4a110314 	bmi	4414e0 <__standby_start+0x4414e0>
 88c:	4a110314 	bmi	4414e4 <__standby_start+0x4414e4>
 890:	4a100314 	bmi	4014e8 <__standby_start+0x4014e8>
 894:	00040214 	andeq	r0, r4, r4, lsl r2
 898:	00770101 	rsbseq	r0, r7, r1, lsl #2
 89c:	00020000 	andeq	r0, r2, r0
 8a0:	00000041 	andeq	r0, r0, r1, asr #32
 8a4:	0efb0102 	cdpeq	1, 15, cr0, cr11, cr2, {0}
 8a8:	0101000d 	tsteq	r1, sp
 8ac:	00000101 	andeq	r0, r0, r1, lsl #2
 8b0:	00000100 	andeq	r0, r0, r0, lsl #2
 8b4:	74730001 	ldrbtvc	r0, [r3], #-1
 8b8:	62646e61 	rsbvs	r6, r4, #1552	; 0x610
 8bc:	656b5f79 	strbvs	r5, [fp, #-3961]!	; 0xfffff087
 8c0:	00632e79 	rsbeq	r2, r3, r9, ror lr
 8c4:	63000000 	movwvs	r0, #0
 8c8:	6f6d6d6f 	svcvs	0x006d6d6f
 8cc:	00682e6e 	rsbeq	r2, r8, lr, ror #28
 8d0:	73000000 	movwvc	r0, #0
 8d4:	646e6174 	strbtvs	r6, [lr], #-372	; 0xfffffe8c
 8d8:	6b5f7962 	blvs	17dee68 <__standby_start+0x17dee68>
 8dc:	682e7965 	stmdavs	lr!, {r0, r2, r5, r6, r8, fp, ip, sp, lr}
 8e0:	00000000 	andeq	r0, r0, r0
 8e4:	02050000 	andeq	r0, r5, #0
 8e8:	f00014b8 			; <UNDEFINED> instruction: 0xf00014b8
 8ec:	36012703 	strcc	r2, [r1], -r3, lsl #14
 8f0:	332e7a03 	teqcc	lr, #12288	; 0x3000
 8f4:	4b4b4d29 	blmi	12d3da0 <__standby_start+0x12d3da0>
 8f8:	294f2f2f 	stmdbcs	pc, {r0, r1, r2, r3, r5, r8, r9, sl, fp, sp}^	; <UNPREDICTABLE>
 8fc:	03314b2f 	teqeq	r1, #48128	; 0xbc00
 900:	3113660f 	tstcc	r3, pc, lsl #12
 904:	0330672b 	teqeq	r0, #11272192	; 0xac0000
 908:	84134a0f 	ldrhi	r4, [r3], #-2575	; 0xfffff5f1
 90c:	2f312d2f 	svccs	0x00312d2f
 910:	01000402 	tsteq	r0, r2, lsl #8
 914:	00011d01 	andeq	r1, r1, r1, lsl #26
 918:	65000200 	strvs	r0, [r0, #-512]	; 0xfffffe00
 91c:	02000000 	andeq	r0, r0, #0
 920:	0d0efb01 	vstreq	d15, [lr, #-4]
 924:	01010100 	tsteq	r1, r0, lsl #2
 928:	00000001 	andeq	r0, r0, r1
 92c:	01000001 	tsteq	r0, r1
 930:	61747300 	cmnvs	r4, r0, lsl #6
 934:	7962646e 	stmdbvc	r2!, {r1, r2, r3, r5, r6, sl, sp, lr}^
 938:	682e695f 	stmdavs	lr!, {r0, r1, r2, r3, r4, r6, r8, fp, sp, lr}
 93c:	00000000 	andeq	r0, r0, r0
 940:	6e617473 	mcrvs	4, 3, r7, cr1, cr3, {3}
 944:	5f796264 	svcpl	0x00796264
 948:	65776f70 	ldrbvs	r6, [r7, #-3952]!	; 0xfffff090
 94c:	00632e72 	rsbeq	r2, r3, r2, ror lr
 950:	63000000 	movwvs	r0, #0
 954:	6f6d6d6f 	svcvs	0x006d6d6f
 958:	00682e6e 	rsbeq	r2, r8, lr, ror #28
 95c:	73000000 	movwvc	r0, #0
 960:	646e6174 	strbtvs	r6, [lr], #-372	; 0xfffffe8c
 964:	705f7962 	subsvc	r7, pc, r2, ror #18
 968:	7265776f 	rsbvc	r7, r5, #29097984	; 0x1bc0000
 96c:	0000682e 	andeq	r6, r0, lr, lsr #16
 970:	74730000 	ldrbtvc	r0, [r3], #-0
 974:	62646e61 	rsbvs	r6, r4, #1552	; 0x610
 978:	77745f79 			; <UNDEFINED> instruction: 0x77745f79
 97c:	00682e69 	rsbeq	r2, r8, r9, ror #28
 980:	00000000 	andeq	r0, r0, r0
 984:	58020500 	stmdapl	r2, {r8, sl}
 988:	03f00015 	mvnseq	r0, #21
 98c:	29170126 	ldmdbcs	r7, {r1, r2, r5, r8}
 990:	002f6e33 	eoreq	r6, pc, r3, lsr lr	; <UNPREDICTABLE>
 994:	2b010402 	blcs	419a4 <__standby_start+0x419a4>
 998:	36064a06 	strcc	r4, [r6], -r6, lsl #20
 99c:	48362f4c 	ldmdami	r6!, {r2, r3, r6, r8, r9, sl, fp, sp}
 9a0:	034a6c03 	movteq	r6, #44035	; 0xac03
 9a4:	02042e19 	andeq	r2, r4, #400	; 0x190
 9a8:	162e3303 	strtne	r3, [lr], -r3, lsl #6
 9ac:	674b322a 	strbvs	r3, [fp, -sl, lsr #4]
 9b0:	04020080 	streq	r0, [r2], #-128	; 0xffffff80
 9b4:	062e0601 	strteq	r0, [lr], -r1, lsl #12
 9b8:	a1032f4f 	tstge	r3, pc, asr #30
 9bc:	4e324a7f 	mrcmi	10, 1, r4, cr2, cr15, {3}
 9c0:	2f492f9f 	svccs	0x00492f9f
 9c4:	9f4f2f2d 	svcls	0x004f2f2d
 9c8:	2d2f492f 	stccs	9, cr4, [pc, #-188]!	; 914 <__standby_start+0x914>
 9cc:	2d2f4c2f 	stccs	12, cr4, [pc, #-188]!	; 918 <__standby_start+0x918>
 9d0:	0f03862f 	svceq	0x0003862f
 9d4:	2f9f334a 	svccs	0x009f334a
 9d8:	2f2d2f49 	svccs	0x002d2f49
 9dc:	492f9f4f 	stmdbmi	pc!, {r0, r1, r2, r3, r6, r8, r9, sl, fp, ip, pc}	; <UNPREDICTABLE>
 9e0:	4d2f2d2f 	stcmi	13, cr2, [pc, #-188]!	; 92c <__standby_start+0x92c>
 9e4:	4a370330 	bmi	dc16ac <__standby_start+0xdc16ac>
 9e8:	032f4e2e 	teqeq	pc, #736	; 0x2e0
 9ec:	c0034a49 	andgt	r4, r3, r9, asr #20
 9f0:	4bbcd600 	blmi	fef361f8 <__bss_end+0xef341b0>
 9f4:	2fbb322d 	svccs	0x00bb322d
 9f8:	694b312d 	stmdbvs	fp, {r0, r2, r3, r5, r8, ip, sp}^
 9fc:	660a032d 	strvs	r0, [sl], -sp, lsr #6
 a00:	302c3149 	eorcc	r3, ip, r9, asr #2
 a04:	2c312d2c 	ldccs	13, cr2, [r1], #-176	; 0xffffff50
 a08:	2d2a4c30 	stccs	12, cr4, [sl, #-192]!	; 0xffffff40
 a0c:	2d2f6733 	stccs	7, cr6, [pc, #-204]!	; 948 <__standby_start+0x948>
 a10:	032f2d2f 	teqeq	pc, #3008	; 0xbc0
 a14:	22038262 	andcs	r8, r3, #536870918	; 0x20000006
 a18:	66120366 	ldrvs	r0, [r2], -r6, ror #6
 a1c:	2f2f332e 	svccs	0x002f332e
 a20:	4ca0322d 	sfmmi	f3, 4, [r0], #180	; 0xb4
 a24:	2f29332c 	svccs	0x0029332c
 a28:	2c4e2c30 	mcrrcs	12, 3, r2, lr, cr0
 a2c:	302c322c 	eorcc	r3, ip, ip, lsr #4
 a30:	0004022f 	andeq	r0, r4, pc, lsr #4
 a34:	00c60101 	sbceq	r0, r6, r1, lsl #2
 a38:	00020000 	andeq	r0, r2, r0
 a3c:	00000041 	andeq	r0, r0, r1, asr #32
 a40:	0efb0102 	cdpeq	1, 15, cr0, cr11, cr2, {0}
 a44:	0101000d 	tsteq	r1, sp
 a48:	00000101 	andeq	r0, r0, r1, lsl #2
 a4c:	00000100 	andeq	r0, r0, r0, lsl #2
 a50:	74730001 	ldrbtvc	r0, [r3], #-1
 a54:	62646e61 	rsbvs	r6, r4, #1552	; 0x610
 a58:	6d745f79 	ldclvs	15, cr5, [r4, #-484]!	; 0xfffffe1c
 a5c:	00632e72 	rsbeq	r2, r3, r2, ror lr
 a60:	63000000 	movwvs	r0, #0
 a64:	6f6d6d6f 	svcvs	0x006d6d6f
 a68:	00682e6e 	rsbeq	r2, r8, lr, ror #28
 a6c:	73000000 	movwvc	r0, #0
 a70:	646e6174 	strbtvs	r6, [lr], #-372	; 0xfffffe8c
 a74:	745f7962 	ldrbvc	r7, [pc], #-2402	; a7c <__standby_start+0xa7c>
 a78:	682e726d 	stmdavs	lr!, {r0, r2, r3, r5, r6, r9, ip, sp, lr}
 a7c:	00000000 	andeq	r0, r0, r0
 a80:	02050000 	andeq	r0, r5, #0
 a84:	f0001898 			; <UNDEFINED> instruction: 0xf0001898
 a88:	03012503 	movweq	r2, #5379	; 0x1503
 a8c:	6f032e15 	svcvs	0x00032e15
 a90:	2e0c032e 	cdpcs	3, 0, cr0, cr12, cr14, {1}
 a94:	4d2e7403 	cfstrsmi	mvf7, [lr, #-12]!
 a98:	4b4b4b4b 	blmi	12d37cc <__standby_start+0x12d37cc>
 a9c:	2d4e4b4b 	vstrcs	d20, [lr, #-300]	; 0xfffffed4
 aa0:	2f2f312f 	svccs	0x002f312f
 aa4:	312f2d4b 	teqcc	pc, fp, asr #26
 aa8:	16820f03 	strne	r0, [r2], r3, lsl #30
 aac:	032e0903 	teqeq	lr, #49152	; 0xc000
 ab0:	4b672e77 	blmi	19cc494 <__standby_start+0x19cc494>
 ab4:	2f4b4b4b 	svccs	0x004b4b4b
 ab8:	03312f2d 	teqeq	r1, #45, 30	; 0xb4
 abc:	4f144a12 	svcmi	0x00144a12
 ac0:	2e7a032f 	cdpcs	3, 7, cr0, cr10, cr15, {1}
 ac4:	344b314b 	strbcc	r3, [fp], #-331	; 0xfffffeb5
 ac8:	69672f29 	stmdbvs	r7!, {r0, r3, r5, r8, r9, sl, fp, sp}^
 acc:	144a1203 	strbne	r1, [sl], #-515	; 0xfffffdfd
 ad0:	12036784 	andne	r6, r3, #132, 14	; 0x2100000
 ad4:	67a0144a 	strvs	r1, [r0, sl, asr #8]!
 ad8:	154a1203 	strbne	r1, [sl, #-515]	; 0xfffffdfd
 adc:	032e0e03 	teqeq	lr, #3, 28	; 0x30
 ae0:	84322e72 	ldrthi	r2, [r2], #-3698	; 0xfffff18e
 ae4:	0c032b31 	stceq	11, cr2, [r3], {49}	; 0x31
 ae8:	4a12032e 	bmi	4817a8 <__standby_start+0x4817a8>
 aec:	2c694d32 	stclcs	13, cr4, [r9], #-200	; 0xffffff38
 af0:	002f6767 	eoreq	r6, pc, r7, ror #14
 af4:	06010402 	streq	r0, [r1], -r2, lsl #8
 af8:	0269062e 	rsbeq	r0, r9, #48234496	; 0x2e00000
 afc:	01010004 	tsteq	r1, r4
 b00:	000000f9 	strdeq	r0, [r0], -r9
 b04:	00410002 	subeq	r0, r1, r2
 b08:	01020000 	tsteq	r2, r0
 b0c:	000d0efb 	strdeq	r0, [sp], -fp
 b10:	01010101 	tsteq	r1, r1, lsl #2
 b14:	01000000 	tsteq	r0, r0
 b18:	00010000 	andeq	r0, r1, r0
 b1c:	6e617473 	mcrvs	4, 3, r7, cr1, cr3, {3}
 b20:	5f796264 	svcpl	0x00796264
 b24:	2e697774 	mcrcs	7, 3, r7, cr9, cr4, {3}
 b28:	00000063 	andeq	r0, r0, r3, rrx
 b2c:	6d6f6300 	stclvs	3, cr6, [pc, #-0]	; b34 <__standby_start+0xb34>
 b30:	2e6e6f6d 	cdpcs	15, 6, cr6, cr14, cr13, {3}
 b34:	00000068 	andeq	r0, r0, r8, rrx
 b38:	61747300 	cmnvs	r4, r0, lsl #6
 b3c:	7962646e 	stmdbvc	r2!, {r1, r2, r3, r5, r6, sl, sp, lr}^
 b40:	6977745f 	ldmdbvs	r7!, {r0, r1, r2, r3, r4, r6, sl, ip, sp, lr}^
 b44:	0000682e 	andeq	r6, r0, lr, lsr #16
 b48:	00000000 	andeq	r0, r0, r0
 b4c:	1a880205 	bne	fe201368 <__bss_end+0xe1ff320>
 b50:	2e03f000 	cdpcs	0, 0, cr15, cr3, cr0, {0}
 b54:	036d1301 	cmneq	sp, #67108864	; 0x4000000
 b58:	4b2f2e79 	blmi	bcc544 <__standby_start+0xbcc544>
 b5c:	03694b67 	cmneq	r9, #105472	; 0x19c00
 b60:	2c326610 	ldccs	6, cr6, [r2], #-64	; 0xffffffc0
 b64:	2a4e31a0 	bcs	138d1ec <__standby_start+0x138d1ec>
 b68:	c2038430 	andgt	r8, r3, #48, 8	; 0x30000000
 b6c:	29174a00 	ldmdbcs	r7, {r9, fp, lr}
 b70:	032f6833 	teqeq	pc, #3342336	; 0x330000
 b74:	0067660b 	rsbeq	r6, r7, fp, lsl #12
 b78:	2f010402 	svccs	0x00010402
 b7c:	04020067 	streq	r0, [r2], #-103	; 0xffffff99
 b80:	2f4f6502 	svccs	0x004f6502
 b84:	00674b6c 	rsbeq	r4, r7, ip, ror #22
 b88:	2f010402 	svccs	0x00010402
 b8c:	04020067 	streq	r0, [r2], #-103	; 0xffffff99
 b90:	2f4f6502 	svccs	0x004f6502
 b94:	00672f6c 	rsbeq	r2, r7, ip, ror #30
 b98:	2f010402 	svccs	0x00010402
 b9c:	04020067 	streq	r0, [r2], #-103	; 0xffffff99
 ba0:	2f4f6502 	svccs	0x004f6502
 ba4:	674b4d6b 	strbvs	r4, [fp, -fp, ror #26]
 ba8:	01040200 	tsteq	r4, r0, lsl #4
 bac:	0200672f 	andeq	r6, r0, #12320768	; 0xbc0000
 bb0:	4f650204 	svcmi	0x00650204
 bb4:	00836e2f 	addeq	r6, r3, pc, lsr #28
 bb8:	2f010402 	svccs	0x00010402
 bbc:	04020067 	streq	r0, [r2], #-103	; 0xffffff99
 bc0:	2f4f6502 	svccs	0x004f6502
 bc4:	00674b6c 	rsbeq	r4, r7, ip, ror #22
 bc8:	2f010402 	svccs	0x00010402
 bcc:	04020067 	streq	r0, [r2], #-103	; 0xffffff99
 bd0:	2f4f6502 	svccs	0x004f6502
 bd4:	0200676c 	andeq	r6, r0, #108, 14	; 0x1b00000
 bd8:	672f0104 	strvs	r0, [pc, -r4, lsl #2]!
 bdc:	02040200 	andeq	r0, r4, #0, 4
 be0:	2f4b4f65 	svccs	0x004b4f65
 be4:	4a7f8b03 	bmi	1fe37f8 <__standby_start+0x1fe37f8>
 be8:	bc824f03 	stclt	15, cr4, [r2], {3}
 bec:	8167352a 	cmnhi	r7, sl, lsr #10
 bf0:	6d65676d 	stclvs	7, cr6, [r5, #-436]!	; 0xfffffe4c
 bf4:	9e01a103 	mvflss	f2, f3
 bf8:	01000402 	tsteq	r0, r2, lsl #8
 bfc:	00005201 	andeq	r5, r0, r1, lsl #4
 c00:	30000200 	andcc	r0, r0, r0, lsl #4
 c04:	02000000 	andeq	r0, r0, #0
 c08:	0d0efb01 	vstreq	d15, [lr, #-4]
 c0c:	01010100 	tsteq	r1, r0, lsl #2
 c10:	00000001 	andeq	r0, r0, r1
 c14:	01000001 	tsteq	r0, r1
 c18:	61747300 	cmnvs	r4, r0, lsl #6
 c1c:	7962646e 	stmdbvc	r2!, {r1, r2, r3, r5, r6, sl, sp, lr}^
 c20:	6273755f 	rsbsvs	r7, r3, #398458880	; 0x17c00000
 c24:	0000632e 	andeq	r6, r0, lr, lsr #6
 c28:	6f630000 	svcvs	0x00630000
 c2c:	6e6f6d6d 	cdpvs	13, 6, cr6, cr15, cr13, {3}
 c30:	0000682e 	andeq	r6, r0, lr, lsr #16
 c34:	00000000 	andeq	r0, r0, r0
 c38:	1dc00205 	sfmne	f0, 2, [r0, #20]
 c3c:	2603f000 	strcs	pc, [r3], -r0
 c40:	0f031401 	svceq	0x00031401
 c44:	1203144a 	andne	r1, r3, #1241513984	; 0x4a000000
 c48:	1103144a 	tstne	r3, sl, asr #8
 c4c:	0402144a 	streq	r1, [r2], #-1098	; 0xfffffbb6
 c50:	3b010100 	blcc	41058 <__standby_start+0x41058>
 c54:	02000000 	andeq	r0, r0, #0
 c58:	00002600 	andeq	r2, r0, r0, lsl #12
 c5c:	fb010200 	blx	41466 <__standby_start+0x41466>
 c60:	01000d0e 	tsteq	r0, lr, lsl #26
 c64:	00010101 	andeq	r0, r1, r1, lsl #2
 c68:	00010000 	andeq	r0, r1, r0
 c6c:	73000100 	movwvc	r0, #256	; 0x100
 c70:	646e6174 	strbtvs	r6, [lr], #-372	; 0xfffffe8c
 c74:	645f7962 	ldrbvs	r7, [pc], #-2402	; c7c <__standby_start+0xc7c>
 c78:	79616c65 	stmdbvc	r1!, {r0, r2, r5, r6, sl, fp, sp, lr}^
 c7c:	0000532e 	andeq	r5, r0, lr, lsr #6
 c80:	00000000 	andeq	r0, r0, r0
 c84:	1de00205 	sfmne	f0, 2, [r0, #20]!
 c88:	2f16f000 	svccs	0x0016f000
 c8c:	0002022f 	andeq	r0, r2, pc, lsr #4
 c90:	Address 0x00000c90 is out of bounds.


Disassembly of section .debug_loc:

00000000 <.debug_loc>:
       0:	00000000 	andeq	r0, r0, r0
       4:	00000004 	andeq	r0, r0, r4
       8:	007d0002 	rsbseq	r0, sp, r2
       c:	00000004 	andeq	r0, r0, r4
      10:	00000350 	andeq	r0, r0, r0, asr r3
      14:	187d0002 	ldmdane	sp!, {r1}^
	...
      24:	00000013 	andeq	r0, r0, r3, lsl r0
      28:	13500001 	cmpne	r0, #1
      2c:	50000000 	andpl	r0, r0, r0
      30:	01000003 	tsteq	r0, r3
      34:	00005400 	andeq	r5, r0, r0, lsl #8
      38:	00000000 	andeq	r0, r0, r0
      3c:	00180000 	andseq	r0, r8, r0
      40:	00240000 	eoreq	r0, r4, r0
      44:	00010000 	andeq	r0, r1, r0
      48:	00002457 	andeq	r2, r0, r7, asr r4
      4c:	0001e000 	andeq	lr, r1, r0
      50:	57000100 	strpl	r0, [r0, -r0, lsl #2]
	...
      60:	00000010 	andeq	r0, r0, r0, lsl r0
      64:	00500001 	subseq	r0, r0, r1
	...
      70:	10000000 	andne	r0, r0, r0
      74:	01000000 	tsteq	r0, r0
      78:	00005100 	andeq	r5, r0, r0, lsl #2
	...
      84:	00180000 	andseq	r0, r8, r0
      88:	00010000 	andeq	r0, r1, r0
      8c:	00001852 	andeq	r1, r0, r2, asr r8
      90:	00001c00 	andeq	r1, r0, r0, lsl #24
      94:	72000300 	andvc	r0, r0, #0, 6
      98:	001c9f01 	andseq	r9, ip, r1, lsl #30
      9c:	00280000 	eoreq	r0, r8, r0
      a0:	00010000 	andeq	r0, r1, r0
      a4:	00000052 	andeq	r0, r0, r2, asr r0
	...
      b0:	00001000 	andeq	r1, r0, r0
      b4:	51000100 	tstpl	r0, r0, lsl #2
	...
      c4:	0000001c 	andeq	r0, r0, ip, lsl r0
      c8:	1c500001 	mrrcne	0, 0, r0, r0, cr1	; <UNPREDICTABLE>
      cc:	28000000 	stmdacs	r0, {}	; <UNPREDICTABLE>
      d0:	01000000 	tsteq	r0, r0
      d4:	00005000 	andeq	r5, r0, r0
      d8:	00000000 	andeq	r0, r0, r0
      dc:	00280000 	eoreq	r0, r8, r0
      e0:	00340000 	eorseq	r0, r4, r0
      e4:	00010000 	andeq	r0, r1, r0
      e8:	00000050 	andeq	r0, r0, r0, asr r0
      ec:	00000000 	andeq	r0, r0, r0
      f0:	00031800 	andeq	r1, r3, r0, lsl #16
      f4:	00035800 	andeq	r5, r3, r0, lsl #16
      f8:	50000100 	andpl	r0, r0, r0, lsl #2
      fc:	0000036c 	andeq	r0, r0, ip, ror #6
     100:	00000370 	andeq	r0, r0, r0, ror r3
     104:	00500001 	subseq	r0, r0, r1
     108:	00000000 	andeq	r0, r0, r0
     10c:	78000000 	stmdavc	r0, {}	; <UNPREDICTABLE>
     110:	c0000003 	andgt	r0, r0, r3
     114:	01000003 	tsteq	r0, r3
     118:	03c45000 	biceq	r5, r4, #0
     11c:	03c80000 	biceq	r0, r8, #0
     120:	00010000 	andeq	r0, r1, r0
     124:	00000050 	andeq	r0, r0, r0, asr r0
     128:	00000000 	andeq	r0, r0, r0
     12c:	00000800 	andeq	r0, r0, r0, lsl #16
     130:	00000c00 	andeq	r0, r0, r0, lsl #24
     134:	52000100 	andpl	r0, r0, #0, 2
     138:	0000000c 	andeq	r0, r0, ip
     13c:	00000010 	andeq	r0, r0, r0, lsl r0
     140:	10520001 	subsne	r0, r2, r1
     144:	14000000 	strne	r0, [r0], #-0
     148:	01000000 	tsteq	r0, r0
     14c:	00145200 	andseq	r5, r4, r0, lsl #4
     150:	00270000 	eoreq	r0, r7, r0
     154:	00020000 	andeq	r0, r2, r0
     158:	00000473 	andeq	r0, r0, r3, ror r4
     15c:	00000000 	andeq	r0, r0, r0
     160:	00340000 	eorseq	r0, r4, r0
     164:	00380000 	eorseq	r0, r8, r0
     168:	00010000 	andeq	r0, r1, r0
     16c:	00003852 	andeq	r3, r0, r2, asr r8
     170:	00003c00 	andeq	r3, r0, r0, lsl #24
     174:	52000100 	andpl	r0, r0, #0, 2
     178:	0000003c 	andeq	r0, r0, ip, lsr r0
     17c:	00000040 	andeq	r0, r0, r0, asr #32
     180:	40520001 	subsmi	r0, r2, r1
     184:	53000000 	movwpl	r0, #0
     188:	02000000 	andeq	r0, r0, #0
     18c:	00047300 	andeq	r7, r4, r0, lsl #6
     190:	00000000 	andeq	r0, r0, r0
     194:	60000000 	andvs	r0, r0, r0
     198:	64000000 	strvs	r0, [r0], #-0
     19c:	01000000 	tsteq	r0, r0
     1a0:	00645200 	rsbeq	r5, r4, r0, lsl #4
     1a4:	00680000 	rsbeq	r0, r8, r0
     1a8:	00010000 	andeq	r0, r1, r0
     1ac:	00006852 	andeq	r6, r0, r2, asr r8
     1b0:	00006c00 	andeq	r6, r0, r0, lsl #24
     1b4:	52000100 	andpl	r0, r0, #0, 2
     1b8:	0000006c 	andeq	r0, r0, ip, rrx
     1bc:	0000007f 	andeq	r0, r0, pc, ror r0
     1c0:	04730002 	ldrbteq	r0, [r3], #-2
	...
     1cc:	0000009c 	muleq	r0, ip, r0
     1d0:	000000a0 	andeq	r0, r0, r0, lsr #1
     1d4:	a0520001 	subsge	r0, r2, r1
     1d8:	a4000000 	strge	r0, [r0], #-0
     1dc:	01000000 	tsteq	r0, r0
     1e0:	00a45200 	adceq	r5, r4, r0, lsl #4
     1e4:	00b00000 	adcseq	r0, r0, r0
     1e8:	00010000 	andeq	r0, r1, r0
     1ec:	00000052 	andeq	r0, r0, r2, asr r0
     1f0:	00000000 	andeq	r0, r0, r0
     1f4:	0000b000 	andeq	fp, r0, r0
     1f8:	0000b400 	andeq	fp, r0, r0, lsl #8
     1fc:	7d000200 	sfmvc	f0, 4, [r0, #-0]
     200:	0000b400 	andeq	fp, r0, r0, lsl #8
     204:	00011400 	andeq	r1, r1, r0, lsl #8
     208:	7d000200 	sfmvc	f0, 4, [r0, #-0]
     20c:	00000008 	andeq	r0, r0, r8
     210:	00000000 	andeq	r0, r0, r0
     214:	0000f000 	andeq	pc, r0, r0
     218:	0000f400 	andeq	pc, r0, r0, lsl #8
     21c:	30000200 	andcc	r0, r0, r0, lsl #4
     220:	0001049f 	muleq	r1, pc, r4	; <UNPREDICTABLE>
     224:	00011400 	andeq	r1, r1, r0, lsl #8
     228:	54000100 	strpl	r0, [r0], #-256	; 0xffffff00
	...
     234:	000000c0 	andeq	r0, r0, r0, asr #1
     238:	000000c4 	andeq	r0, r0, r4, asr #1
     23c:	c4520001 	ldrbgt	r0, [r2], #-1
     240:	c8000000 	stmdagt	r0, {}	; <UNPREDICTABLE>
     244:	01000000 	tsteq	r0, r0
     248:	00c85200 	sbceq	r5, r8, r0, lsl #4
     24c:	00cc0000 	sbceq	r0, ip, r0
     250:	00010000 	andeq	r0, r1, r0
     254:	0000cc52 	andeq	ip, r0, r2, asr ip
     258:	0000e300 	andeq	lr, r0, r0, lsl #6
     25c:	73000200 	movwvc	r0, #512	; 0x200
     260:	0000e804 	andeq	lr, r0, r4, lsl #16
     264:	0000ec00 	andeq	lr, r0, r0, lsl #24
     268:	53000100 	movwpl	r0, #256	; 0x100
     26c:	000000ec 	andeq	r0, r0, ip, ror #1
     270:	000000f4 	strdeq	r0, [r0], -r4
     274:	00530001 	subseq	r0, r3, r1
     278:	00000000 	andeq	r0, r0, r0
     27c:	14000000 	strne	r0, [r0], #-0
     280:	18000001 	stmdane	r0, {r0}
     284:	02000001 	andeq	r0, r0, #1
     288:	18007d00 	stmdane	r0, {r8, sl, fp, ip, sp, lr}
     28c:	74000001 	strvc	r0, [r0], #-1
     290:	02000001 	andeq	r0, r0, #1
     294:	00087d00 	andeq	r7, r8, r0, lsl #26
     298:	00000000 	andeq	r0, r0, r0
     29c:	14000000 	strne	r0, [r0], #-0
     2a0:	1c000001 	stcne	0, cr0, [r0], {1}
     2a4:	02000001 	andeq	r0, r0, #1
     2a8:	2c9f3000 	ldccs	0, cr3, [pc], {0}
     2ac:	38000001 	stmdacc	r0, {r0}
     2b0:	01000001 	tsteq	r0, r1
     2b4:	00005400 	andeq	r5, r0, r0, lsl #8
     2b8:	00000000 	andeq	r0, r0, r0
     2bc:	013c0000 	teqeq	ip, r0
     2c0:	01400000 	mrseq	r0, SPSR
     2c4:	00010000 	andeq	r0, r1, r0
     2c8:	00014053 	andeq	r4, r1, r3, asr r0
     2cc:	00014700 	andeq	r4, r1, r0, lsl #14
     2d0:	53000100 	movwpl	r0, #256	; 0x100
     2d4:	0000014c 	andeq	r0, r0, ip, asr #2
     2d8:	00000150 	andeq	r0, r0, r0, asr r1
     2dc:	50530001 	subspl	r0, r3, r1
     2e0:	54000001 	strpl	r0, [r0], #-1
     2e4:	01000001 	tsteq	r0, r1
     2e8:	01545300 	cmpeq	r4, r0, lsl #6
     2ec:	01580000 	cmpeq	r8, r0
     2f0:	00010000 	andeq	r0, r1, r0
     2f4:	00015853 	andeq	r5, r1, r3, asr r8
     2f8:	00016f00 	andeq	r6, r1, r0, lsl #30
     2fc:	74000200 	strvc	r0, [r0], #-512	; 0xfffffe00
     300:	00000004 	andeq	r0, r0, r4
     304:	00000000 	andeq	r0, r0, r0
     308:	00017400 	andeq	r7, r1, r0, lsl #8
     30c:	00017c00 	andeq	r7, r1, r0, lsl #24
     310:	50000100 	andpl	r0, r0, r0, lsl #2
	...
     31c:	00000194 	muleq	r0, r4, r1
     320:	0000019c 	muleq	r0, ip, r1
     324:	007d0002 	rsbseq	r0, sp, r2
     328:	0000019c 	muleq	r0, ip, r1
     32c:	000001dc 	ldrdeq	r0, [r0], -ip
     330:	087d0002 	ldmdaeq	sp!, {r1}^
	...
     33c:	00000194 	muleq	r0, r4, r1
     340:	000001a8 	andeq	r0, r0, r8, lsr #3
     344:	00510001 	subseq	r0, r1, r1
     348:	00000000 	andeq	r0, r0, r0
     34c:	94000000 	strls	r0, [r0], #-0
     350:	ac000001 	stcge	0, cr0, [r0], {1}
     354:	01000001 	tsteq	r0, r1
     358:	00005200 	andeq	r5, r0, r0, lsl #4
     35c:	00000000 	andeq	r0, r0, r0
     360:	01940000 	orrseq	r0, r4, r0
     364:	01b00000 	movseq	r0, r0
     368:	00010000 	andeq	r0, r1, r0
     36c:	00000053 	andeq	r0, r0, r3, asr r0
     370:	00000000 	andeq	r0, r0, r0
     374:	0001b800 	andeq	fp, r1, r0, lsl #16
     378:	0001bc00 	andeq	fp, r1, r0, lsl #24
     37c:	54000100 	strpl	r0, [r0], #-256	; 0xffffff00
     380:	000001bc 			; <UNDEFINED> instruction: 0x000001bc
     384:	000001c0 	andeq	r0, r0, r0, asr #3
     388:	c0540001 	subsgt	r0, r4, r1
     38c:	c4000001 	strgt	r0, [r0], #-1
     390:	01000001 	tsteq	r0, r1
     394:	01c45100 	biceq	r5, r4, r0, lsl #2
     398:	01c80000 	biceq	r0, r8, r0
     39c:	00010000 	andeq	r0, r1, r0
     3a0:	0001c851 	andeq	ip, r1, r1, asr r8
     3a4:	0001cc00 	andeq	ip, r1, r0, lsl #24
     3a8:	52000100 	andpl	r0, r0, #0, 2
     3ac:	000001cc 	andeq	r0, r0, ip, asr #3
     3b0:	000001d0 	ldrdeq	r0, [r0], -r0	; <UNPREDICTABLE>
     3b4:	d0520001 	subsle	r0, r2, r1
     3b8:	dc000001 	stcle	0, cr0, [r0], {1}
     3bc:	01000001 	tsteq	r0, r1
     3c0:	00005300 	andeq	r5, r0, r0, lsl #6
     3c4:	00000000 	andeq	r0, r0, r0
     3c8:	01dc0000 	bicseq	r0, ip, r0
     3cc:	01e00000 	mvneq	r0, r0
     3d0:	00020000 	andeq	r0, r2, r0
     3d4:	01e0007d 	mvneq	r0, sp, ror r0
     3d8:	020c0000 	andeq	r0, ip, #0
     3dc:	00020000 	andeq	r0, r2, r0
     3e0:	0000087d 	andeq	r0, r0, sp, ror r8
     3e4:	00000000 	andeq	r0, r0, r0
     3e8:	01ec0000 	mvneq	r0, r0
     3ec:	01f00000 	mvnseq	r0, r0
     3f0:	00010000 	andeq	r0, r1, r0
     3f4:	0001f053 	andeq	pc, r1, r3, asr r0	; <UNPREDICTABLE>
     3f8:	0001f700 	andeq	pc, r1, r0, lsl #14
     3fc:	53000100 	movwpl	r0, #256	; 0x100
     400:	000001fc 	strdeq	r0, [r0], -ip
     404:	00000200 	andeq	r0, r0, r0, lsl #4
     408:	00530001 	subseq	r0, r3, r1
     40c:	0c000002 	stceq	0, cr0, [r0], {2}
     410:	01000002 	tsteq	r0, r2
     414:	00005300 	andeq	r5, r0, r0, lsl #6
     418:	00000000 	andeq	r0, r0, r0
     41c:	020c0000 	andeq	r0, ip, #0
     420:	02140000 	andseq	r0, r4, #0
     424:	00020000 	andeq	r0, r2, r0
     428:	0214007d 	andseq	r0, r4, #125	; 0x7d
     42c:	02180000 	andseq	r0, r8, #0
     430:	00020000 	andeq	r0, r2, r0
     434:	0218247d 	andseq	r2, r8, #2097152000	; 0x7d000000
     438:	03340000 	teqeq	r4, #0
     43c:	00020000 	andeq	r0, r2, r0
     440:	0000387d 	andeq	r3, r0, sp, ror r8
     444:	00000000 	andeq	r0, r0, r0
     448:	02e40000 	rsceq	r0, r4, #0
     44c:	02e80000 	rsceq	r0, r8, #0
     450:	00010000 	andeq	r0, r1, r0
     454:	0002e853 	andeq	lr, r2, r3, asr r8
     458:	0002f000 	andeq	pc, r2, r0
     45c:	53000100 	movwpl	r0, #256	; 0x100
     460:	000002f0 	strdeq	r0, [r0], -r0	; <UNPREDICTABLE>
     464:	000002f4 	strdeq	r0, [r0], -r4
     468:	f4530001 			; <UNDEFINED> instruction: 0xf4530001
     46c:	f8000002 			; <UNDEFINED> instruction: 0xf8000002
     470:	01000002 	tsteq	r0, r2
     474:	02f85300 	rscseq	r5, r8, #0, 6
     478:	030b0000 	movweq	r0, #45056	; 0xb000
     47c:	00020000 	andeq	r0, r2, r0
     480:	00000074 	andeq	r0, r0, r4, ror r0
     484:	00000000 	andeq	r0, r0, r0
     488:	03140000 	tsteq	r4, #0
     48c:	03170000 	tsteq	r7, #0
     490:	00010000 	andeq	r0, r1, r0
     494:	00031750 	andeq	r1, r3, r0, asr r7
     498:	00033400 	andeq	r3, r3, r0, lsl #8
     49c:	54000100 	strpl	r0, [r0], #-256	; 0xffffff00
	...
     4a8:	00000220 	andeq	r0, r0, r0, lsr #4
     4ac:	00000224 	andeq	r0, r0, r4, lsr #4
     4b0:	24520001 	ldrbcs	r0, [r2], #-1
     4b4:	34000002 	strcc	r0, [r0], #-2
     4b8:	02000003 	andeq	r0, r0, #3
     4bc:	00007d00 	andeq	r7, r0, r0, lsl #26
     4c0:	00000000 	andeq	r0, r0, r0
     4c4:	30000000 	andcc	r0, r0, r0
     4c8:	48000002 	stmdami	r0, {r1}
     4cc:	01000002 	tsteq	r0, r2
     4d0:	02485200 	subeq	r5, r8, #0, 4
     4d4:	03340000 	teqeq	r4, #0
     4d8:	00020000 	andeq	r0, r2, r0
     4dc:	00004491 	muleq	r0, r1, r4
     4e0:	00000000 	andeq	r0, r0, r0
     4e4:	02500000 	subseq	r0, r0, #0
     4e8:	02540000 	subseq	r0, r4, #0
     4ec:	00010000 	andeq	r0, r1, r0
     4f0:	00025452 	andeq	r5, r2, r2, asr r4
     4f4:	00033400 	andeq	r3, r3, r0, lsl #8
     4f8:	91000200 	tstls	r0, r0, lsl #4
     4fc:	00000048 	andeq	r0, r0, r8, asr #32
     500:	00000000 	andeq	r0, r0, r0
     504:	00025400 	andeq	r5, r2, r0, lsl #8
     508:	00033400 	andeq	r3, r3, r0, lsl #8
     50c:	91000200 	tstls	r0, r0, lsl #4
     510:	0000004c 	andeq	r0, r0, ip, asr #32
     514:	00000000 	andeq	r0, r0, r0
     518:	00033400 	andeq	r3, r3, r0, lsl #8
     51c:	00033800 	andeq	r3, r3, r0, lsl #16
     520:	7d000200 	sfmvc	f0, 4, [r0, #-0]
     524:	00033800 	andeq	r3, r3, r0, lsl #16
     528:	00035000 	andeq	r5, r3, r0
     52c:	7d000200 	sfmvc	f0, 4, [r0, #-0]
     530:	00000008 	andeq	r0, r0, r8
     534:	00000000 	andeq	r0, r0, r0
     538:	00035000 	andeq	r5, r3, r0
     53c:	00035400 	andeq	r5, r3, r0, lsl #8
     540:	7d000200 	sfmvc	f0, 4, [r0, #-0]
     544:	00035400 	andeq	r5, r3, r0, lsl #8
     548:	00039000 	andeq	r9, r3, r0
     54c:	7d000200 	sfmvc	f0, 4, [r0, #-0]
     550:	00000008 	andeq	r0, r0, r8
     554:	00000000 	andeq	r0, r0, r0
     558:	00037c00 	andeq	r7, r3, r0, lsl #24
     55c:	00038700 	andeq	r8, r3, r0, lsl #14
     560:	50000100 	andpl	r0, r0, r0, lsl #2
     564:	00000387 	andeq	r0, r0, r7, lsl #7
     568:	00000390 	muleq	r0, r0, r3
     56c:	00540001 	subseq	r0, r4, r1
	...
     578:	0c000000 	stceq	0, cr0, [r0], {-0}
     57c:	02000000 	andeq	r0, r0, #0
     580:	0c007d00 	stceq	13, cr7, [r0], {-0}
     584:	6c000000 	stcvs	0, cr0, [r0], {-0}
     588:	02000000 	andeq	r0, r0, #0
     58c:	00087d00 	andeq	r7, r8, r0, lsl #26
     590:	00000000 	andeq	r0, r0, r0
     594:	14000000 	strne	r0, [r0], #-0
     598:	24000000 	strcs	r0, [r0], #-0
     59c:	07000000 	streq	r0, [r0, -r0]
     5a0:	36007300 	strcc	r7, [r0], -r0, lsl #6
     5a4:	9f1a3325 	svcls	0x001a3325
     5a8:	00000024 	andeq	r0, r0, r4, lsr #32
     5ac:	0000002c 	andeq	r0, r0, ip, lsr #32
     5b0:	2c530001 	mrrccs	0, 0, r0, r3, cr1
     5b4:	33000000 	movwcc	r0, #0
     5b8:	01000000 	tsteq	r0, r0
     5bc:	00385300 	eorseq	r5, r8, r0, lsl #6
     5c0:	003c0000 	eorseq	r0, ip, r0
     5c4:	00010000 	andeq	r0, r1, r0
     5c8:	00003c53 	andeq	r3, r0, r3, asr ip
     5cc:	00004000 	andeq	r4, r0, r0
     5d0:	53000100 	movwpl	r0, #256	; 0x100
     5d4:	00000040 	andeq	r0, r0, r0, asr #32
     5d8:	00000044 	andeq	r0, r0, r4, asr #32
     5dc:	00730007 	rsbseq	r0, r3, r7
     5e0:	1a332536 	bne	cc9ac0 <__standby_start+0xcc9ac0>
     5e4:	0000449f 	muleq	r0, pc, r4	; <UNPREDICTABLE>
     5e8:	00004c00 	andeq	r4, r0, r0, lsl #24
     5ec:	53000100 	movwpl	r0, #256	; 0x100
     5f0:	0000004c 	andeq	r0, r0, ip, asr #32
     5f4:	00000053 	andeq	r0, r0, r3, asr r0
     5f8:	58530001 	ldmdapl	r3, {r0}^
     5fc:	5c000000 	stcpl	0, cr0, [r0], {-0}
     600:	01000000 	tsteq	r0, r0
     604:	005c5300 	subseq	r5, ip, r0, lsl #6
     608:	006c0000 	rsbeq	r0, ip, r0
     60c:	00010000 	andeq	r0, r1, r0
     610:	00000053 	andeq	r0, r0, r3, asr r0
     614:	00000000 	andeq	r0, r0, r0
     618:	00007400 	andeq	r7, r0, r0, lsl #8
     61c:	00007800 	andeq	r7, r0, r0, lsl #16
     620:	72000700 	andvc	r0, r0, #0, 14
     624:	60000a00 	andvs	r0, r0, r0, lsl #20
     628:	007c9f21 	rsbseq	r9, ip, r1, lsr #30
     62c:	00800000 	addeq	r0, r0, r0
     630:	00010000 	andeq	r0, r1, r0
     634:	00008052 	andeq	r8, r0, r2, asr r0
     638:	00008c00 	andeq	r8, r0, r0, lsl #24
     63c:	52000100 	andpl	r0, r0, #0, 2
	...
     648:	0000008c 	andeq	r0, r0, ip, lsl #1
     64c:	00000094 	muleq	r0, r4, r0
     650:	9f300002 	svcls	0x00300002
     654:	00000094 	muleq	r0, r4, r0
     658:	00000098 	muleq	r0, r8, r0
     65c:	98520001 	ldmdals	r2, {r0}^
     660:	a4000000 	strge	r0, [r0], #-0
     664:	01000000 	tsteq	r0, r0
     668:	00005200 	andeq	r5, r0, r0, lsl #4
     66c:	00000000 	andeq	r0, r0, r0
     670:	00a40000 	adceq	r0, r4, r0
     674:	00ac0000 	adceq	r0, ip, r0
     678:	00020000 	andeq	r0, r2, r0
     67c:	00ac9f30 	adceq	r9, ip, r0, lsr pc
     680:	00b00000 	adcseq	r0, r0, r0
     684:	00010000 	andeq	r0, r1, r0
     688:	0000b052 	andeq	fp, r0, r2, asr r0
     68c:	0000bc00 	andeq	fp, r0, r0, lsl #24
     690:	52000100 	andpl	r0, r0, #0, 2
	...
     69c:	000000bc 	strheq	r0, [r0], -ip
     6a0:	000000c0 	andeq	r0, r0, r0, asr #1
     6a4:	007d0002 	rsbseq	r0, sp, r2
     6a8:	000000c0 	andeq	r0, r0, r0, asr #1
     6ac:	00000110 	andeq	r0, r0, r0, lsl r1
     6b0:	087d0002 	ldmdaeq	sp!, {r1}^
	...
     6bc:	00000110 	andeq	r0, r0, r0, lsl r1
     6c0:	00000118 	andeq	r0, r0, r8, lsl r1
     6c4:	007d0002 	rsbseq	r0, sp, r2
     6c8:	00000118 	andeq	r0, r0, r8, lsl r1
     6cc:	000001b4 			; <UNDEFINED> instruction: 0x000001b4
     6d0:	087d0002 	ldmdaeq	sp!, {r1}^
	...
     6dc:	00000110 	andeq	r0, r0, r0, lsl r1
     6e0:	00000118 	andeq	r0, r0, r8, lsl r1
     6e4:	9f310002 	svcls	0x00310002
     6e8:	00000124 	andeq	r0, r0, r4, lsr #2
     6ec:	00000147 	andeq	r0, r0, r7, asr #2
     6f0:	48530001 	ldmdami	r3, {r0}^
     6f4:	4c000001 	stcmi	0, cr0, [r0], {1}
     6f8:	02000001 	andeq	r0, r0, #1
     6fc:	589f3100 	ldmpl	pc, {r8, ip, sp}	; <UNPREDICTABLE>
     700:	77000001 	strvc	r0, [r0, -r1]
     704:	01000001 	tsteq	r0, r1
     708:	01785300 	cmneq	r8, r0, lsl #6
     70c:	017c0000 	cmneq	ip, r0
     710:	00020000 	andeq	r0, r2, r0
     714:	01889f31 	orreq	r9, r8, r1, lsr pc
     718:	01af0000 			; <UNDEFINED> instruction: 0x01af0000
     71c:	00010000 	andeq	r0, r1, r0
     720:	00000053 	andeq	r0, r0, r3, asr r0
     724:	00000000 	andeq	r0, r0, r0
     728:	0001bc00 	andeq	fp, r1, r0, lsl #24
     72c:	0001c000 	andeq	ip, r1, r0
     730:	52000100 	andpl	r0, r0, #0, 2
     734:	000001c0 	andeq	r0, r0, r0, asr #3
     738:	000001c4 	andeq	r0, r0, r4, asr #3
     73c:	c4520001 	ldrbgt	r0, [r2], #-1
     740:	cc000001 	stcgt	0, cr0, [r0], {1}
     744:	01000001 	tsteq	r0, r1
     748:	01cc5200 	biceq	r5, ip, r0, lsl #4
     74c:	01d00000 	bicseq	r0, r0, r0
     750:	00010000 	andeq	r0, r1, r0
     754:	0001d052 	andeq	sp, r1, r2, asr r0
     758:	0001d400 	andeq	sp, r1, r0, lsl #8
     75c:	52000100 	andpl	r0, r0, #0, 2
     760:	000001d4 	ldrdeq	r0, [r0], -r4
     764:	000001dc 	ldrdeq	r0, [r0], -ip
     768:	dc520001 	mrrcle	0, 0, r0, r2, cr1
     76c:	e0000001 	and	r0, r0, r1
     770:	01000001 	tsteq	r0, r1
     774:	01e05200 	mvneq	r5, r0, lsl #4
     778:	01e40000 	mvneq	r0, r0
     77c:	00010000 	andeq	r0, r1, r0
     780:	0001e452 	andeq	lr, r1, r2, asr r4
     784:	0001ec00 	andeq	lr, r1, r0, lsl #24
     788:	52000100 	andpl	r0, r0, #0, 2
     78c:	000001ec 	andeq	r0, r0, ip, ror #3
     790:	000001f0 	strdeq	r0, [r0], -r0	; <UNPREDICTABLE>
     794:	f0520001 			; <UNDEFINED> instruction: 0xf0520001
     798:	f4000001 	vst4.8	{d0-d3}, [r0], r1
     79c:	01000001 	tsteq	r0, r1
     7a0:	01f45200 	mvnseq	r5, r0, lsl #4
     7a4:	01fc0000 	mvnseq	r0, r0
     7a8:	00010000 	andeq	r0, r1, r0
     7ac:	0001fc52 	andeq	pc, r1, r2, asr ip	; <UNPREDICTABLE>
     7b0:	00020000 	andeq	r0, r2, r0
     7b4:	52000100 	andpl	r0, r0, #0, 2
     7b8:	00000200 	andeq	r0, r0, r0, lsl #4
     7bc:	00000204 	andeq	r0, r0, r4, lsl #4
     7c0:	04520001 	ldrbeq	r0, [r2], #-1
     7c4:	10000002 	andne	r0, r0, r2
     7c8:	01000002 	tsteq	r0, r2
     7cc:	00005200 	andeq	r5, r0, r0, lsl #4
     7d0:	00000000 	andeq	r0, r0, r0
     7d4:	02100000 	andseq	r0, r0, #0
     7d8:	02180000 	andseq	r0, r8, #0
     7dc:	00020000 	andeq	r0, r2, r0
     7e0:	02249f30 	eoreq	r9, r4, #48, 30	; 0xc0
     7e4:	02440000 	subeq	r0, r4, #0
     7e8:	00010000 	andeq	r0, r1, r0
     7ec:	00000053 	andeq	r0, r0, r3, asr r0
     7f0:	00000000 	andeq	r0, r0, r0
     7f4:	00024400 	andeq	r4, r2, r0, lsl #8
     7f8:	00025000 	andeq	r5, r2, r0
     7fc:	7d000200 	sfmvc	f0, 4, [r0, #-0]
     800:	00025000 	andeq	r5, r2, r0
     804:	00036400 	andeq	r6, r3, r0, lsl #8
     808:	7d000200 	sfmvc	f0, 4, [r0, #-0]
     80c:	00000018 	andeq	r0, r0, r8, lsl r0
     810:	00000000 	andeq	r0, r0, r0
     814:	00024400 	andeq	r4, r2, r0, lsl #8
     818:	00028c00 	andeq	r8, r2, r0, lsl #24
     81c:	50000100 	andpl	r0, r0, r0, lsl #2
	...
     828:	00000258 	andeq	r0, r0, r8, asr r2
     82c:	00000264 	andeq	r0, r0, r4, ror #4
     830:	007c0006 	rsbseq	r0, ip, r6
     834:	9f1afc09 	svcls	0x001afc09
     838:	00000264 	andeq	r0, r0, r4, ror #4
     83c:	00000268 	andeq	r0, r0, r8, ror #4
     840:	007c0005 	rsbseq	r0, ip, r5
     844:	689f2131 	ldmvs	pc, {r0, r4, r5, r8, sp}	; <UNPREDICTABLE>
     848:	6c000002 	stcvs	0, cr0, [r0], {2}
     84c:	01000002 	tsteq	r0, r2
     850:	026c5c00 	rsbeq	r5, ip, #0, 24
     854:	02e80000 	rsceq	r0, r8, #0
     858:	00010000 	andeq	r0, r1, r0
     85c:	0002e85c 	andeq	lr, r2, ip, asr r8
     860:	0002ec00 	andeq	lr, r2, r0, lsl #24
     864:	53000100 	movwpl	r0, #256	; 0x100
     868:	000002ec 	andeq	r0, r0, ip, ror #5
     86c:	000002f0 	strdeq	r0, [r0], -r0	; <UNPREDICTABLE>
     870:	f0530001 			; <UNDEFINED> instruction: 0xf0530001
     874:	f4000002 	vst4.8	{d0-d3}, [r0], r2
     878:	01000002 	tsteq	r0, r2
     87c:	02f45300 	rscseq	r5, r4, #0, 6
     880:	02f80000 	rscseq	r0, r8, #0
     884:	00010000 	andeq	r0, r1, r0
     888:	0002f853 	andeq	pc, r2, r3, asr r8	; <UNPREDICTABLE>
     88c:	0002ff00 	andeq	pc, r2, r0, lsl #30
     890:	53000100 	movwpl	r0, #256	; 0x100
     894:	00000304 	andeq	r0, r0, r4, lsl #6
     898:	0000030c 	andeq	r0, r0, ip, lsl #6
     89c:	0c530001 	mrrceq	0, 0, r0, r3, cr1
     8a0:	14000003 	strne	r0, [r0], #-3
     8a4:	01000003 	tsteq	r0, r3
     8a8:	03145300 	tsteq	r4, #0, 6
     8ac:	03180000 	tsteq	r8, #0
     8b0:	00010000 	andeq	r0, r1, r0
     8b4:	00031853 	andeq	r1, r3, r3, asr r8
     8b8:	00032000 	andeq	r2, r3, r0
     8bc:	53000100 	movwpl	r0, #256	; 0x100
     8c0:	00000320 	andeq	r0, r0, r0, lsr #6
     8c4:	00000324 	andeq	r0, r0, r4, lsr #6
     8c8:	24530001 	ldrbcs	r0, [r3], #-1
     8cc:	2b000003 	blcs	8e0 <__standby_start+0x8e0>
     8d0:	01000003 	tsteq	r0, r3
     8d4:	03305300 	teqeq	r0, #0, 6
     8d8:	03380000 	teqeq	r8, #0
     8dc:	00010000 	andeq	r0, r1, r0
     8e0:	00033853 	andeq	r3, r3, r3, asr r8
     8e4:	00034000 	andeq	r4, r3, r0
     8e8:	53000100 	movwpl	r0, #256	; 0x100
     8ec:	00000340 	andeq	r0, r0, r0, asr #6
     8f0:	00000344 	andeq	r0, r0, r4, asr #6
     8f4:	44550001 	ldrbmi	r0, [r5], #-1
     8f8:	50000003 	andpl	r0, r0, r3
     8fc:	01000003 	tsteq	r0, r3
     900:	03505500 	cmpeq	r0, #0, 10
     904:	03640000 	cmneq	r4, #0
     908:	00010000 	andeq	r0, r1, r0
     90c:	00000055 	andeq	r0, r0, r5, asr r0
     910:	00000000 	andeq	r0, r0, r0
     914:	00026c00 	andeq	r6, r2, r0, lsl #24
     918:	0002a000 	andeq	sl, r2, r0
     91c:	50000600 	andpl	r0, r0, r0, lsl #12
     920:	93510493 	cmpls	r1, #-1828716544	; 0x93000000
     924:	0002a004 	andeq	sl, r2, r4
     928:	0002e400 	andeq	lr, r2, r0, lsl #8
     92c:	50000600 	andpl	r0, r0, r0, lsl #12
     930:	93510493 	cmpls	r1, #-1828716544	; 0x93000000
     934:	00000004 	andeq	r0, r0, r4
     938:	00000000 	andeq	r0, r0, r0
     93c:	00026c00 	andeq	r6, r2, r0, lsl #24
     940:	00027000 	andeq	r7, r2, r0
     944:	9e000a00 	vmlals.f32	s0, s0, s0
     948:	00001808 	andeq	r1, r0, r8, lsl #16
     94c:	00000000 	andeq	r0, r0, r0
     950:	00027000 	andeq	r7, r2, r0
     954:	00027400 	andeq	r7, r2, r0, lsl #8
     958:	54000600 	strpl	r0, [r0], #-1536	; 0xfffffa00
     95c:	93550493 	cmpls	r5, #-1828716544	; 0x93000000
     960:	00027c04 	andeq	r7, r2, r4, lsl #24
     964:	0002c400 	andeq	ip, r2, r0, lsl #8
     968:	54000600 	strpl	r0, [r0], #-1536	; 0xfffffa00
     96c:	93550493 	cmpls	r5, #-1828716544	; 0x93000000
     970:	0002d404 	andeq	sp, r2, r4, lsl #8
     974:	0002d800 	andeq	sp, r2, r0, lsl #16
     978:	54000600 	strpl	r0, [r0], #-1536	; 0xfffffa00
     97c:	93550493 	cmpls	r5, #-1828716544	; 0x93000000
     980:	00000004 	andeq	r0, r0, r4
     984:	00000000 	andeq	r0, r0, r0
     988:	00026c00 	andeq	r6, r2, r0, lsl #24
     98c:	00028c00 	andeq	r8, r2, r0, lsl #24
     990:	9e000a00 	vmlals.f32	s0, s0, s0
     994:	00000008 	andeq	r0, r0, r8
     998:	00000000 	andeq	r0, r0, r0
     99c:	00028c00 	andeq	r8, r2, r0, lsl #24
     9a0:	0002a400 	andeq	sl, r2, r0, lsl #8
     9a4:	52000600 	andpl	r0, r0, #0, 12
     9a8:	93530493 	cmpls	r3, #-1828716544	; 0x93000000
     9ac:	0002b804 	andeq	fp, r2, r4, lsl #16
     9b0:	0002c000 	andeq	ip, r2, r0
     9b4:	52000600 	andpl	r0, r0, #0, 12
     9b8:	93530493 	cmpls	r3, #-1828716544	; 0x93000000
     9bc:	0002c404 	andeq	ip, r2, r4, lsl #8
     9c0:	0002ff00 	andeq	pc, r2, r0, lsl #30
     9c4:	52000600 	andpl	r0, r0, #0, 12
     9c8:	93530493 	cmpls	r3, #-1828716544	; 0x93000000
     9cc:	00000004 	andeq	r0, r0, r4
     9d0:	00000000 	andeq	r0, r0, r0
     9d4:	00026c00 	andeq	r6, r2, r0, lsl #24
     9d8:	00027000 	andeq	r7, r2, r0
     9dc:	30000200 	andcc	r0, r0, r0, lsl #4
     9e0:	0002709f 	muleq	r2, pc, r0	; <UNPREDICTABLE>
     9e4:	00027800 	andeq	r7, r2, r0, lsl #16
     9e8:	5e000100 	adfpls	f0, f0, f0
     9ec:	00000278 	andeq	r0, r0, r8, ror r2
     9f0:	0000027c 	andeq	r0, r0, ip, ror r2
     9f4:	7f7e0003 	svcvc	0x007e0003
     9f8:	00027c9f 	muleq	r2, pc, ip	; <UNPREDICTABLE>
     9fc:	0002c400 	andeq	ip, r2, r0, lsl #8
     a00:	5e000100 	adfpls	f0, f0, f0
     a04:	000002c4 	andeq	r0, r0, r4, asr #5
     a08:	000002c8 	andeq	r0, r0, r8, asr #5
     a0c:	7f7e0003 	svcvc	0x007e0003
     a10:	0002c89f 	muleq	r2, pc, r8	; <UNPREDICTABLE>
     a14:	0002ff00 	andeq	pc, r2, r0, lsl #30
     a18:	5e000100 	adfpls	f0, f0, f0
	...
     a24:	00000374 	andeq	r0, r0, r4, ror r3
     a28:	00000378 	andeq	r0, r0, r8, ror r3
     a2c:	78520001 	ldmdavc	r2, {r0}^
     a30:	7c000003 	stcvc	0, cr0, [r0], {3}
     a34:	01000003 	tsteq	r0, r3
     a38:	037c5200 	cmneq	ip, #0, 4
     a3c:	03900000 	orrseq	r0, r0, #0
     a40:	00020000 	andeq	r0, r2, r0
     a44:	03900073 	orrseq	r0, r0, #115	; 0x73
     a48:	03940000 	orrseq	r0, r4, #0
     a4c:	00010000 	andeq	r0, r1, r0
     a50:	00000050 	andeq	r0, r0, r0, asr r0
     a54:	00000000 	andeq	r0, r0, r0
     a58:	0003ac00 	andeq	sl, r3, r0, lsl #24
     a5c:	0003b000 	andeq	fp, r3, r0
     a60:	53000100 	movwpl	r0, #256	; 0x100
     a64:	000003b0 			; <UNDEFINED> instruction: 0x000003b0
     a68:	000003b4 			; <UNDEFINED> instruction: 0x000003b4
     a6c:	b4530001 	ldrblt	r0, [r3], #-1
     a70:	c0000003 	andgt	r0, r0, r3
     a74:	01000003 	tsteq	r0, r3
     a78:	00005300 	andeq	r5, r0, r0, lsl #6
     a7c:	00000000 	andeq	r0, r0, r0
     a80:	03c00000 	biceq	r0, r0, #0
     a84:	03f40000 	mvnseq	r0, #0
     a88:	00010000 	andeq	r0, r1, r0
     a8c:	00000050 	andeq	r0, r0, r0, asr r0
     a90:	00000000 	andeq	r0, r0, r0
     a94:	0003fc00 	andeq	pc, r3, r0, lsl #24
     a98:	00040400 	andeq	r0, r4, r0, lsl #8
     a9c:	53000100 	movwpl	r0, #256	; 0x100
     aa0:	00000404 	andeq	r0, r0, r4, lsl #8
     aa4:	00000408 	andeq	r0, r0, r8, lsl #8
     aa8:	b8700009 	ldmdalt	r0!, {r0, r3}^
     aac:	7324387e 	teqvc	r4, #8257536	; 0x7e0000
     ab0:	089f2100 	ldmeq	pc, {r8, sp}	; <UNPREDICTABLE>
     ab4:	0c000004 	stceq	0, cr0, [r0], {4}
     ab8:	08000004 	stmdaeq	r0, {r2}
     abc:	38007000 	stmdacc	r0, {ip, sp, lr}
     ac0:	21007324 	tstcs	r0, r4, lsr #6
     ac4:	00040c9f 	muleq	r4, pc, ip	; <UNPREDICTABLE>
     ac8:	00041000 	andeq	r1, r4, r0
     acc:	53000100 	movwpl	r0, #256	; 0x100
     ad0:	00000410 	andeq	r0, r0, r0, lsl r4
     ad4:	0000041c 	andeq	r0, r0, ip, lsl r4
     ad8:	00530001 	subseq	r0, r3, r1
     adc:	00000000 	andeq	r0, r0, r0
     ae0:	cc000000 	stcgt	0, cr0, [r0], {-0}
     ae4:	d0000003 	andle	r0, r0, r3
     ae8:	07000003 	streq	r0, [r0, -r3]
     aec:	33007200 	movwcc	r7, #512	; 0x200
     af0:	9f1a3725 	svcls	0x001a3725
	...
     afc:	00000404 	andeq	r0, r0, r4, lsl #8
     b00:	00000408 	andeq	r0, r0, r8, lsl #8
     b04:	b8700004 	ldmdalt	r0!, {r2}^
     b08:	04089f7e 	streq	r9, [r8], #-3966	; 0xfffff082
     b0c:	041c0000 	ldreq	r0, [ip], #-0
     b10:	00010000 	andeq	r0, r1, r0
     b14:	00000050 	andeq	r0, r0, r0, asr r0
     b18:	00000000 	andeq	r0, r0, r0
     b1c:	00042400 	andeq	r2, r4, r0, lsl #8
     b20:	00047c00 	andeq	r7, r4, r0, lsl #24
     b24:	53000100 	movwpl	r0, #256	; 0x100
	...
     b30:	00000464 	andeq	r0, r0, r4, ror #8
     b34:	00000474 	andeq	r0, r0, r4, ror r4
     b38:	74500001 	ldrbvc	r0, [r0], #-1
     b3c:	80000004 	andhi	r0, r0, r4
     b40:	01000004 	tsteq	r0, r4
     b44:	04805000 	streq	r5, [r0], #0
     b48:	04880000 	streq	r0, [r8], #0
     b4c:	00010000 	andeq	r0, r1, r0
     b50:	00048850 	andeq	r8, r4, r0, asr r8
     b54:	00049000 	andeq	r9, r4, r0
     b58:	50000100 	andpl	r0, r0, r0, lsl #2
	...
     b64:	00000428 	andeq	r0, r0, r8, lsr #8
     b68:	00000430 	andeq	r0, r0, r0, lsr r4
     b6c:	00500001 	subseq	r0, r0, r1
     b70:	00000000 	andeq	r0, r0, r0
     b74:	90000000 	andls	r0, r0, r0
     b78:	94000004 	strls	r0, [r0], #-4
     b7c:	02000004 	andeq	r0, r0, #4
     b80:	94007d00 	strls	r7, [r0], #-3328	; 0xfffff300
     b84:	6c000004 	stcvs	0, cr0, [r0], {4}
     b88:	02000006 	andeq	r0, r0, #6
     b8c:	00107d00 	andseq	r7, r0, r0, lsl #26
     b90:	00000000 	andeq	r0, r0, r0
     b94:	90000000 	andls	r0, r0, r0
     b98:	9c000004 	stcls	0, cr0, [r0], {4}
     b9c:	01000004 	tsteq	r0, r4
     ba0:	049c5000 	ldreq	r5, [ip], #0
     ba4:	066c0000 	strbteq	r0, [ip], -r0
     ba8:	00010000 	andeq	r0, r1, r0
     bac:	00000054 	andeq	r0, r0, r4, asr r0
     bb0:	00000000 	andeq	r0, r0, r0
     bb4:	0004cc00 	andeq	ip, r4, r0, lsl #24
     bb8:	0004e800 	andeq	lr, r4, r0, lsl #16
     bbc:	74000600 	strvc	r0, [r0], #-1536	; 0xfffffa00
     bc0:	29330608 	ldmdbcs	r3!, {r3, r9, sl}
     bc4:	0004e89f 	muleq	r4, pc, r8	; <UNPREDICTABLE>
     bc8:	0004fc00 	andeq	pc, r4, r0, lsl #24
     bcc:	53000100 	movwpl	r0, #256	; 0x100
     bd0:	00000558 	andeq	r0, r0, r8, asr r5
     bd4:	0000055f 	andeq	r0, r0, pc, asr r5
     bd8:	84530001 	ldrbhi	r0, [r3], #-1
     bdc:	8c000005 	stchi	0, cr0, [r0], {5}
     be0:	01000005 	tsteq	r0, r5
     be4:	058c5300 	streq	r5, [ip, #768]	; 0x300
     be8:	05900000 	ldreq	r0, [r0]
     bec:	00010000 	andeq	r0, r1, r0
     bf0:	00059053 	andeq	r9, r5, r3, asr r0
     bf4:	00059400 	andeq	r9, r5, r0, lsl #8
     bf8:	53000100 	movwpl	r0, #256	; 0x100
     bfc:	00000594 	muleq	r0, r4, r5
     c00:	00000598 	muleq	r0, r8, r5
     c04:	000c0006 	andeq	r0, ip, r6
     c08:	9f00cc00 	svcls	0x0000cc00
     c0c:	00000598 	muleq	r0, r8, r5
     c10:	000005a4 	andeq	r0, r0, r4, lsr #11
     c14:	2474000c 	ldrbtcs	r0, [r4], #-12
     c18:	0c1a3306 	ldceq	3, cr3, [sl], {6}
     c1c:	00cc0000 	sbceq	r0, ip, r0
     c20:	05a49f21 	streq	r9, [r4, #3873]!	; 0xf21
     c24:	05d00000 	ldrbeq	r0, [r0]
     c28:	00010000 	andeq	r0, r1, r0
     c2c:	0005d056 	andeq	sp, r5, r6, asr r0
     c30:	0005e000 	andeq	lr, r5, r0
     c34:	74000900 	strvc	r0, [r0], #-2304	; 0xfffff700
     c38:	fc09061c 	stc2	6, cr0, [r9], {28}
     c3c:	9f243422 	svcls	0x00243422
     c40:	000005e0 	andeq	r0, r0, r0, ror #11
     c44:	000005e8 	andeq	r0, r0, r8, ror #11
     c48:	e8560001 	ldmda	r6, {r0}^
     c4c:	f8000005 			; <UNDEFINED> instruction: 0xf8000005
     c50:	08000005 	stmdaeq	r0, {r0, r2}
     c54:	061c7400 	ldreq	r7, [ip], -r0, lsl #8
     c58:	21322434 	teqcs	r2, r4, lsr r4
     c5c:	0005f89f 	muleq	r5, pc, r8	; <UNPREDICTABLE>
     c60:	00060000 	andeq	r0, r6, r0
     c64:	56000100 	strpl	r0, [r0], -r0, lsl #2
     c68:	00000600 	andeq	r0, r0, r0, lsl #12
     c6c:	0000061c 	andeq	r0, r0, ip, lsl r6
     c70:	9f300002 	svcls	0x00300002
     c74:	0000061c 	andeq	r0, r0, ip, lsl r6
     c78:	00000620 	andeq	r0, r0, r0, lsr #12
     c7c:	20520001 	subscs	r0, r2, r1
     c80:	24000006 	strcs	r0, [r0], #-6
     c84:	01000006 	tsteq	r0, r6
     c88:	06245200 	strteq	r5, [r4], -r0, lsl #4
     c8c:	062c0000 	strteq	r0, [ip], -r0
     c90:	00010000 	andeq	r0, r1, r0
     c94:	00062c52 	andeq	r2, r6, r2, asr ip
     c98:	00063000 	andeq	r3, r6, r0
     c9c:	52000100 	andpl	r0, r0, #0, 2
     ca0:	00000630 	andeq	r0, r0, r0, lsr r6
     ca4:	00000634 	andeq	r0, r0, r4, lsr r6
     ca8:	34520001 	ldrbcc	r0, [r2], #-1
     cac:	43000006 	movwmi	r0, #6
     cb0:	02000006 	andeq	r0, r0, #6
     cb4:	00007500 	andeq	r7, r0, r0, lsl #10
     cb8:	00000000 	andeq	r0, r0, r0
     cbc:	48000000 	stmdami	r0, {}	; <UNPREDICTABLE>
     cc0:	53000006 	movwpl	r0, #6
     cc4:	01000006 	tsteq	r0, r6
     cc8:	065c5000 	ldrbeq	r5, [ip], -r0
     ccc:	06600000 	strbteq	r0, [r0], -r0
     cd0:	00010000 	andeq	r0, r1, r0
     cd4:	00000050 	andeq	r0, r0, r0, asr r0
     cd8:	00000000 	andeq	r0, r0, r0
     cdc:	0000f000 	andeq	pc, r0, r0
     ce0:	00010400 	andeq	r0, r1, r0, lsl #8
     ce4:	7d000200 	sfmvc	f0, 4, [r0, #-0]
     ce8:	00010400 	andeq	r0, r1, r0, lsl #8
     cec:	00013800 	andeq	r3, r1, r0, lsl #16
     cf0:	7d000200 	sfmvc	f0, 4, [r0, #-0]
     cf4:	00000008 	andeq	r0, r0, r8
     cf8:	00000000 	andeq	r0, r0, r0
     cfc:	0000f000 	andeq	pc, r0, r0
     d00:	00010000 	andeq	r0, r1, r0
     d04:	50000100 	andpl	r0, r0, r0, lsl #2
	...
     d10:	000000f8 	strdeq	r0, [r0], -r8
     d14:	00000110 	andeq	r0, r0, r0, lsl r1
     d18:	10520001 	subsne	r0, r2, r1
     d1c:	24000001 	strcs	r0, [r0], #-1
     d20:	03000001 	movweq	r0, #1
     d24:	9f707100 	svcls	0x00707100
     d28:	00000124 	andeq	r0, r0, r4, lsr #2
     d2c:	00000138 	andeq	r0, r0, r8, lsr r1
     d30:	6c720003 	ldclvs	0, cr0, [r2], #-12
     d34:	0000009f 	muleq	r0, pc, r0	; <UNPREDICTABLE>
     d38:	00000000 	andeq	r0, r0, r0
     d3c:	0000f800 	andeq	pc, r0, r0, lsl #16
     d40:	00010000 	andeq	r0, r1, r0
     d44:	70000500 	andvc	r0, r0, r0, lsl #10
     d48:	9f1a4f00 	svcls	0x001a4f00
     d4c:	00000100 	andeq	r0, r0, r0, lsl #2
     d50:	00000114 	andeq	r0, r0, r4, lsl r1
     d54:	00500001 	subseq	r0, r0, r1
     d58:	00000000 	andeq	r0, r0, r0
     d5c:	38000000 	stmdacc	r0, {}	; <UNPREDICTABLE>
     d60:	48000001 	stmdami	r0, {r0}
     d64:	01000001 	tsteq	r0, r1
     d68:	00005000 	andeq	r5, r0, r0
     d6c:	00000000 	andeq	r0, r0, r0
     d70:	01380000 	teqeq	r8, r0
     d74:	01500000 	cmpeq	r0, r0
     d78:	00020000 	andeq	r0, r2, r0
     d7c:	00009f30 	andeq	r9, r0, r0, lsr pc
     d80:	00000000 	andeq	r0, r0, r0
     d84:	01400000 	mrseq	r0, SPSR
     d88:	01440000 	mrseq	r0, SPSR
     d8c:	00010000 	andeq	r0, r1, r0
     d90:	00014452 	andeq	r4, r1, r2, asr r4
     d94:	00015400 	andeq	r5, r1, r0, lsl #8
     d98:	72000300 	andvc	r0, r0, #0, 6
     d9c:	00009f7c 	andeq	r9, r0, ip, ror pc
     da0:	00000000 	andeq	r0, r0, r0
     da4:	01400000 	mrseq	r0, SPSR
     da8:	01480000 	mrseq	r0, SPSR
     dac:	00050000 	andeq	r0, r5, r0
     db0:	1a4f0070 	bne	13c0f78 <__standby_start+0x13c0f78>
     db4:	0001489f 	muleq	r1, pc, r8	; <UNPREDICTABLE>
     db8:	00016000 	andeq	r6, r1, r0
     dbc:	50000100 	andpl	r0, r0, r0, lsl #2
	...
     dcc:	00000004 	andeq	r0, r0, r4
     dd0:	007d0002 	rsbseq	r0, sp, r2
     dd4:	00000004 	andeq	r0, r0, r4
     dd8:	00000058 	andeq	r0, r0, r8, asr r0
     ddc:	107d0002 	rsbsne	r0, sp, r2
	...
     dec:	00000028 	andeq	r0, r0, r8, lsr #32
     df0:	28500001 	ldmdacs	r0, {r0}^
     df4:	34000000 	strcc	r0, [r0], #-0
     df8:	01000000 	tsteq	r0, r0
     dfc:	00345300 	eorseq	r5, r4, r0, lsl #6
     e00:	00480000 	subeq	r0, r8, r0
     e04:	00010000 	andeq	r0, r1, r0
     e08:	00004853 	andeq	r4, r0, r3, asr r8
     e0c:	00004c00 	andeq	r4, r0, r0, lsl #24
     e10:	50000100 	andpl	r0, r0, r0, lsl #2
     e14:	0000004c 	andeq	r0, r0, ip, asr #32
     e18:	00000050 	andeq	r0, r0, r0, asr r0
     e1c:	00530001 	subseq	r0, r3, r1
	...
     e28:	0c000000 	stceq	0, cr0, [r0], {-0}
     e2c:	01000000 	tsteq	r0, r0
     e30:	000c5100 	andeq	r5, ip, r0, lsl #2
     e34:	00140000 	andseq	r0, r4, r0
     e38:	00010000 	andeq	r0, r1, r0
     e3c:	00004852 	andeq	r4, r0, r2, asr r8
     e40:	00005000 	andeq	r5, r0, r0
     e44:	52000100 	andpl	r0, r0, #0, 2
	...
     e54:	0000000c 	andeq	r0, r0, ip
     e58:	0c510001 	mrrceq	0, 0, r0, r1, cr1
     e5c:	18000000 	stmdane	r0, {}	; <UNPREDICTABLE>
     e60:	01000000 	tsteq	r0, r0
     e64:	00185200 	andseq	r5, r8, r0, lsl #4
     e68:	00380000 	eorseq	r0, r8, r0
     e6c:	00010000 	andeq	r0, r1, r0
     e70:	00003852 	andeq	r3, r0, r2, asr r8
     e74:	00004400 	andeq	r4, r0, r0, lsl #8
     e78:	72000500 	andvc	r0, r0, #0, 10
     e7c:	9f253100 	svcls	0x00253100
     e80:	00000044 	andeq	r0, r0, r4, asr #32
     e84:	00000050 	andeq	r0, r0, r0, asr r0
     e88:	00520001 	subseq	r0, r2, r1
	...
     e94:	28000000 	stmdacs	r0, {}	; <UNPREDICTABLE>
     e98:	02000000 	andeq	r0, r0, #0
     e9c:	289f3000 	ldmcs	pc, {ip, sp}	; <UNPREDICTABLE>
     ea0:	30000000 	andcc	r0, r0, r0
     ea4:	01000000 	tsteq	r0, r0
     ea8:	00385000 	eorseq	r5, r8, r0
     eac:	00480000 	subeq	r0, r8, r0
     eb0:	00010000 	andeq	r0, r1, r0
     eb4:	00004850 	andeq	r4, r0, r0, asr r8
     eb8:	00005000 	andeq	r5, r0, r0
     ebc:	30000200 	andcc	r0, r0, r0, lsl #4
     ec0:	0000009f 	muleq	r0, pc, r0	; <UNPREDICTABLE>
	...
     ecc:	00001400 	andeq	r1, r0, r0, lsl #8
     ed0:	30000200 	andcc	r0, r0, r0, lsl #4
     ed4:	0000149f 	muleq	r0, pc, r4	; <UNPREDICTABLE>
     ed8:	00001c00 	andeq	r1, r0, r0, lsl #24
     edc:	51000100 	tstpl	r0, r0, lsl #2
     ee0:	0000001c 	andeq	r0, r0, ip, lsl r0
     ee4:	00000038 	andeq	r0, r0, r8, lsr r0
     ee8:	38510001 	ldmdacc	r1, {r0}^
     eec:	3c000000 	stccc	0, cr0, [r0], {-0}
     ef0:	03000000 	movweq	r0, #0
     ef4:	9f7f7100 	svcls	0x007f7100
     ef8:	0000003c 	andeq	r0, r0, ip, lsr r0
     efc:	00000048 	andeq	r0, r0, r8, asr #32
     f00:	48510001 	ldmdami	r1, {r0}^
     f04:	50000000 	andpl	r0, r0, r0
     f08:	02000000 	andeq	r0, r0, #0
     f0c:	009f3000 	addseq	r3, pc, r0
     f10:	00000000 	andeq	r0, r0, r0
     f14:	50000000 	andpl	r0, r0, r0
     f18:	60000000 	andvs	r0, r0, r0
     f1c:	01000000 	tsteq	r0, r0
     f20:	00605000 	rsbeq	r5, r0, r0
     f24:	00940000 	addseq	r0, r4, r0
     f28:	00010000 	andeq	r0, r1, r0
     f2c:	0000005c 	andeq	r0, r0, ip, asr r0
     f30:	00000000 	andeq	r0, r0, r0
     f34:	00006c00 	andeq	r6, r0, r0, lsl #24
     f38:	00008000 	andeq	r8, r0, r0
     f3c:	50000100 	andpl	r0, r0, r0, lsl #2
	...
     f48:	00000050 	andeq	r0, r0, r0, asr r0
     f4c:	00000060 	andeq	r0, r0, r0, rrx
     f50:	9f300002 	svcls	0x00300002
     f54:	00000060 	andeq	r0, r0, r0, rrx
     f58:	00000080 	andeq	r0, r0, r0, lsl #1
     f5c:	80530001 	subshi	r0, r3, r1
     f60:	94000000 	strls	r0, [r0], #-0
     f64:	01000000 	tsteq	r0, r0
     f68:	00005300 	andeq	r5, r0, r0, lsl #6
     f6c:	00000000 	andeq	r0, r0, r0
     f70:	00940000 	addseq	r0, r4, r0
     f74:	00980000 	addseq	r0, r8, r0
     f78:	00020000 	andeq	r0, r2, r0
     f7c:	0098007d 	addseq	r0, r8, sp, ror r0
     f80:	012c0000 	teqeq	ip, r0
     f84:	00020000 	andeq	r0, r2, r0
     f88:	0000107d 	andeq	r1, r0, sp, ror r0
     f8c:	00000000 	andeq	r0, r0, r0
     f90:	00b40000 	adcseq	r0, r4, r0
     f94:	00b80000 	adcseq	r0, r8, r0
     f98:	00020000 	andeq	r0, r2, r0
     f9c:	00c46f91 	smulleq	r6, r4, r1, pc	; <UNPREDICTABLE>
     fa0:	00cc0000 	sbceq	r0, ip, r0
     fa4:	00010000 	andeq	r0, r1, r0
     fa8:	0000cc53 	andeq	ip, r0, r3, asr ip
     fac:	0000ec00 	andeq	lr, r0, r0, lsl #24
     fb0:	91000200 	tstls	r0, r0, lsl #4
     fb4:	0000f86f 	andeq	pc, r0, pc, ror #16
     fb8:	00010000 	andeq	r0, r1, r0
     fbc:	53000100 	movwpl	r0, #256	; 0x100
     fc0:	00000100 	andeq	r0, r0, r0, lsl #2
     fc4:	0000012c 	andeq	r0, r0, ip, lsr #2
     fc8:	6f910002 	svcvs	0x00910002
	...
     fd4:	0000012c 	andeq	r0, r0, ip, lsr #2
     fd8:	00000130 	andeq	r0, r0, r0, lsr r1
     fdc:	007d0002 	rsbseq	r0, sp, r2
     fe0:	00000130 	andeq	r0, r0, r0, lsr r1
     fe4:	000001a4 	andeq	r0, r0, r4, lsr #3
     fe8:	107d0002 	rsbsne	r0, sp, r2
	...
     ff4:	00000144 	andeq	r0, r0, r4, asr #2
     ff8:	00000148 	andeq	r0, r0, r8, asr #2
     ffc:	6f910002 	svcvs	0x00910002
    1000:	00000154 	andeq	r0, r0, r4, asr r1
    1004:	0000015c 	andeq	r0, r0, ip, asr r1
    1008:	5c530001 	mrrcpl	0, 0, r0, r3, cr1
    100c:	7c000001 	stcvc	0, cr0, [r0], {1}
    1010:	02000001 	andeq	r0, r0, #1
    1014:	886f9100 	stmdahi	pc!, {r8, ip, pc}^	; <UNPREDICTABLE>
    1018:	90000001 	andls	r0, r0, r1
    101c:	01000001 	tsteq	r0, r1
    1020:	01905300 	orrseq	r5, r0, r0, lsl #6
    1024:	01a40000 			; <UNDEFINED> instruction: 0x01a40000
    1028:	00020000 	andeq	r0, r2, r0
    102c:	00006f91 	muleq	r0, r1, pc	; <UNPREDICTABLE>
    1030:	00000000 	andeq	r0, r0, r0
    1034:	01a40000 			; <UNDEFINED> instruction: 0x01a40000
    1038:	01a80000 			; <UNDEFINED> instruction: 0x01a80000
    103c:	00020000 	andeq	r0, r2, r0
    1040:	01a8007d 			; <UNDEFINED> instruction: 0x01a8007d
    1044:	02cc0000 	sbceq	r0, ip, #0
    1048:	00020000 	andeq	r0, r2, r0
    104c:	0000207d 	andeq	r2, r0, sp, ror r0
    1050:	00000000 	andeq	r0, r0, r0
    1054:	01a40000 			; <UNDEFINED> instruction: 0x01a40000
    1058:	01b30000 			; <UNDEFINED> instruction: 0x01b30000
    105c:	00010000 	andeq	r0, r1, r0
    1060:	0001b350 	andeq	fp, r1, r0, asr r3
    1064:	00025000 	andeq	r5, r2, r0
    1068:	55000100 	strpl	r0, [r0, #-256]	; 0xffffff00
    106c:	000002b4 			; <UNDEFINED> instruction: 0x000002b4
    1070:	000002c0 	andeq	r0, r0, r0, asr #5
    1074:	00550001 	subseq	r0, r5, r1
    1078:	00000000 	andeq	r0, r0, r0
    107c:	a4000000 	strge	r0, [r0], #-0
    1080:	b3000001 	movwlt	r0, #1
    1084:	01000001 	tsteq	r0, r1
    1088:	01b35100 			; <UNDEFINED> instruction: 0x01b35100
    108c:	02680000 	rsbeq	r0, r8, #0
    1090:	00010000 	andeq	r0, r1, r0
    1094:	0002b456 	andeq	fp, r2, r6, asr r4
    1098:	0002c000 	andeq	ip, r2, r0
    109c:	56000100 	strpl	r0, [r0], -r0, lsl #2
	...
    10a8:	000001a4 	andeq	r0, r0, r4, lsr #3
    10ac:	000001b4 			; <UNDEFINED> instruction: 0x000001b4
    10b0:	9f300002 	svcls	0x00300002
    10b4:	000001b4 			; <UNDEFINED> instruction: 0x000001b4
    10b8:	000001e8 	andeq	r0, r0, r8, ror #3
    10bc:	e8500001 	ldmda	r0, {r0}^
    10c0:	cc000001 	stcgt	0, cr0, [r0], {1}
    10c4:	01000002 	tsteq	r0, r2
    10c8:	00005400 	andeq	r5, r0, r0, lsl #8
    10cc:	00000000 	andeq	r0, r0, r0
    10d0:	02180000 	andseq	r0, r8, #0
    10d4:	02200000 	eoreq	r0, r0, #0
    10d8:	00010000 	andeq	r0, r1, r0
    10dc:	00023450 	andeq	r3, r2, r0, asr r4
    10e0:	00023800 	andeq	r3, r2, r0, lsl #16
    10e4:	50000100 	andpl	r0, r0, r0, lsl #2
    10e8:	00000248 	andeq	r0, r0, r8, asr #4
    10ec:	0000026c 	andeq	r0, r0, ip, ror #4
    10f0:	84500001 	ldrbhi	r0, [r0], #-1
    10f4:	9c000002 	stcls	0, cr0, [r0], {2}
    10f8:	01000002 	tsteq	r0, r2
    10fc:	00005600 	andeq	r5, r0, r0, lsl #12
    1100:	00000000 	andeq	r0, r0, r0
    1104:	02840000 	addeq	r0, r4, #0
    1108:	02940000 	addseq	r0, r4, #0
    110c:	00010000 	andeq	r0, r1, r0
    1110:	00000057 	andeq	r0, r0, r7, asr r0
    1114:	00000000 	andeq	r0, r0, r0
    1118:	00027800 	andeq	r7, r2, r0, lsl #16
    111c:	0002b400 	andeq	fp, r2, r0, lsl #8
    1120:	91000200 	tstls	r0, r0, lsl #4
    1124:	0002c05f 	andeq	ip, r2, pc, asr r0
    1128:	0002cc00 	andeq	ip, r2, r0, lsl #24
    112c:	91000200 	tstls	r0, r0, lsl #4
    1130:	0000005f 	andeq	r0, r0, pc, asr r0
    1134:	00000000 	andeq	r0, r0, r0
    1138:	0001bc00 	andeq	fp, r1, r0, lsl #24
    113c:	00026800 	andeq	r6, r2, r0, lsl #16
    1140:	56000100 	strpl	r0, [r0], -r0, lsl #2
    1144:	000002b4 			; <UNDEFINED> instruction: 0x000002b4
    1148:	000002c0 	andeq	r0, r0, r0, asr #5
    114c:	00560001 	subseq	r0, r6, r1
    1150:	00000000 	andeq	r0, r0, r0
    1154:	bc000000 	stclt	0, cr0, [r0], {-0}
    1158:	e8000001 	stmda	r0, {r0}
    115c:	01000001 	tsteq	r0, r1
    1160:	01e85000 	mvneq	r5, r0
    1164:	02c00000 	sbceq	r0, r0, #0
    1168:	00010000 	andeq	r0, r1, r0
    116c:	00000054 	andeq	r0, r0, r4, asr r0
    1170:	00000000 	andeq	r0, r0, r0
    1174:	0002cc00 	andeq	ip, r2, r0, lsl #24
    1178:	0002d000 	andeq	sp, r2, r0
    117c:	7d000200 	sfmvc	f0, 4, [r0, #-0]
    1180:	0002d000 	andeq	sp, r2, r0
    1184:	00034000 	andeq	r4, r3, r0
    1188:	7d000200 	sfmvc	f0, 4, [r0, #-0]
    118c:	00000018 	andeq	r0, r0, r8, lsl r0
    1190:	00000000 	andeq	r0, r0, r0
    1194:	0002cc00 	andeq	ip, r2, r0, lsl #24
    1198:	0002d700 	andeq	sp, r2, r0, lsl #14
    119c:	50000100 	andpl	r0, r0, r0, lsl #2
    11a0:	000002d7 	ldrdeq	r0, [r0], -r7
    11a4:	00000340 	andeq	r0, r0, r0, asr #6
    11a8:	00550001 	subseq	r0, r5, r1
    11ac:	00000000 	andeq	r0, r0, r0
    11b0:	cc000000 	stcgt	0, cr0, [r0], {-0}
    11b4:	d8000002 	stmdale	r0, {r1}
    11b8:	02000002 	andeq	r0, r0, #2
    11bc:	d89f3000 	ldmle	pc, {ip, sp}	; <UNPREDICTABLE>
    11c0:	e0000002 	and	r0, r0, r2
    11c4:	01000002 	tsteq	r0, r2
    11c8:	02e05000 	rsceq	r5, r0, #0
    11cc:	03400000 	movteq	r0, #0
    11d0:	00010000 	andeq	r0, r1, r0
    11d4:	00000054 	andeq	r0, r0, r4, asr r0
    11d8:	00000000 	andeq	r0, r0, r0
    11dc:	00031000 	andeq	r1, r3, r0
    11e0:	00031400 	andeq	r1, r3, r0, lsl #8
    11e4:	91000200 	tstls	r0, r0, lsl #4
    11e8:	00031c67 	andeq	r1, r3, r7, ror #24
    11ec:	00032c00 	andeq	r2, r3, r0, lsl #24
    11f0:	51000100 	tstpl	r0, r0, lsl #2
    11f4:	00000330 	andeq	r0, r0, r0, lsr r3
    11f8:	00000338 	andeq	r0, r0, r8, lsr r3
    11fc:	00530001 	subseq	r0, r3, r1
	...
    1208:	04000000 	streq	r0, [r0], #-0
    120c:	02000000 	andeq	r0, r0, #0
    1210:	04007d00 	streq	r7, [r0], #-3328	; 0xfffff300
    1214:	88000000 	stmdahi	r0, {}	; <UNPREDICTABLE>
    1218:	02000000 	andeq	r0, r0, #0
    121c:	00107d00 	andseq	r7, r0, r0, lsl #26
    1220:	00000000 	andeq	r0, r0, r0
    1224:	d4000000 	strle	r0, [r0], #-0
    1228:	e0000000 	and	r0, r0, r0
    122c:	01000000 	tsteq	r0, r0
    1230:	00005000 	andeq	r5, r0, r0
    1234:	00000000 	andeq	r0, r0, r0
    1238:	01700000 	cmneq	r0, r0
    123c:	01780000 	cmneq	r8, r0
    1240:	00010000 	andeq	r0, r1, r0
    1244:	00000050 	andeq	r0, r0, r0, asr r0
    1248:	00000000 	andeq	r0, r0, r0
    124c:	0001a000 	andeq	sl, r1, r0
    1250:	0001a400 	andeq	sl, r1, r0, lsl #8
    1254:	7d000200 	sfmvc	f0, 4, [r0, #-0]
    1258:	0001a400 	andeq	sl, r1, r0, lsl #8
    125c:	0001f000 	andeq	pc, r1, r0
    1260:	7d000200 	sfmvc	f0, 4, [r0, #-0]
    1264:	00000008 	andeq	r0, r0, r8
    1268:	00000000 	andeq	r0, r0, r0
    126c:	0001a000 	andeq	sl, r1, r0
    1270:	0001ac00 	andeq	sl, r1, r0, lsl #24
    1274:	50000100 	andpl	r0, r0, r0, lsl #2
    1278:	000001ac 	andeq	r0, r0, ip, lsr #3
    127c:	000001bc 			; <UNDEFINED> instruction: 0x000001bc
    1280:	bc500001 	mrrclt	0, 0, r0, r0, cr1	; <UNPREDICTABLE>
    1284:	d7000001 	strle	r0, [r0, -r1]
    1288:	08000001 	stmdaeq	r0, {r0}
    128c:	20080300 	andcs	r0, r8, r0, lsl #6
    1290:	2306f000 	movwcs	pc, #24576	; 0x6000	; <UNPREDICTABLE>
    1294:	00000024 	andeq	r0, r0, r4, lsr #32
	...
    12a0:	00001000 	andeq	r1, r0, r0
    12a4:	50000100 	andpl	r0, r0, r0, lsl #2
	...
    12b0:	00000048 	andeq	r0, r0, r8, asr #32
    12b4:	0000004c 	andeq	r0, r0, ip, asr #32
    12b8:	007d0002 	rsbseq	r0, sp, r2
    12bc:	0000004c 	andeq	r0, r0, ip, asr #32
    12c0:	00000090 	muleq	r0, r0, r0
    12c4:	087d0002 	ldmdaeq	sp!, {r1}^
	...
    12d0:	00000090 	muleq	r0, r0, r0
    12d4:	00000098 	muleq	r0, r8, r0
    12d8:	007d0002 	rsbseq	r0, sp, r2
    12dc:	00000098 	muleq	r0, r8, r0
    12e0:	00000338 	andeq	r0, r0, r8, lsr r3
    12e4:	0c7d0002 	ldcleq	0, cr0, [sp], #-8
	...
    12f0:	00000090 	muleq	r0, r0, r0
    12f4:	000001e4 	andeq	r0, r0, r4, ror #3
    12f8:	00500001 	subseq	r0, r0, r1
    12fc:	00000000 	andeq	r0, r0, r0
    1300:	90000000 	andls	r0, r0, r0
    1304:	f8000000 			; <UNDEFINED> instruction: 0xf8000000
    1308:	01000000 	tsteq	r0, r0
    130c:	00005100 	andeq	r5, r0, r0, lsl #2
    1310:	00000000 	andeq	r0, r0, r0
    1314:	00900000 	addseq	r0, r0, r0
    1318:	01440000 	mrseq	r0, SPSR
    131c:	00010000 	andeq	r0, r1, r0
    1320:	00000052 	andeq	r0, r0, r2, asr r0
    1324:	00000000 	andeq	r0, r0, r0
    1328:	00009000 	andeq	r9, r0, r0
    132c:	00018c00 	andeq	r8, r1, r0, lsl #24
    1330:	53000100 	movwpl	r0, #256	; 0x100
    1334:	000001d0 	ldrdeq	r0, [r0], -r0	; <UNPREDICTABLE>
    1338:	00000298 	muleq	r0, r8, r2
    133c:	00530001 	subseq	r0, r3, r1
    1340:	00000000 	andeq	r0, r0, r0
    1344:	a8000000 	stmdage	r0, {}	; <UNPREDICTABLE>
    1348:	ac000000 	stcge	0, cr0, [r0], {-0}
    134c:	01000000 	tsteq	r0, r0
    1350:	00e85400 	rsceq	r5, r8, r0, lsl #8
    1354:	00ec0000 	rsceq	r0, ip, r0
    1358:	00010000 	andeq	r0, r1, r0
    135c:	00013054 	andeq	r3, r1, r4, asr r0
    1360:	00013400 	andeq	r3, r1, r0, lsl #8
    1364:	54000100 	strpl	r0, [r0], #-256	; 0xffffff00
    1368:	00000174 	andeq	r0, r0, r4, ror r1
    136c:	00000178 	andeq	r0, r0, r8, ror r1
    1370:	c4520001 	ldrbgt	r0, [r2], #-1
    1374:	c8000001 	stmdagt	r0, {r0}
    1378:	01000001 	tsteq	r0, r1
    137c:	02085300 	andeq	r5, r8, #0, 6
    1380:	020c0000 	andeq	r0, ip, #0
    1384:	00010000 	andeq	r0, r1, r0
    1388:	00025052 	andeq	r5, r2, r2, asr r0
    138c:	00025400 	andeq	r5, r2, r0, lsl #8
    1390:	52000100 	andpl	r0, r0, #0, 2
    1394:	00000298 	muleq	r0, r8, r2
    1398:	0000029c 	muleq	r0, ip, r2
    139c:	00530001 	subseq	r0, r3, r1
    13a0:	00000000 	andeq	r0, r0, r0
    13a4:	c0000000 	andgt	r0, r0, r0
    13a8:	c4000000 	strgt	r0, [r0], #-0
    13ac:	04000000 	streq	r0, [r0], #-0
    13b0:	02ff0a00 	rscseq	r0, pc, #0, 20
    13b4:	0000c49f 	muleq	r0, pc, r4	; <UNPREDICTABLE>
    13b8:	0000e000 	andeq	lr, r0, r0
    13bc:	54000100 	strpl	r0, [r0], #-256	; 0xffffff00
    13c0:	000000e0 	andeq	r0, r0, r0, ror #1
    13c4:	000000e4 	andeq	r0, r0, r4, ror #1
    13c8:	01740003 	cmneq	r4, r3
    13cc:	0001089f 	muleq	r1, pc, r8	; <UNPREDICTABLE>
    13d0:	00010c00 	andeq	r0, r1, r0, lsl #24
    13d4:	0a000400 	beq	23dc <__standby_start+0x23dc>
    13d8:	0c9f02ff 	lfmeq	f0, 4, [pc], {255}	; 0xff
    13dc:	28000001 	stmdacs	r0, {r0}
    13e0:	01000001 	tsteq	r0, r1
    13e4:	01285400 	teqeq	r8, r0, lsl #8
    13e8:	012c0000 	teqeq	ip, r0
    13ec:	00030000 	andeq	r0, r3, r0
    13f0:	4c9f0174 	ldfmis	f0, [pc], {116}	; 0x74
    13f4:	50000001 	andpl	r0, r0, r1
    13f8:	04000001 	streq	r0, [r0], #-1
    13fc:	02ff0a00 	rscseq	r0, pc, #0, 20
    1400:	0001509f 	muleq	r1, pc, r0	; <UNPREDICTABLE>
    1404:	00016c00 	andeq	r6, r1, r0, lsl #24
    1408:	52000100 	andpl	r0, r0, #0, 2
    140c:	0000016c 	andeq	r0, r0, ip, ror #2
    1410:	00000170 	andeq	r0, r0, r0, ror r1
    1414:	01720003 	cmneq	r2, r3
    1418:	00019c9f 	muleq	r1, pc, ip	; <UNPREDICTABLE>
    141c:	0001a000 	andeq	sl, r1, r0
    1420:	0a000400 	beq	2428 <__standby_start+0x2428>
    1424:	a09f02ff 			; <UNDEFINED> instruction: 0xa09f02ff
    1428:	bc000001 	stclt	0, cr0, [r0], {1}
    142c:	01000001 	tsteq	r0, r1
    1430:	01bc5300 			; <UNDEFINED> instruction: 0x01bc5300
    1434:	01c00000 	biceq	r0, r0, r0
    1438:	00030000 	andeq	r0, r3, r0
    143c:	e09f0173 	adds	r0, pc, r3, ror r1	; <UNPREDICTABLE>
    1440:	e4000001 	str	r0, [r0], #-1
    1444:	04000001 	streq	r0, [r0], #-1
    1448:	02ff0a00 	rscseq	r0, pc, #0, 20
    144c:	0001e49f 	muleq	r1, pc, r4	; <UNPREDICTABLE>
    1450:	00020000 	andeq	r0, r2, r0
    1454:	52000100 	andpl	r0, r0, #0, 2
    1458:	00000200 	andeq	r0, r0, r0, lsl #4
    145c:	00000204 	andeq	r0, r0, r4, lsl #4
    1460:	01720003 	cmneq	r2, r3
    1464:	0002289f 	muleq	r2, pc, r8	; <UNPREDICTABLE>
    1468:	00022c00 	andeq	r2, r2, r0, lsl #24
    146c:	0a000400 	beq	2474 <__standby_start+0x2474>
    1470:	2c9f02ff 	lfmcs	f0, 4, [pc], {255}	; 0xff
    1474:	48000002 	stmdami	r0, {r1}
    1478:	01000002 	tsteq	r0, r2
    147c:	02485200 	subeq	r5, r8, #0, 4
    1480:	024c0000 	subeq	r0, ip, #0
    1484:	00030000 	andeq	r0, r3, r0
    1488:	689f0172 	ldmvs	pc, {r1, r4, r5, r6, r8}	; <UNPREDICTABLE>
    148c:	6c000002 	stcvs	0, cr0, [r0], {2}
    1490:	04000002 	streq	r0, [r0], #-2
    1494:	02ff0a00 	rscseq	r0, pc, #0, 20
    1498:	00026c9f 	muleq	r2, pc, ip	; <UNPREDICTABLE>
    149c:	00028800 	andeq	r8, r2, r0, lsl #16
    14a0:	52000100 	andpl	r0, r0, #0, 2
    14a4:	00000288 	andeq	r0, r0, r8, lsl #5
    14a8:	0000028c 	andeq	r0, r0, ip, lsl #5
    14ac:	01720003 	cmneq	r2, r3
    14b0:	0000009f 	muleq	r0, pc, r0	; <UNPREDICTABLE>
    14b4:	00000000 	andeq	r0, r0, r0
    14b8:	00009000 	andeq	r9, r0, r0
    14bc:	0002b000 	andeq	fp, r2, r0
    14c0:	09000300 	stmdbeq	r0, {r8, r9}
    14c4:	02b09fff 	adcseq	r9, r0, #1020	; 0x3fc
    14c8:	03380000 	teqeq	r8, #0
    14cc:	00010000 	andeq	r0, r1, r0
    14d0:	00000050 	andeq	r0, r0, r0, asr r0
    14d4:	00000000 	andeq	r0, r0, r0
    14d8:	0002b000 	andeq	fp, r2, r0
    14dc:	0002d000 	andeq	sp, r2, r0
    14e0:	0a000400 	beq	24e8 <__standby_start+0x24e8>
    14e4:	d09f02ff 			; <UNDEFINED> instruction: 0xd09f02ff
    14e8:	e4000002 	str	r0, [r0], #-2
    14ec:	01000002 	tsteq	r0, r2
    14f0:	02ec5200 	rsceq	r5, ip, #0, 4
    14f4:	02f00000 	rscseq	r0, r0, #0
    14f8:	00010000 	andeq	r0, r1, r0
    14fc:	0002f052 	andeq	pc, r2, r2, asr r0	; <UNPREDICTABLE>
    1500:	0002f800 	andeq	pc, r2, r0, lsl #16
    1504:	72000300 	andvc	r0, r0, #0, 6
    1508:	02f89f01 	rscseq	r9, r8, #1, 30
    150c:	03140000 	tsteq	r4, #0
    1510:	00010000 	andeq	r0, r1, r0
    1514:	00031452 	andeq	r1, r3, r2, asr r4
    1518:	00031800 	andeq	r1, r3, r0, lsl #16
    151c:	72000300 	andvc	r0, r0, #0, 6
    1520:	00009f01 	andeq	r9, r0, r1, lsl #30
    1524:	00000000 	andeq	r0, r0, r0
    1528:	00100000 	andseq	r0, r0, r0
    152c:	00140000 	andseq	r0, r4, r0
    1530:	00010000 	andeq	r0, r1, r0
    1534:	00000050 	andeq	r0, r0, r0, asr r0
    1538:	00000000 	andeq	r0, r0, r0
	...

Disassembly of section .debug_pubnames:

00000000 <.debug_pubnames>:
   0:	00000023 	andeq	r0, r0, r3, lsr #32
   4:	00000002 	andeq	r0, r0, r2
   8:	03870000 	orreq	r0, r7, #0
   c:	01e80000 	mvneq	r0, r0
  10:	616d0000 	cmnvs	sp, r0
  14:	40006e69 	andmi	r6, r0, r9, ror #28
  18:	70000003 	andvc	r0, r0, r3
  1c:	6e695f6d 	cdpvs	15, 6, cr5, cr9, cr13, {3}
  20:	00006f66 	andeq	r6, r0, r6, ror #30
  24:	34000000 	strcc	r0, [r0], #-0
  28:	02000000 	andeq	r0, r0, #0
  2c:	00038700 	andeq	r8, r3, r0, lsl #14
  30:	00011b00 	andeq	r1, r1, r0, lsl #22
  34:	00006800 	andeq	r6, r0, r0, lsl #16
  38:	61747300 	cmnvs	r4, r0, lsl #6
  3c:	7962646e 	stmdbvc	r2!, {r1, r2, r3, r5, r6, sl, sp, lr}^
  40:	6d656d5f 	stclvs	13, cr6, [r5, #-380]!	; 0xfffffe84
  44:	00797063 	rsbseq	r7, r9, r3, rrx
  48:	000000d9 	ldrdeq	r0, [r0], -r9
  4c:	6e617473 	mcrvs	4, 3, r7, cr1, cr3, {3}
  50:	5f796264 	svcpl	0x00796264
  54:	6c65646d 	cfstrdvs	mvd6, [r5], #-436	; 0xfffffe4c
  58:	00007961 	andeq	r7, r0, r1, ror #18
  5c:	b4000000 	strlt	r0, [r0], #-0
  60:	02000001 	andeq	r0, r0, #1
  64:	00051900 	andeq	r1, r5, r0, lsl #18
  68:	00232000 	eoreq	r2, r3, r0
  6c:	00210200 	eoreq	r0, r1, r0, lsl #4
  70:	61747300 	cmnvs	r4, r0, lsl #6
  74:	7962646e 	stmdbvc	r2!, {r1, r2, r3, r5, r6, sl, sp, lr}^
  78:	6b6c635f 	blvs	1b18dfc <__standby_start+0x1b18dfc>
  7c:	696e695f 	stmdbvs	lr!, {r0, r1, r2, r3, r4, r6, r8, fp, sp, lr}^
  80:	211a0074 	tstcs	sl, r4, ror r0
  84:	74730000 	ldrbtvc	r0, [r3], #-0
  88:	62646e61 	rsbvs	r6, r4, #1552	; 0x610
  8c:	6c635f79 	stclvs	15, cr5, [r3], #-484	; 0xfffffe1c
  90:	78655f6b 	stmdavc	r5!, {r0, r1, r3, r5, r6, r8, r9, sl, fp, ip, lr}^
  94:	32007469 	andcc	r7, r0, #1761607680	; 0x69000000
  98:	73000021 	movwvc	r0, #33	; 0x21
  9c:	646e6174 	strbtvs	r6, [lr], #-372	; 0xfffffe8c
  a0:	635f7962 	cmpvs	pc, #1605632	; 0x188000
  a4:	635f6b6c 	cmpvs	pc, #108, 22	; 0x1b000
  a8:	3265726f 	rsbcc	r7, r5, #-268435450	; 0xf0000006
  ac:	63736f6c 	cmnvs	r3, #108, 30	; 0x1b0
  b0:	00214a00 	eoreq	r4, r1, r0, lsl #20
  b4:	61747300 	cmnvs	r4, r0, lsl #6
  b8:	7962646e 	stmdbvc	r2!, {r1, r2, r3, r5, r6, sl, sp, lr}^
  bc:	6b6c635f 	blvs	1b18e40 <__standby_start+0x1b18e40>
  c0:	726f635f 	rsbvc	r6, pc, #2080374785	; 0x7c000001
  c4:	6f683265 	svcvs	0x00683265
  c8:	62006373 	andvs	r6, r0, #-872415231	; 0xcc000001
  cc:	73000021 	movwvc	r0, #33	; 0x21
  d0:	646e6174 	strbtvs	r6, [lr], #-372	; 0xfffffe8c
  d4:	635f7962 	cmpvs	pc, #1605632	; 0x188000
  d8:	635f6b6c 	cmpvs	pc, #108, 22	; 0x1b000
  dc:	3265726f 	rsbcc	r7, r5, #-268435450	; 0xf0000006
  e0:	006c6c70 	rsbeq	r6, ip, r0, ror ip
  e4:	0000217a 	andeq	r2, r0, sl, ror r1
  e8:	6e617473 	mcrvs	4, 3, r7, cr1, cr3, {3}
  ec:	5f796264 	svcpl	0x00796264
  f0:	5f6b6c63 	svcpl	0x006b6c63
  f4:	646c6c70 	strbtvs	r6, [ip], #-3184	; 0xfffff390
  f8:	62617369 	rsbvs	r7, r1, #-1543503871	; 0xa4000001
  fc:	9200656c 	andls	r6, r0, #108, 10	; 0x1b000000
 100:	73000021 	movwvc	r0, #33	; 0x21
 104:	646e6174 	strbtvs	r6, [lr], #-372	; 0xfffffe8c
 108:	635f7962 	cmpvs	pc, #1605632	; 0x188000
 10c:	705f6b6c 	subsvc	r6, pc, ip, ror #22
 110:	6e656c6c 	cdpvs	12, 6, cr6, cr5, cr12, {3}
 114:	656c6261 	strbvs	r6, [ip, #-609]!	; 0xfffffd9f
 118:	0021aa00 	eoreq	sl, r1, r0, lsl #20
 11c:	61747300 	cmnvs	r4, r0, lsl #6
 120:	7962646e 	stmdbvc	r2!, {r1, r2, r3, r5, r6, sl, sp, lr}^
 124:	6b6c635f 	blvs	1b18ea8 <__standby_start+0x1b18ea8>
 128:	736f685f 	cmnvc	pc, #6225920	; 0x5f0000
 12c:	73696463 	cmnvc	r9, #1660944384	; 0x63000000
 130:	656c6261 	strbvs	r6, [ip, #-609]!	; 0xfffffd9f
 134:	0021c200 	eoreq	ip, r1, r0, lsl #4
 138:	61747300 	cmnvs	r4, r0, lsl #6
 13c:	7962646e 	stmdbvc	r2!, {r1, r2, r3, r5, r6, sl, sp, lr}^
 140:	6b6c635f 	blvs	1b18ec4 <__standby_start+0x1b18ec4>
 144:	736f685f 	cmnvc	pc, #6225920	; 0x5f0000
 148:	616e6563 	cmnvs	lr, r3, ror #10
 14c:	00656c62 	rsbeq	r6, r5, r2, ror #24
 150:	000021da 	ldrdeq	r2, [r0], -sl
 154:	6e617473 	mcrvs	4, 3, r7, cr1, cr3, {3}
 158:	5f796264 	svcpl	0x00796264
 15c:	5f6b6c63 	svcpl	0x006b6c63
 160:	646f646c 	strbtvs	r6, [pc], #-1132	; 168 <__standby_start+0x168>
 164:	62617369 	rsbvs	r7, r1, #-1543503871	; 0xa4000001
 168:	f300656c 	vrshl.u8	q3, q14, q0
 16c:	73000021 	movwvc	r0, #33	; 0x21
 170:	646e6174 	strbtvs	r6, [lr], #-372	; 0xfffffe8c
 174:	635f7962 	cmpvs	pc, #1605632	; 0x188000
 178:	6c5f6b6c 	mrrcvs	11, 6, r6, pc, cr12	; <UNPREDICTABLE>
 17c:	6e656f64 	cdpvs	15, 6, cr6, cr5, cr4, {3}
 180:	656c6261 	strbvs	r6, [ip, #-609]!	; 0xfffffd9f
 184:	00220c00 	eoreq	r0, r2, r0, lsl #24
 188:	61747300 	cmnvs	r4, r0, lsl #6
 18c:	7962646e 	stmdbvc	r2!, {r1, r2, r3, r5, r6, sl, sp, lr}^
 190:	6b6c635f 	blvs	1b18f14 <__standby_start+0x1b18f14>
 194:	7465735f 	strbtvc	r7, [r5], #-863	; 0xfffffca1
 198:	00766964 	rsbseq	r6, r6, r4, ror #18
 19c:	00002240 	andeq	r2, r0, r0, asr #4
 1a0:	6e617473 	mcrvs	4, 3, r7, cr1, cr3, {3}
 1a4:	5f796264 	svcpl	0x00796264
 1a8:	5f6b6c63 	svcpl	0x006b6c63
 1ac:	64746567 	ldrbtvs	r6, [r4], #-1383	; 0xfffffa99
 1b0:	6e007669 	cfmadd32vs	mvax3, mvfx7, mvfx0, mvfx9
 1b4:	73000022 	movwvc	r0, #34	; 0x22
 1b8:	646e6174 	strbtvs	r6, [lr], #-372	; 0xfffffe8c
 1bc:	635f7962 	cmpvs	pc, #1605632	; 0x188000
 1c0:	645f6b6c 	ldrbvs	r6, [pc], #-2924	; 1c8 <__standby_start+0x1c8>
 1c4:	676d6172 			; <UNDEFINED> instruction: 0x676d6172
 1c8:	6e697461 	cdpvs	4, 6, cr7, cr9, cr1, {3}
 1cc:	22960067 	addscs	r0, r6, #103	; 0x67
 1d0:	74730000 	ldrbtvc	r0, [r3], #-0
 1d4:	62646e61 	rsbvs	r6, r4, #1552	; 0x610
 1d8:	6c635f79 	stclvs	15, cr5, [r3], #-484	; 0xfffffe1c
 1dc:	70615f6b 	rsbvc	r5, r1, fp, ror #30
 1e0:	6f6c3262 	svcvs	0x006c3262
 1e4:	af006373 	svcge	0x00006373
 1e8:	73000022 	movwvc	r0, #34	; 0x22
 1ec:	646e6174 	strbtvs	r6, [lr], #-372	; 0xfffffe8c
 1f0:	635f7962 	cmpvs	pc, #1605632	; 0x188000
 1f4:	615f6b6c 	cmpvs	pc, ip, ror #22
 1f8:	68326270 	ldmdavs	r2!, {r4, r5, r6, r9, sp, lr}
 1fc:	0063736f 	rsbeq	r7, r3, pc, ror #6
 200:	0000230d 	andeq	r2, r0, sp, lsl #6
 204:	5f757063 	svcpl	0x00757063
 208:	6c5f736d 	mrrcvs	3, 6, r7, pc, cr13	; <UNPREDICTABLE>
 20c:	63706f6f 	cmnvs	r0, #444	; 0x1bc
 210:	0000746e 	andeq	r7, r0, lr, ror #8
 214:	1f000000 	svcne	0x00000000
 218:	02000002 	andeq	r0, r0, #2
 21c:	00283900 	eoreq	r3, r8, r0, lsl #18
 220:	00053f00 	andeq	r3, r5, r0, lsl #30
 224:	00008800 	andeq	r8, r0, r0, lsl #16
 228:	74636d00 	strbtvc	r6, [r3], #-3328	; 0xfffff300
 22c:	72705f6c 	rsbsvc	r5, r0, #108, 30	; 0x1b0
 230:	61686365 	cmnvs	r8, r5, ror #6
 234:	5f656772 	svcpl	0x00656772
 238:	006c6c61 	rsbeq	r6, ip, r1, ror #24
 23c:	000000b9 	strheq	r0, [r0], -r9
 240:	6c74636d 	ldclvs	3, cr6, [r4], #-436	; 0xfffffe4c
 244:	646f6d5f 	strbtvs	r6, [pc], #-3423	; 24c <__standby_start+0x24c>
 248:	78655f65 	stmdavc	r5!, {r0, r2, r5, r6, r8, r9, sl, fp, ip, lr}^
 24c:	ea007469 	b	1d3f8 <__standby_start+0x1d3f8>
 250:	44000000 	strmi	r0, [r0], #-0
 254:	434d4152 	movtmi	r4, #53586	; 0xd152
 258:	746e655f 	strbtvc	r6, [lr], #-1375	; 0xfffffaa1
 25c:	705f7265 	subsvc	r7, pc, r5, ror #4
 260:	7265776f 	rsbvc	r7, r5, #29097984	; 0x1bc0000
 264:	776f645f 			; <UNDEFINED> instruction: 0x776f645f
 268:	011b006e 	tsteq	fp, lr, rrx
 26c:	52440000 	subpl	r0, r4, #0
 270:	5f434d41 	svcpl	0x00434d41
 274:	74697865 	strbtvc	r7, [r9], #-2149	; 0xfffff79b
 278:	776f705f 			; <UNDEFINED> instruction: 0x776f705f
 27c:	645f7265 	ldrbvs	r7, [pc], #-613	; 284 <__standby_start+0x284>
 280:	006e776f 	rsbeq	r7, lr, pc, ror #14
 284:	0000012f 	andeq	r0, r0, pc, lsr #2
 288:	4d415244 	sfmmi	f5, 2, [r1, #-272]	; 0xfffffef0
 28c:	6f685f43 	svcvs	0x00685f43
 290:	6f707473 	svcvs	0x00707473
 294:	6f5f7472 	svcvs	0x005f7472
 298:	666f5f6e 	strbtvs	r5, [pc], -lr, ror #30
 29c:	01700066 	cmneq	r0, r6, rrx
 2a0:	52440000 	subpl	r0, r4, #0
 2a4:	5f434d41 	svcpl	0x00434d41
 2a8:	74697865 	strbtvc	r7, [r9], #-2149	; 0xfffff79b
 2ac:	6c65735f 	stclvs	3, cr7, [r5], #-380	; 0xfffffe84
 2b0:	66657266 	strbtvs	r7, [r5], -r6, ror #4
 2b4:	68736572 	ldmdavs	r3!, {r1, r4, r5, r6, r8, sl, sp, lr}^
 2b8:	0001a600 	andeq	sl, r1, r0, lsl #12
 2bc:	41524400 	cmpmi	r2, r0, lsl #8
 2c0:	655f434d 	ldrbvs	r4, [pc, #-845]	; ffffff7b <__bss_end+0xfffdf33>
 2c4:	7265746e 	rsbvc	r7, r5, #1845493760	; 0x6e000000
 2c8:	6c65735f 	stclvs	3, cr7, [r5], #-380	; 0xfffffe84
 2cc:	66657266 	strbtvs	r7, [r5], -r6, ror #4
 2d0:	68736572 	ldmdavs	r3!, {r1, r4, r5, r6, r8, sl, sp, lr}^
 2d4:	0001dc00 	andeq	sp, r1, r0, lsl #24
 2d8:	41524400 	cmpmi	r2, r0, lsl #8
 2dc:	685f434d 	ldmdavs	pc, {r0, r2, r3, r6, r8, r9, lr}^	; <UNPREDICTABLE>
 2e0:	7074736f 	rsbsvc	r7, r4, pc, ror #6
 2e4:	5f74726f 	svcpl	0x0074726f
 2e8:	63656863 	cmnvs	r5, #6488064	; 0x630000
 2ec:	68615f6b 	stmdavs	r1!, {r0, r1, r3, r5, r6, r8, r9, sl, fp, ip, lr}^
 2f0:	69665f62 	stmdbvs	r6!, {r1, r5, r6, r8, r9, sl, fp, ip, lr}^
 2f4:	735f6f66 	cmpvc	pc, #408	; 0x198
 2f8:	75746174 	ldrbvc	r6, [r4, #-372]!	; 0xfffffe8c
 2fc:	02150073 	andseq	r0, r5, #115	; 0x73
 300:	52440000 	subpl	r0, r4, #0
 304:	5f434d41 	svcpl	0x00434d41
 308:	74736f68 	ldrbtvc	r6, [r3], #-3944	; 0xfffff098
 30c:	74726f70 	ldrbtvc	r6, [r2], #-3952	; 0xfffff090
 310:	7465735f 	strbtvc	r7, [r5], #-863	; 0xfffffca1
 314:	78007075 	stmdavc	r0, {r0, r2, r4, r5, r6, ip, sp, lr}
 318:	6d000002 	stcvs	0, cr0, [r0, #-8]
 31c:	5f6c7463 	svcpl	0x006c7463
 320:	5f626861 	svcpl	0x00626861
 324:	65736572 	ldrbvs	r6, [r3, #-1394]!	; 0xfffffa8e
 328:	02ae0074 	adceq	r0, lr, #116	; 0x74
 32c:	52440000 	subpl	r0, r4, #0
 330:	5f434d41 	svcpl	0x00434d41
 334:	72746572 	rsbsvc	r6, r4, #478150656	; 0x1c800000
 338:	696e6961 	stmdbvs	lr!, {r0, r5, r6, r8, fp, sp, lr}^
 33c:	db00676e 	blle	1a0fc <__standby_start+0x1a0fc>
 340:	64000003 	strvs	r0, [r0], #-3
 344:	5f6d6172 	svcpl	0x006d6172
 348:	65776f70 	ldrbvs	r6, [r7, #-3952]!	; 0xfffff090
 34c:	61735f72 	cmnvs	r3, r2, ror pc
 350:	705f6576 	subsvc	r6, pc, r6, ror r5	; <UNPREDICTABLE>
 354:	65636f72 	strbvs	r6, [r3, #-3954]!	; 0xfffff08e
 358:	02007373 	andeq	r7, r0, #-872415231	; 0xcc000001
 35c:	64000004 	strvs	r0, [r0], #-4
 360:	5f6d6172 	svcpl	0x006d6172
 364:	65776f70 	ldrbvs	r6, [r7, #-3952]!	; 0xfffff090
 368:	70755f72 	rsbsvc	r5, r5, r2, ror pc
 36c:	6f72705f 	svcvs	0x0072705f
 370:	73736563 	cmnvc	r3, #415236096	; 0x18c00000
 374:	00043b00 	andeq	r3, r4, r0, lsl #22
 378:	61726400 	cmnvs	r2, r0, lsl #8
 37c:	6e655f6d 	cdpvs	15, 6, cr5, cr5, cr13, {3}
 380:	5f726574 	svcpl	0x00726574
 384:	666c6573 			; <UNDEFINED> instruction: 0x666c6573
 388:	72666572 	rsbvc	r6, r6, #478150656	; 0x1c800000
 38c:	00687365 	rsbeq	r7, r8, r5, ror #6
 390:	00000450 	andeq	r0, r0, r0, asr r4
 394:	6d617264 	sfmvs	f7, 2, [r1, #-400]!	; 0xfffffe70
 398:	6978655f 	ldmdbvs	r8!, {r0, r1, r2, r3, r4, r6, r8, sl, sp, lr}^
 39c:	65735f74 	ldrbvs	r5, [r3, #-3956]!	; 0xfffff08c
 3a0:	6572666c 	ldrbvs	r6, [r2, #-1644]!	; 0xfffff994
 3a4:	73657266 	cmnvc	r5, #1610612742	; 0x60000006
 3a8:	04650068 	strbteq	r0, [r5], #-104	; 0xffffff98
 3ac:	72640000 	rsbvc	r0, r4, #0
 3b0:	655f6d61 	ldrbvs	r6, [pc, #-3425]	; fffff657 <__bss_end+0xfffd60f>
 3b4:	7265746e 	rsbvc	r7, r5, #1845493760	; 0x6e000000
 3b8:	776f705f 			; <UNDEFINED> instruction: 0x776f705f
 3bc:	645f7265 	ldrbvs	r7, [pc], #-613	; 3c4 <__standby_start+0x3c4>
 3c0:	006e776f 	rsbeq	r7, lr, pc, ror #14
 3c4:	0000047a 	andeq	r0, r0, sl, ror r4
 3c8:	6d617264 	sfmvs	f7, 2, [r1, #-400]!	; 0xfffffe70
 3cc:	6978655f 	ldmdbvs	r8!, {r0, r1, r2, r3, r4, r6, r8, sl, sp, lr}^
 3d0:	6f705f74 	svcvs	0x00705f74
 3d4:	5f726577 	svcpl	0x00726577
 3d8:	6e776f64 	cdpvs	15, 7, cr6, cr7, cr4, {3}
 3dc:	00048f00 	andeq	r8, r4, r0, lsl #30
 3e0:	61726400 	cmnvs	r2, r0, lsl #8
 3e4:	6f685f6d 	svcvs	0x00685f6d
 3e8:	6f707473 	svcvs	0x00707473
 3ec:	6f5f7472 	svcvs	0x005f7472
 3f0:	666f5f6e 	strbtvs	r5, [pc], -lr, ror #30
 3f4:	04c40066 	strbeq	r0, [r4], #102	; 0x66
 3f8:	72640000 	rsbvc	r0, r4, #0
 3fc:	685f6d61 	ldmdavs	pc, {r0, r5, r6, r8, sl, fp, sp, lr}^	; <UNPREDICTABLE>
 400:	7074736f 	rsbsvc	r7, r4, pc, ror #6
 404:	5f74726f 	svcpl	0x0074726f
 408:	63656863 	cmnvs	r5, #6488064	; 0x630000
 40c:	68615f6b 	stmdavs	r1!, {r0, r1, r3, r5, r6, r8, r9, sl, fp, ip, lr}^
 410:	69665f62 	stmdbvs	r6!, {r1, r5, r6, r8, r9, sl, fp, ip, lr}^
 414:	735f6f66 	cmpvc	pc, #408	; 0x198
 418:	75746174 	ldrbvc	r6, [r4, #-372]!	; 0xfffffe8c
 41c:	04f00073 	ldrbteq	r0, [r0], #115	; 0x73
 420:	72640000 	rsbvc	r0, r4, #0
 424:	685f6d61 	ldmdavs	pc, {r0, r5, r6, r8, sl, fp, sp, lr}^	; <UNPREDICTABLE>
 428:	7074736f 	rsbsvc	r7, r4, pc, ror #6
 42c:	5f74726f 	svcpl	0x0074726f
 430:	75746573 	ldrbvc	r6, [r4, #-1395]!	; 0xfffffa8d
 434:	00000070 	andeq	r0, r0, r0, ror r0
 438:	01f40000 	mvnseq	r0, r0
 43c:	00020000 	andeq	r0, r2, r0
 440:	00002d78 	andeq	r2, r0, r8, ror sp
 444:	00000654 	andeq	r0, r0, r4, asr r6
 448:	0000021b 	andeq	r0, r0, fp, lsl r2
 44c:	6c74636d 	ldclvs	3, cr6, [r4], #-436	; 0xfffffe4c
 450:	7264645f 	rsbvc	r6, r4, #1593835520	; 0x5f000000
 454:	65725f33 	ldrbvs	r5, [r2, #-3891]!	; 0xfffff0cd
 458:	00746573 	rsbseq	r6, r4, r3, ror r5
 45c:	0000024e 	andeq	r0, r0, lr, asr #4
 460:	6c74636d 	ldclvs	3, cr6, [r4], #-436	; 0xfffffe4c
 464:	7465735f 	strbtvc	r7, [r5], #-863	; 0xfffffca1
 468:	6972645f 	ldmdbvs	r2!, {r0, r1, r2, r3, r4, r6, sl, sp, lr}^
 46c:	76006576 			; <UNDEFINED> instruction: 0x76006576
 470:	6d000002 	stcvs	0, cr0, [r0, #-8]
 474:	5f6c7463 	svcpl	0x006c7463
 478:	5f6d7469 	svcpl	0x006d7469
 47c:	61736964 	cmnvs	r3, r4, ror #18
 480:	00656c62 	rsbeq	r6, r5, r2, ror #24
 484:	0000029e 	muleq	r0, lr, r2
 488:	6c74636d 	ldclvs	3, cr6, [r4], #-436	; 0xfffffe4c
 48c:	6d74695f 	ldclvs	9, cr6, [r4, #-380]!	; 0xfffffe84
 490:	616e655f 	cmnvs	lr, pc, asr r5
 494:	00656c62 	rsbeq	r6, r5, r2, ror #24
 498:	000002c6 	andeq	r0, r0, r6, asr #5
 49c:	6c74636d 	ldclvs	3, cr6, [r4], #-436	; 0xfffffe4c
 4a0:	616e655f 	cmnvs	lr, pc, asr r5
 4a4:	5f656c62 	svcpl	0x00656c62
 4a8:	306c6c64 	rsbcc	r6, ip, r4, ror #24
 4ac:	0002ea00 	andeq	lr, r2, r0, lsl #20
 4b0:	74636d00 	strbtvc	r6, [r3], #-3328	; 0xfffff300
 4b4:	6e655f6c 	cdpvs	15, 6, cr5, cr5, cr12, {3}
 4b8:	656c6261 	strbvs	r6, [ip, #-609]!	; 0xfffffd9f
 4bc:	6c6c645f 	cfstrdvs	mvd6, [ip], #-380	; 0xfffffe84
 4c0:	03110078 	tsteq	r1, #120	; 0x78
 4c4:	636d0000 	cmnvs	sp, #0
 4c8:	645f6c74 	ldrbvs	r6, [pc], #-3188	; 4d0 <__standby_start+0x4d0>
 4cc:	62617369 	rsbvs	r7, r1, #-1543503871	; 0xa4000001
 4d0:	645f656c 	ldrbvs	r6, [pc], #-1388	; 4d8 <__standby_start+0x4d8>
 4d4:	39006c6c 	stmdbcc	r0, {r2, r3, r5, r6, sl, fp, sp, lr}
 4d8:	6d000003 	stcvs	0, cr0, [r0, #-12]
 4dc:	5f6c7463 	svcpl	0x006c7463
 4e0:	666e6f63 	strbtvs	r6, [lr], -r3, ror #30
 4e4:	72756769 	rsbsvc	r6, r5, #27525120	; 0x1a40000
 4e8:	6f685f65 	svcvs	0x00685f65
 4ec:	6f707473 	svcvs	0x00707473
 4f0:	5f007472 	svcpl	0x00007472
 4f4:	6d000003 	stcvs	0, cr0, [r0, #-12]
 4f8:	5f6c7463 	svcpl	0x006c7463
 4fc:	75746573 	ldrbvc	r6, [r4, #-1395]!	; 0xfffffa8d
 500:	72645f70 	rsbvc	r5, r4, #112, 30	; 0x1c0
 504:	635f6d61 	cmpvs	pc, #6208	; 0x1840
 508:	6b636f6c 	blvs	18dc2c0 <__standby_start+0x18dc2c0>
 50c:	0003e400 	andeq	lr, r3, r0, lsl #8
 510:	41524400 	cmpmi	r2, r0, lsl #8
 514:	655f434d 	ldrbvs	r4, [pc, #-845]	; 1cf <__standby_start+0x1cf>
 518:	00746978 	rsbseq	r6, r4, r8, ror r9
 51c:	000003f4 	strdeq	r0, [r0], -r4
 520:	4d415244 	sfmmi	f5, 2, [r1, #-272]	; 0xfffffef0
 524:	63735f43 	cmnvs	r3, #268	; 0x10c
 528:	725f6e61 	subsvc	r6, pc, #1552	; 0x610
 52c:	70646165 	rsbvc	r6, r4, r5, ror #2
 530:	00657069 	rsbeq	r7, r5, r9, rrx
 534:	00000422 	andeq	r0, r0, r2, lsr #8
 538:	4d415244 	sfmmi	f5, 2, [r1, #-272]	; 0xfffffef0
 53c:	6c635f43 	stclvs	15, cr5, [r3], #-268	; 0xfffffef4
 540:	5f6b636f 	svcpl	0x006b636f
 544:	7074756f 	rsbsvc	r7, r4, pc, ror #10
 548:	655f7475 	ldrbvs	r7, [pc, #-1141]	; db <__standby_start+0xdb>
 54c:	0459006e 	ldrbeq	r0, [r9], #-110	; 0xffffff92
 550:	52440000 	subpl	r0, r4, #0
 554:	5f434d41 	svcpl	0x00434d41
 558:	5f746573 	svcpl	0x00746573
 55c:	6f747561 	svcvs	0x00747561
 560:	72666572 	rsbvc	r6, r6, #478150656	; 0x1c800000
 564:	5f687365 	svcpl	0x00687365
 568:	6c637963 	stclvs	9, cr7, [r3], #-396	; 0xfffffe74
 56c:	04b30065 	ldrteq	r0, [r3], #101	; 0x65
 570:	52440000 	subpl	r0, r4, #0
 574:	5f434d41 	svcpl	0x00434d41
 578:	5f746567 	svcpl	0x00746567
 57c:	6d617264 	sfmvs	f7, 2, [r1, #-400]!	; 0xfffffe70
 580:	7a69735f 	bvc	1a5d304 <__standby_start+0x1a5d304>
 584:	05010065 	streq	r0, [r1, #-101]	; 0xffffff9b
 588:	52440000 	subpl	r0, r4, #0
 58c:	5f434d41 	svcpl	0x00434d41
 590:	74696e69 	strbtvc	r6, [r9], #-3689	; 0xfffff197
 594:	00055b00 	andeq	r5, r5, r0, lsl #22
 598:	61726400 	cmnvs	r2, r0, lsl #8
 59c:	6e695f6d 	cdpvs	15, 6, cr5, cr9, cr13, {3}
 5a0:	74007469 	strvc	r7, [r0], #-1129	; 0xfffffb97
 5a4:	64000005 	strvs	r0, [r0], #-5
 5a8:	5f6d6172 	svcpl	0x006d6172
 5ac:	74697865 	strbtvc	r7, [r9], #-2149	; 0xfffff79b
 5b0:	00058d00 	andeq	r8, r5, r0, lsl #26
 5b4:	61726400 	cmnvs	r2, r0, lsl #8
 5b8:	65675f6d 	strbvs	r5, [r7, #-3949]!	; 0xfffff093
 5bc:	69735f74 	ldmdbvs	r3!, {r2, r4, r5, r6, r8, r9, sl, fp, ip, lr}^
 5c0:	a600657a 			; <UNDEFINED> instruction: 0xa600657a
 5c4:	64000005 	strvs	r0, [r0], #-5
 5c8:	5f6d6172 	svcpl	0x006d6172
 5cc:	5f746573 	svcpl	0x00746573
 5d0:	636f6c63 	cmnvs	pc, #25344	; 0x6300
 5d4:	05ce006b 	strbeq	r0, [lr, #107]	; 0x6b
 5d8:	72640000 	rsbvc	r0, r4, #0
 5dc:	735f6d61 	cmpvc	pc, #6208	; 0x1840
 5e0:	645f7465 	ldrbvs	r7, [pc], #-1125	; 5e8 <__standby_start+0x5e8>
 5e4:	65766972 	ldrbvs	r6, [r6, #-2418]!	; 0xfffff68e
 5e8:	0005e300 	andeq	lr, r5, r0, lsl #6
 5ec:	61726400 	cmnvs	r2, r0, lsl #8
 5f0:	65735f6d 	ldrbvs	r5, [r3, #-3949]!	; 0xfffff093
 5f4:	75615f74 	strbvc	r5, [r1, #-3956]!	; 0xfffff08c
 5f8:	65726f74 	ldrbvs	r6, [r2, #-3956]!	; 0xfffff08c
 5fc:	73657266 	cmnvc	r5, #1610612742	; 0x60000006
 600:	79635f68 	stmdbvc	r3!, {r3, r5, r6, r8, r9, sl, fp, ip, lr}^
 604:	00656c63 	rsbeq	r6, r5, r3, ror #24
 608:	0000060b 	andeq	r0, r0, fp, lsl #12
 60c:	6d617264 	sfmvs	f7, 2, [r1, #-400]!	; 0xfffffe70
 610:	6163735f 	cmnvs	r3, pc, asr r3
 614:	65725f6e 	ldrbvs	r5, [r2, #-3950]!	; 0xfffff092
 618:	69706461 	ldmdbvs	r0!, {r0, r5, r6, sl, sp, lr}^
 61c:	41006570 	tstmi	r0, r0, ror r5
 620:	68000006 	stmdavs	r0, {r1, r2}
 624:	5f726370 	svcpl	0x00726370
 628:	756c6176 	strbvc	r6, [ip, #-374]!	; 0xfffffe8a
 62c:	00000065 	andeq	r0, r0, r5, rrx
 630:	00650000 	rsbeq	r0, r5, r0
 634:	00020000 	andeq	r0, r2, r0
 638:	000033cc 	andeq	r3, r0, ip, asr #7
 63c:	0000035a 	andeq	r0, r0, sl, asr r3
 640:	0000023b 	andeq	r0, r0, fp, lsr r2
 644:	6e617473 	mcrvs	4, 3, r7, cr1, cr3, {3}
 648:	5f796264 	svcpl	0x00796264
 64c:	5f746e69 	svcpl	0x00746e69
 650:	74696e69 	strbtvc	r6, [r9], #-3689	; 0xfffff197
 654:	00025300 	andeq	r5, r2, r0, lsl #6
 658:	61747300 	cmnvs	r4, r0, lsl #6
 65c:	7962646e 	stmdbvc	r2!, {r1, r2, r3, r5, r6, sl, sp, lr}^
 660:	746e695f 	strbtvc	r6, [lr], #-2399	; 0xfffff6a1
 664:	6978655f 	ldmdbvs	r8!, {r0, r1, r2, r3, r4, r6, r8, sl, sp, lr}^
 668:	026b0074 	rsbeq	r0, fp, #116	; 0x74
 66c:	74730000 	ldrbtvc	r0, [r3], #-0
 670:	62646e61 	rsbvs	r6, r4, #1552	; 0x610
 674:	6e655f79 	mcrvs	15, 3, r5, cr5, cr9, {3}
 678:	656c6261 	strbvs	r6, [ip, #-609]!	; 0xfffffd9f
 67c:	746e695f 	strbtvc	r6, [lr], #-2399	; 0xfffff6a1
 680:	0002b600 	andeq	fp, r2, r0, lsl #12
 684:	61747300 	cmnvs	r4, r0, lsl #6
 688:	7962646e 	stmdbvc	r2!, {r1, r2, r3, r5, r6, sl, sp, lr}^
 68c:	6575715f 	ldrbvs	r7, [r5, #-351]!	; 0xfffffea1
 690:	695f7972 	ldmdbvs	pc, {r1, r4, r5, r6, r8, fp, ip, sp, lr}^	; <UNPREDICTABLE>
 694:	0000746e 	andeq	r7, r0, lr, ror #8
 698:	62000000 	andvs	r0, r0, #0
 69c:	02000000 	andeq	r0, r0, #0
 6a0:	00372600 	eorseq	r2, r7, r0, lsl #12
 6a4:	0000c900 	andeq	ip, r0, r0, lsl #18
 6a8:	00006800 	andeq	r6, r0, r0, lsl #16
 6ac:	61747300 	cmnvs	r4, r0, lsl #6
 6b0:	7962646e 	stmdbvc	r2!, {r1, r2, r3, r5, r6, sl, sp, lr}^
 6b4:	5f72695f 	svcpl	0x0072695f
 6b8:	74696e69 	strbtvc	r6, [r9], #-3689	; 0xfffff197
 6bc:	00008000 	andeq	r8, r0, r0
 6c0:	61747300 	cmnvs	r4, r0, lsl #6
 6c4:	7962646e 	stmdbvc	r2!, {r1, r2, r3, r5, r6, sl, sp, lr}^
 6c8:	5f72695f 	svcpl	0x0072695f
 6cc:	74697865 	strbtvc	r7, [r9], #-2149	; 0xfffff79b
 6d0:	00009800 	andeq	r9, r0, r0, lsl #16
 6d4:	61747300 	cmnvs	r4, r0, lsl #6
 6d8:	7962646e 	stmdbvc	r2!, {r1, r2, r3, r5, r6, sl, sp, lr}^
 6dc:	5f72695f 	svcpl	0x0072695f
 6e0:	65746564 	ldrbvs	r6, [r4, #-1380]!	; 0xfffffa9c
 6e4:	b0007463 	andlt	r7, r0, r3, ror #8
 6e8:	73000000 	movwvc	r0, #0
 6ec:	646e6174 	strbtvs	r6, [lr], #-372	; 0xfffffe8c
 6f0:	695f7962 	ldmdbvs	pc, {r1, r5, r6, r8, fp, ip, sp, lr}^	; <UNPREDICTABLE>
 6f4:	65765f72 	ldrbvs	r5, [r6, #-3954]!	; 0xfffff08e
 6f8:	79666972 	stmdbvc	r6!, {r1, r4, r5, r6, r8, fp, sp, lr}^
 6fc:	00000000 	andeq	r0, r0, r0
 700:	00004e00 	andeq	r4, r0, r0, lsl #28
 704:	ef000200 	svc	0x00000200
 708:	7a000037 	bvc	7ec <__standby_start+0x7ec>
 70c:	d6000001 	strle	r0, [r0], -r1
 710:	73000000 	movwvc	r0, #0
 714:	646e6174 	strbtvs	r6, [lr], #-372	; 0xfffffe8c
 718:	6b5f7962 	blvs	17deca8 <__standby_start+0x17deca8>
 71c:	695f7965 	ldmdbvs	pc, {r0, r2, r5, r6, r8, fp, ip, sp, lr}^	; <UNPREDICTABLE>
 720:	0074696e 	rsbseq	r6, r4, lr, ror #18
 724:	000000ef 	andeq	r0, r0, pc, ror #1
 728:	6e617473 	mcrvs	4, 3, r7, cr1, cr3, {3}
 72c:	5f796264 	svcpl	0x00796264
 730:	5f79656b 	svcpl	0x0079656b
 734:	74697865 	strbtvc	r7, [r9], #-2149	; 0xfffff79b
 738:	00010700 	andeq	r0, r1, r0, lsl #14
 73c:	61747300 	cmnvs	r4, r0, lsl #6
 740:	7962646e 	stmdbvc	r2!, {r1, r2, r3, r5, r6, sl, sp, lr}^
 744:	6575715f 	ldrbvs	r7, [r5, #-351]!	; 0xfffffea1
 748:	6b5f7972 	blvs	17ded18 <__standby_start+0x17ded18>
 74c:	00007965 	andeq	r7, r0, r5, ror #18
 750:	6c000000 	stcvs	0, cr0, [r0], {-0}
 754:	02000000 	andeq	r0, r0, #0
 758:	00396900 	eorseq	r6, r9, r0, lsl #18
 75c:	0003ce00 	andeq	ip, r3, r0, lsl #28
 760:	0001ee00 	andeq	lr, r1, r0, lsl #28
 764:	61747300 	cmnvs	r4, r0, lsl #6
 768:	7962646e 	stmdbvc	r2!, {r1, r2, r3, r5, r6, sl, sp, lr}^
 76c:	776f705f 			; <UNDEFINED> instruction: 0x776f705f
 770:	695f7265 	ldmdbvs	pc, {r0, r2, r5, r6, r9, ip, sp, lr}^	; <UNPREDICTABLE>
 774:	0074696e 	rsbseq	r6, r4, lr, ror #18
 778:	0000023a 	andeq	r0, r0, sl, lsr r2
 77c:	6e617473 	mcrvs	4, 3, r7, cr1, cr3, {3}
 780:	5f796264 	svcpl	0x00796264
 784:	65776f70 	ldrbvs	r6, [r7, #-3952]!	; 0xfffff090
 788:	78655f72 	stmdavc	r5!, {r1, r4, r5, r6, r8, r9, sl, fp, ip, lr}^
 78c:	8f007469 	svchi	0x00007469
 790:	73000002 	movwvc	r0, #2
 794:	646e6174 	strbtvs	r6, [lr], #-372	; 0xfffffe8c
 798:	735f7962 	cmpvc	pc, #1605632	; 0x188000
 79c:	765f7465 	ldrbvc	r7, [pc], -r5, ror #8
 7a0:	61746c6f 	cmnvs	r4, pc, ror #24
 7a4:	25006567 	strcs	r6, [r0, #-1383]	; 0xfffffa99
 7a8:	73000003 	movwvc	r0, #3
 7ac:	646e6174 	strbtvs	r6, [lr], #-372	; 0xfffffe8c
 7b0:	675f7962 	ldrbvs	r7, [pc, -r2, ror #18]
 7b4:	765f7465 	ldrbvc	r7, [pc], -r5, ror #8
 7b8:	61746c6f 	cmnvs	r4, pc, ror #24
 7bc:	00006567 	andeq	r6, r0, r7, ror #10
 7c0:	b9000000 	stmdblt	r0, {}	; <UNPREDICTABLE>
 7c4:	02000000 	andeq	r0, r0, #0
 7c8:	003d3700 	eorseq	r3, sp, r0, lsl #14
 7cc:	00053800 	andeq	r3, r5, r0, lsl #16
 7d0:	0003a000 	andeq	sl, r3, r0
 7d4:	61747300 	cmnvs	r4, r0, lsl #6
 7d8:	7962646e 	stmdbvc	r2!, {r1, r2, r3, r5, r6, sl, sp, lr}^
 7dc:	726d745f 	rsbvc	r7, sp, #1593835520	; 0x5f000000
 7e0:	696e695f 	stmdbvs	lr!, {r0, r1, r2, r3, r4, r6, r8, fp, sp, lr}^
 7e4:	03c70074 	biceq	r0, r7, #116	; 0x74
 7e8:	74730000 	ldrbtvc	r0, [r3], #-0
 7ec:	62646e61 	rsbvs	r6, r4, #1552	; 0x610
 7f0:	6d745f79 	ldclvs	15, cr5, [r4, #-484]!	; 0xfffffe1c
 7f4:	78655f72 	stmdavc	r5!, {r1, r4, r5, r6, r8, r9, sl, fp, ip, lr}^
 7f8:	ed007469 	cfstrs	mvf7, [r0, #-420]	; 0xfffffe5c
 7fc:	73000003 	movwvc	r0, #3
 800:	646e6174 	strbtvs	r6, [lr], #-372	; 0xfffffe8c
 804:	745f7962 	ldrbvc	r7, [pc], #-2402	; 80c <__standby_start+0x80c>
 808:	735f726d 	cmpvc	pc, #-805306362	; 0xd0000006
 80c:	19007465 	stmdbne	r0, {r0, r2, r5, r6, sl, ip, sp, lr}
 810:	73000004 	movwvc	r0, #4
 814:	646e6174 	strbtvs	r6, [lr], #-372	; 0xfffffe8c
 818:	745f7962 	ldrbvc	r7, [pc], #-2402	; 820 <__standby_start+0x820>
 81c:	655f726d 	ldrbvs	r7, [pc, #-621]	; 5b7 <__standby_start+0x5b7>
 820:	6c62616e 	stfvse	f6, [r2], #-440	; 0xfffffe48
 824:	61775f65 	cmnvs	r7, r5, ror #30
 828:	64686374 	strbtvs	r6, [r8], #-884	; 0xfffffc8c
 82c:	2d00676f 	stccs	7, cr6, [r0, #-444]	; 0xfffffe44
 830:	73000004 	movwvc	r0, #4
 834:	646e6174 	strbtvs	r6, [lr], #-372	; 0xfffffe8c
 838:	745f7962 	ldrbvc	r7, [pc], #-2402	; 840 <__standby_start+0x840>
 83c:	645f726d 	ldrbvs	r7, [pc], #-621	; 844 <__standby_start+0x844>
 840:	62617369 	rsbvs	r7, r1, #-1543503871	; 0xa4000001
 844:	775f656c 	ldrbvc	r6, [pc, -ip, ror #10]
 848:	68637461 	stmdavs	r3!, {r0, r5, r6, sl, ip, sp, lr}^
 84c:	00676f64 	rsbeq	r6, r7, r4, ror #30
 850:	00000441 	andeq	r0, r0, r1, asr #8
 854:	6e617473 	mcrvs	4, 3, r7, cr1, cr3, {3}
 858:	5f796264 	svcpl	0x00796264
 85c:	5f726d74 	svcpl	0x00726d74
 860:	72657571 	rsbvc	r7, r5, #473956352	; 0x1c400000
 864:	04780079 	ldrbteq	r0, [r8], #-121	; 0xffffff87
 868:	74730000 	ldrbtvc	r0, [r3], #-0
 86c:	62646e61 	rsbvs	r6, r4, #1552	; 0x610
 870:	6d745f79 	ldclvs	15, cr5, [r4, #-484]!	; 0xfffffe1c
 874:	646d5f72 	strbtvs	r5, [sp], #-3954	; 0xfffff08e
 878:	0079616c 	rsbseq	r6, r9, ip, ror #2
 87c:	00000000 	andeq	r0, r0, r0
 880:	00000048 	andeq	r0, r0, r8, asr #32
 884:	426f0002 	rsbmi	r0, pc, #2
 888:	02c00000 	sbceq	r0, r0, #0
 88c:	01320000 	teqeq	r2, r0
 890:	74730000 	ldrbtvc	r0, [r3], #-0
 894:	62646e61 	rsbvs	r6, r4, #1552	; 0x610
 898:	77745f79 			; <UNDEFINED> instruction: 0x77745f79
 89c:	6e695f69 	cdpvs	15, 6, cr5, cr9, cr9, {3}
 8a0:	5e007469 	cdppl	4, 0, cr7, cr0, cr9, {3}
 8a4:	73000001 	movwvc	r0, #1
 8a8:	646e6174 	strbtvs	r6, [lr], #-372	; 0xfffffe8c
 8ac:	745f7962 	ldrbvc	r7, [pc], #-2402	; 8b4 <__standby_start+0x8b4>
 8b0:	655f6977 	ldrbvs	r6, [pc, #-2423]	; ffffff41 <__bss_end+0xfffdef9>
 8b4:	00746978 	rsbseq	r6, r4, r8, ror r9
 8b8:	0000019f 	muleq	r0, pc, r1	; <UNPREDICTABLE>
 8bc:	5f697774 	svcpl	0x00697774
 8c0:	65747962 	ldrbvs	r7, [r4, #-2402]!	; 0xfffff69e
 8c4:	0077725f 	rsbseq	r7, r7, pc, asr r2
 8c8:	00000000 	andeq	r0, r0, r0
 8cc:	00000075 	andeq	r0, r0, r5, ror r0
 8d0:	452f0002 	strmi	r0, [pc, #-2]!	; 8d6 <__standby_start+0x8d6>
 8d4:	00e80000 	rsceq	r0, r8, r0
 8d8:	00730000 	rsbseq	r0, r3, r0
 8dc:	74730000 	ldrbtvc	r0, [r3], #-0
 8e0:	62646e61 	rsbvs	r6, r4, #1552	; 0x610
 8e4:	73755f79 	cmnvc	r5, #484	; 0x1e4
 8e8:	6e695f62 	cdpvs	15, 6, cr5, cr9, cr2, {3}
 8ec:	8b007469 	blhi	1da98 <__standby_start+0x1da98>
 8f0:	73000000 	movwvc	r0, #0
 8f4:	646e6174 	strbtvs	r6, [lr], #-372	; 0xfffffe8c
 8f8:	755f7962 	ldrbvc	r7, [pc, #-2402]	; ffffff9e <__bss_end+0xfffdf56>
 8fc:	655f6273 	ldrbvs	r6, [pc, #-627]	; 691 <__standby_start+0x691>
 900:	00746978 	rsbseq	r6, r4, r8, ror r9
 904:	000000a3 	andeq	r0, r0, r3, lsr #1
 908:	6e617473 	mcrvs	4, 3, r7, cr1, cr3, {3}
 90c:	5f796264 	svcpl	0x00796264
 910:	755f7369 	ldrbvc	r7, [pc, #-873]	; 5af <__standby_start+0x5af>
 914:	735f6273 	cmpvc	pc, #805306375	; 0x30000007
 918:	75746174 	ldrbvc	r6, [r4, #-372]!	; 0xfffffe8c
 91c:	68635f73 	stmdavs	r3!, {r0, r1, r4, r5, r6, r8, r9, sl, fp, ip, lr}^
 920:	65676e61 	strbvs	r6, [r7, #-3681]!	; 0xfffff19f
 924:	0000cf00 	andeq	ip, r0, r0, lsl #30
 928:	61747300 	cmnvs	r4, r0, lsl #6
 92c:	7962646e 	stmdbvc	r2!, {r1, r2, r3, r5, r6, sl, sp, lr}^
 930:	6575715f 	ldrbvs	r7, [r5, #-351]!	; 0xfffffea1
 934:	755f7972 	ldrbvc	r7, [pc, #-2418]	; ffffffca <__bss_end+0xfffdf82>
 938:	655f6273 	ldrbvs	r6, [pc, #-627]	; 6cd <__standby_start+0x6cd>
 93c:	746e6576 	strbtvc	r6, [lr], #-1398	; 0xfffffa8a
 940:	00000000 	andeq	r0, r0, r0
	...

Disassembly of section .debug_pubtypes:

00000000 <.debug_pubtypes>:
   0:	0000008a 	andeq	r0, r0, sl, lsl #1
   4:	00000002 	andeq	r0, r0, r2
   8:	03870000 	orreq	r0, r7, #0
   c:	00250000 	eoreq	r0, r5, r0
  10:	77610000 	strbvc	r0, [r1, -r0]!
  14:	756d705f 	strbvc	r7, [sp, #-95]!	; 0xffffffa1
  18:	6772615f 			; <UNDEFINED> instruction: 0x6772615f
  1c:	00005c00 	andeq	r5, r0, r0, lsl #24
  20:	5f776100 	svcpl	0x00776100
  24:	6e617473 	mcrvs	4, 3, r7, cr1, cr3, {3}
  28:	5f796264 	svcpl	0x00796264
  2c:	61726170 	cmnvs	r2, r0, ror r1
  30:	00008c00 	andeq	r8, r0, r0, lsl #24
  34:	5f776100 	svcpl	0x00776100
  38:	695f6d70 	ldmdbvs	pc, {r4, r5, r6, r8, sl, fp, sp, lr}^	; <UNPREDICTABLE>
  3c:	006f666e 	rsbeq	r6, pc, lr, ror #12
  40:	000000ca 	andeq	r0, r0, sl, asr #1
  44:	33755f5f 	cmncc	r5, #380	; 0x17c
  48:	00e30032 	rsceq	r0, r3, r2, lsr r0
  4c:	75730000 	ldrbvc	r0, [r3, #-0]!
  50:	5f69346e 	svcpl	0x0069346e
  54:	5f6b6c63 	svcpl	0x006b6c63
  58:	5f766964 	svcpl	0x00766964
  5c:	01450074 	cmpeq	r5, r4, ror r0
  60:	6f700000 	svcvs	0x00700000
  64:	5f726577 	svcpl	0x00726577
  68:	5f6c6f76 	svcpl	0x006c6f76
  6c:	65707974 	ldrbvs	r7, [r0, #-2420]!	; 0xfffff68c
  70:	7c00655f 	cfstr32vc	mvfx6, [r0], {95}	; 0x5f
  74:	69000001 	stmdbvs	r0, {r0}
  78:	7265746e 	rsbvc	r7, r5, #1845493760	; 0x6e000000
  7c:	74707572 	ldrbtvc	r7, [r0], #-1394	; 0xfffffa8e
  80:	756f735f 	strbvc	r7, [pc, #-863]!	; fffffd29 <__bss_end+0xfffdce1>
  84:	5f656372 	svcpl	0x00656372
  88:	00000065 	andeq	r0, r0, r5, rrx
  8c:	00180000 	andseq	r0, r8, r0
  90:	00020000 	andeq	r0, r2, r0
  94:	00000387 	andeq	r0, r0, r7, lsl #7
  98:	0000011b 	andeq	r0, r0, fp, lsl r1
  9c:	0000004f 	andeq	r0, r0, pc, asr #32
  a0:	33755f5f 	cmncc	r5, #380	; 0x17c
  a4:	00000032 	andeq	r0, r0, r2, lsr r0
  a8:	09900000 	ldmibeq	r0, {}	; <UNPREDICTABLE>
  ac:	00020000 	andeq	r0, r2, r0
  b0:	00000519 	andeq	r0, r0, r9, lsl r5
  b4:	00002320 	andeq	r2, r0, r0, lsr #6
  b8:	0000004f 	andeq	r0, r0, pc, asr #32
  bc:	33735f5f 	cmncc	r3, #380	; 0x17c
  c0:	005a0032 	subseq	r0, sl, r2, lsr r0
  c4:	5f5f0000 	svcpl	0x005f0000
  c8:	00323375 	eorseq	r3, r2, r5, ror r3
  cc:	00000073 	andeq	r0, r0, r3, ror r0
  d0:	435f5f5f 	cmpmi	pc, #380	; 0x17c
  d4:	5f554d43 	svcpl	0x00554d43
  d8:	314c4c50 	cmpcc	ip, r0, asr ip
  dc:	524f435f 	subpl	r4, pc, #2080374785	; 0x7c000001
  e0:	45525f45 	ldrbmi	r5, [r2, #-3909]	; 0xfffff0bb
  e4:	30303047 	eorscc	r3, r0, r7, asr #32
  e8:	016e0030 	cmneq	lr, r0, lsr r0
  ec:	5f5f0000 	svcpl	0x005f0000
  f0:	756d6363 	strbvc	r6, [sp, #-867]!	; 0xfffffc9d
  f4:	6c6c705f 	stclvs	0, cr7, [ip], #-380	; 0xfffffe84
  f8:	6f635f31 	svcvs	0x00635f31
  fc:	725f6572 	subsvc	r6, pc, #478150656	; 0x1c800000
 100:	30306765 	eorscc	r6, r0, r5, ror #14
 104:	745f3030 	ldrbvc	r3, [pc], #-48	; 10c <__standby_start+0x10c>
 108:	00017900 	andeq	r7, r1, r0, lsl #18
 10c:	435f5f00 	cmpmi	pc, #0, 30
 110:	5f554d43 	svcpl	0x00554d43
 114:	314c4c50 	cmpcc	ip, r0, asr ip
 118:	4e55545f 	mrcmi	4, 2, r5, cr5, cr15, {2}
 11c:	5f474e49 	svcpl	0x00474e49
 120:	30474552 	subcc	r4, r7, r2, asr r5
 124:	00343030 	eorseq	r3, r4, r0, lsr r0
 128:	000001db 	ldrdeq	r0, [r0], -fp
 12c:	63635f5f 	cmnvs	r3, #380	; 0x17c
 130:	705f756d 	subsvc	r7, pc, sp, ror #10
 134:	5f316c6c 	svcpl	0x00316c6c
 138:	696e7574 	stmdbvs	lr!, {r2, r4, r5, r6, r8, sl, ip, sp, lr}^
 13c:	725f676e 	subsvc	r6, pc, #28835840	; 0x1b80000
 140:	30306765 	eorscc	r6, r0, r5, ror #14
 144:	745f3430 	ldrbvc	r3, [pc], #-1072	; 14c <__standby_start+0x14c>
 148:	0001e600 	andeq	lr, r1, r0, lsl #12
 14c:	435f5f00 	cmpmi	pc, #0, 30
 150:	5f554d43 	svcpl	0x00554d43
 154:	324c4c50 	subcc	r4, ip, #80, 24	; 0x5000
 158:	4455415f 	ldrbmi	r4, [r5], #-351	; 0xfffffea1
 15c:	525f4f49 	subspl	r4, pc, #292	; 0x124
 160:	30304745 	eorscc	r4, r0, r5, asr #14
 164:	8c003830 	stchi	8, cr3, [r0], {48}	; 0x30
 168:	5f000002 	svcpl	0x00000002
 16c:	6d63635f 	stclvs	3, cr6, [r3, #-380]!	; 0xfffffe84
 170:	6c705f75 	ldclvs	15, cr5, [r0], #-468	; 0xfffffe2c
 174:	615f326c 	cmpvs	pc, ip, ror #4
 178:	6f696475 	svcvs	0x00696475
 17c:	6765725f 			; <UNDEFINED> instruction: 0x6765725f
 180:	38303030 	ldmdacc	r0!, {r4, r5, ip, sp}
 184:	9700745f 	smlsdls	r0, pc, r4, r7	; <UNPREDICTABLE>
 188:	5f000002 	svcpl	0x00000002
 18c:	4d43435f 	stclmi	3, cr4, [r3, #-380]	; 0xfffffe84
 190:	4c505f55 	mrrcmi	15, 5, r5, r0, cr5
 194:	545f324c 	ldrbpl	r3, [pc], #-588	; 19c <__standby_start+0x19c>
 198:	4e494e55 	mcrmi	14, 2, r4, cr9, cr5, {2}
 19c:	45525f47 	ldrbmi	r5, [r2, #-3911]	; 0xfffff0b9
 1a0:	30303047 	eorscc	r3, r0, r7, asr #32
 1a4:	030a0043 	movweq	r0, #41027	; 0xa043
 1a8:	5f5f0000 	svcpl	0x005f0000
 1ac:	756d6363 	strbvc	r6, [sp, #-867]!	; 0xfffffc9d
 1b0:	6c6c705f 	stclvs	0, cr7, [ip], #-380	; 0xfffffe84
 1b4:	75745f32 	ldrbvc	r5, [r4, #-3890]!	; 0xfffff0ce
 1b8:	676e696e 	strbvs	r6, [lr, -lr, ror #18]!
 1bc:	6765725f 			; <UNDEFINED> instruction: 0x6765725f
 1c0:	63303030 	teqvs	r0, #48	; 0x30
 1c4:	1500745f 	strne	r7, [r0, #-1119]	; 0xfffffba1
 1c8:	5f000003 	svcpl	0x00000003
 1cc:	4d43435f 	stclmi	3, cr4, [r3, #-380]	; 0xfffffe84
 1d0:	4c505f55 	mrrcmi	15, 5, r5, r0, cr5
 1d4:	565f334c 	ldrbpl	r3, [pc], -ip, asr #6
 1d8:	4f454449 	svcmi	0x00454449
 1dc:	4745525f 	smlsldmi	r5, r5, pc, r2	; <UNPREDICTABLE>
 1e0:	30313030 	eorscc	r3, r1, r0, lsr r0
 1e4:	0003dd00 	andeq	sp, r3, r0, lsl #26
 1e8:	635f5f00 	cmpvs	pc, #0, 30
 1ec:	5f756d63 	svcpl	0x00756d63
 1f0:	336c6c70 	cmncc	ip, #112, 24	; 0x7000
 1f4:	6469765f 	strbtvs	r7, [r9], #-1631	; 0xfffff9a1
 1f8:	725f6f65 	subsvc	r6, pc, #404	; 0x194
 1fc:	30306765 	eorscc	r6, r0, r5, ror #14
 200:	745f3031 	ldrbvc	r3, [pc], #-49	; 208 <__standby_start+0x208>
 204:	0003e800 	andeq	lr, r3, r0, lsl #16
 208:	435f5f00 	cmpmi	pc, #0, 30
 20c:	5f554d43 	svcpl	0x00554d43
 210:	344c4c50 	strbcc	r4, [ip], #-3152	; 0xfffff3b0
 214:	5f45565f 	svcpl	0x0045565f
 218:	30474552 	subcc	r4, r7, r2, asr r5
 21c:	00383130 	eorseq	r3, r8, r0, lsr r1
 220:	000004d2 	ldrdeq	r0, [r0], -r2
 224:	63635f5f 	cmnvs	r3, #380	; 0x17c
 228:	705f756d 	subsvc	r7, pc, sp, ror #10
 22c:	5f346c6c 	svcpl	0x00346c6c
 230:	725f6576 	subsvc	r6, pc, #494927872	; 0x1d800000
 234:	30306765 	eorscc	r6, r0, r5, ror #14
 238:	745f3831 	ldrbvc	r3, [pc], #-2097	; 240 <__standby_start+0x240>
 23c:	0004dd00 	andeq	sp, r4, r0, lsl #26
 240:	435f5f00 	cmpmi	pc, #0, 30
 244:	5f554d43 	svcpl	0x00554d43
 248:	354c4c50 	strbcc	r4, [ip, #-3152]	; 0xfffff3b0
 24c:	5244445f 	subpl	r4, r4, #1593835520	; 0x5f000000
 250:	4745525f 	smlsldmi	r5, r5, pc, r2	; <UNPREDICTABLE>
 254:	30323030 	eorscc	r3, r2, r0, lsr r0
 258:	0005e900 	andeq	lr, r5, r0, lsl #18
 25c:	635f5f00 	cmpvs	pc, #0, 30
 260:	5f756d63 	svcpl	0x00756d63
 264:	356c6c70 	strbcc	r6, [ip, #-3184]!	; 0xfffff390
 268:	7264645f 	rsbvc	r6, r4, #1593835520	; 0x5f000000
 26c:	6765725f 			; <UNDEFINED> instruction: 0x6765725f
 270:	30323030 	eorscc	r3, r2, r0, lsr r0
 274:	f400745f 	vst3.16	{d7-d9}, [r0 :64]
 278:	5f000005 	svcpl	0x00000005
 27c:	4d43435f 	stclmi	3, cr4, [r3, #-380]	; 0xfffffe84
 280:	4c505f55 	mrrcmi	15, 5, r5, r0, cr5
 284:	545f354c 	ldrbpl	r3, [pc], #-1356	; 28c <__standby_start+0x28c>
 288:	4e494e55 	mcrmi	14, 2, r4, cr9, cr5, {2}
 28c:	45525f47 	ldrbmi	r5, [r2, #-3911]	; 0xfffff0b9
 290:	32303047 	eorscc	r3, r0, #71	; 0x47
 294:	06780034 			; <UNDEFINED> instruction: 0x06780034
 298:	5f5f0000 	svcpl	0x005f0000
 29c:	756d6363 	strbvc	r6, [sp, #-867]!	; 0xfffffc9d
 2a0:	6c6c705f 	stclvs	0, cr7, [ip], #-380	; 0xfffffe84
 2a4:	75745f35 	ldrbvc	r5, [r4, #-3893]!	; 0xfffff0cb
 2a8:	676e696e 	strbvs	r6, [lr, -lr, ror #18]!
 2ac:	6765725f 			; <UNDEFINED> instruction: 0x6765725f
 2b0:	34323030 	ldrtcc	r3, [r2], #-48	; 0xffffffd0
 2b4:	8300745f 	movwhi	r7, #1119	; 0x45f
 2b8:	5f000006 	svcpl	0x00000006
 2bc:	4d43435f 	stclmi	3, cr4, [r3, #-380]	; 0xfffffe84
 2c0:	4c505f55 	mrrcmi	15, 5, r5, r0, cr5
 2c4:	535f364c 	cmppl	pc, #76, 12	; 0x4c00000
 2c8:	5f415441 	svcpl	0x00415441
 2cc:	30474552 	subcc	r4, r7, r2, asr r5
 2d0:	00383230 	eorseq	r3, r8, r0, lsr r2
 2d4:	0000076d 	andeq	r0, r0, sp, ror #14
 2d8:	63635f5f 	cmnvs	r3, #380	; 0x17c
 2dc:	705f756d 	subsvc	r7, pc, sp, ror #10
 2e0:	5f366c6c 	svcpl	0x00366c6c
 2e4:	61746173 	cmnvs	r4, r3, ror r1
 2e8:	6765725f 			; <UNDEFINED> instruction: 0x6765725f
 2ec:	38323030 	ldmdacc	r2!, {r4, r5, ip, sp}
 2f0:	7800745f 	stmdavc	r0, {r0, r1, r2, r3, r4, r6, sl, ip, sp, lr}
 2f4:	5f000007 	svcpl	0x00000007
 2f8:	4d43435f 	stclmi	3, cr4, [r3, #-380]	; 0xfffffe84
 2fc:	4c505f55 	mrrcmi	15, 5, r5, r0, cr5
 300:	565f374c 	ldrbpl	r3, [pc], -ip, asr #14
 304:	4f454449 	svcmi	0x00454449
 308:	45525f31 	ldrbmi	r5, [r2, #-3889]	; 0xfffff0cf
 30c:	33303047 	teqcc	r0, #71	; 0x47
 310:	08400030 	stmdaeq	r0, {r4, r5}^
 314:	5f5f0000 	svcpl	0x005f0000
 318:	756d6363 	strbvc	r6, [sp, #-867]!	; 0xfffffc9d
 31c:	6c6c705f 	stclvs	0, cr7, [ip], #-380	; 0xfffffe84
 320:	69765f37 	ldmdbvs	r6!, {r0, r1, r2, r4, r5, r8, r9, sl, fp, ip, lr}^
 324:	316f6564 	cmncc	pc, r4, ror #10
 328:	6765725f 			; <UNDEFINED> instruction: 0x6765725f
 32c:	30333030 	eorscc	r3, r3, r0, lsr r0
 330:	4b00745f 	blmi	1d4b4 <__standby_start+0x1d4b4>
 334:	5f000008 	svcpl	0x00000008
 338:	4d43435f 	stclmi	3, cr4, [r3, #-380]	; 0xfffffe84
 33c:	4c505f55 	mrrcmi	15, 5, r5, r0, cr5
 340:	545f314c 	ldrbpl	r3, [pc], #-332	; 348 <__standby_start+0x348>
 344:	4e494e55 	mcrmi	14, 2, r4, cr9, cr5, {2}
 348:	525f3247 	subspl	r3, pc, #1879048196	; 0x70000004
 34c:	30304745 	eorscc	r4, r0, r5, asr #14
 350:	be003833 	mcrlt	8, 0, r3, cr0, cr3, {1}
 354:	5f000008 	svcpl	0x00000008
 358:	6d63635f 	stclvs	3, cr6, [r3, #-380]!	; 0xfffffe84
 35c:	6c705f75 	ldclvs	15, cr5, [r0], #-468	; 0xfffffe2c
 360:	745f316c 	ldrbvc	r3, [pc], #-364	; 368 <__standby_start+0x368>
 364:	6e696e75 	mcrvs	14, 3, r6, cr9, cr5, {3}
 368:	725f3267 	subsvc	r3, pc, #1879048198	; 0x70000006
 36c:	30306765 	eorscc	r6, r0, r5, ror #14
 370:	745f3833 	ldrbvc	r3, [pc], #-2099	; 378 <__standby_start+0x378>
 374:	0008c900 	andeq	ip, r8, r0, lsl #18
 378:	435f5f00 	cmpmi	pc, #0, 30
 37c:	5f554d43 	svcpl	0x00554d43
 380:	354c4c50 	strbcc	r4, [ip, #-3152]	; 0xfffff3b0
 384:	4e55545f 	mrcmi	4, 2, r5, cr5, cr15, {2}
 388:	32474e49 	subcc	r4, r7, #1168	; 0x490
 38c:	4745525f 	smlsldmi	r5, r5, pc, r2	; <UNPREDICTABLE>
 390:	43333030 	teqmi	r3, #48	; 0x30
 394:	00093c00 	andeq	r3, r9, r0, lsl #24
 398:	635f5f00 	cmpvs	pc, #0, 30
 39c:	5f756d63 	svcpl	0x00756d63
 3a0:	356c6c70 	strbcc	r6, [ip, #-3184]!	; 0xfffff390
 3a4:	6e75745f 	mrcvs	4, 3, r7, cr5, cr15, {2}
 3a8:	32676e69 	rsbcc	r6, r7, #1680	; 0x690
 3ac:	6765725f 			; <UNDEFINED> instruction: 0x6765725f
 3b0:	63333030 	teqvs	r3, #48	; 0x30
 3b4:	4700745f 	smlsdmi	r0, pc, r4, r7	; <UNPREDICTABLE>
 3b8:	5f000009 	svcpl	0x00000009
 3bc:	4d43435f 	stclmi	3, cr4, [r3, #-380]	; 0xfffffe84
 3c0:	534f5f55 	movtpl	r5, #65365	; 0xff55
 3c4:	4d343243 	lfmmi	f3, 4, [r4, #-268]!	; 0xfffffef4
 3c8:	4745525f 	smlsldmi	r5, r5, pc, r2	; <UNPREDICTABLE>
 3cc:	30353030 	eorscc	r3, r5, r0, lsr r0
 3d0:	0009dc00 	andeq	sp, r9, r0, lsl #24
 3d4:	635f5f00 	cmpvs	pc, #0, 30
 3d8:	5f756d63 	svcpl	0x00756d63
 3dc:	3263736f 	rsbcc	r7, r3, #-1140850687	; 0xbc000001
 3e0:	725f6d34 	subsvc	r6, pc, #52, 26	; 0xd00
 3e4:	30306765 	eorscc	r6, r0, r5, ror #14
 3e8:	745f3035 	ldrbvc	r3, [pc], #-53	; 3f0 <__standby_start+0x3f0>
 3ec:	0009e700 	andeq	lr, r9, r0, lsl #14
 3f0:	435f5f00 	cmpmi	pc, #0, 30
 3f4:	5f554d43 	svcpl	0x00554d43
 3f8:	43535953 	cmpmi	r3, #1359872	; 0x14c000
 3fc:	525f4b4c 	subspl	r4, pc, #76, 22	; 0x13000
 400:	4f495441 	svcmi	0x00495441
 404:	4745525f 	smlsldmi	r5, r5, pc, r2	; <UNPREDICTABLE>
 408:	34353030 	ldrtcc	r3, [r5], #-48	; 0xffffffd0
 40c:	000a7c00 	andeq	r7, sl, r0, lsl #24
 410:	635f5f00 	cmpvs	pc, #0, 30
 414:	5f756d63 	svcpl	0x00756d63
 418:	63737973 	cmnvs	r3, #1884160	; 0x1cc000
 41c:	5f6c6b6c 	svcpl	0x006c6b6c
 420:	69746172 	ldmdbvs	r4!, {r1, r4, r5, r6, r8, sp, lr}^
 424:	65725f6f 	ldrbvs	r5, [r2, #-3951]!	; 0xfffff091
 428:	35303067 	ldrcc	r3, [r0, #-103]!	; 0xffffff99
 42c:	00745f34 	rsbseq	r5, r4, r4, lsr pc
 430:	00000a87 	andeq	r0, r0, r7, lsl #21
 434:	43435f5f 	movtmi	r5, #16223	; 0x3f5f
 438:	415f554d 	cmpmi	pc, sp, asr #10
 43c:	43314250 	teqmi	r1, #80, 4
 440:	525f4b4c 	subspl	r4, pc, #76, 22	; 0x13000
 444:	4f495441 	svcmi	0x00495441
 448:	4745525f 	smlsldmi	r5, r5, pc, r2	; <UNPREDICTABLE>
 44c:	38353030 	ldmdacc	r5!, {r4, r5, ip, sp}
 450:	000afa00 	andeq	pc, sl, r0, lsl #20
 454:	635f5f00 	cmpvs	pc, #0, 30
 458:	5f756d63 	svcpl	0x00756d63
 45c:	31627061 	cmncc	r2, r1, rrx
 460:	5f6b6c63 	svcpl	0x006b6c63
 464:	69746172 	ldmdbvs	r4!, {r1, r4, r5, r6, r8, sp, lr}^
 468:	65725f6f 	ldrbvs	r5, [r2, #-3951]!	; 0xfffff091
 46c:	35303067 	ldrcc	r3, [r0, #-103]!	; 0xffffff99
 470:	00745f38 	rsbseq	r5, r4, r8, lsr pc
 474:	00000b05 	andeq	r0, r0, r5, lsl #22
 478:	43435f5f 	movtmi	r5, #16223	; 0x3f5f
 47c:	415f554d 	cmpmi	pc, sp, asr #10
 480:	4c434958 	mcrrmi	9, 5, r4, r3, cr8
 484:	41475f4b 	mrsmi	r5, SPSR
 488:	525f4554 	subspl	r4, pc, #84, 10	; 0x15000000
 48c:	30304745 	eorscc	r4, r0, r5, asr #14
 490:	34006335 	strcc	r6, [r0], #-821	; 0xfffffccb
 494:	5f00000b 	svcpl	0x0000000b
 498:	6d63635f 	stclvs	3, cr6, [r3, #-380]!	; 0xfffffe84
 49c:	78615f75 	stmdavc	r1!, {r0, r2, r4, r5, r6, r8, r9, sl, fp, ip, lr}^
 4a0:	6b6c6369 	blvs	1b1924c <__standby_start+0x1b1924c>
 4a4:	7461675f 	strbtvc	r6, [r1], #-1887	; 0xfffff8a1
 4a8:	65725f65 	ldrbvs	r5, [r2, #-3941]!	; 0xfffff09b
 4ac:	35303067 	ldrcc	r3, [r0, #-103]!	; 0xffffff99
 4b0:	00745f63 	rsbseq	r5, r4, r3, ror #30
 4b4:	00000b3f 	andeq	r0, r0, pc, lsr fp
 4b8:	43435f5f 	movtmi	r5, #16223	; 0x3f5f
 4bc:	415f554d 	cmpmi	pc, sp, asr #10
 4c0:	4c434248 	sfmmi	f4, 2, [r3], {72}	; 0x48
 4c4:	41475f4b 	mrsmi	r5, SPSR
 4c8:	5f304554 	svcpl	0x00304554
 4cc:	30474552 	subcc	r4, r7, r2, asr r5
 4d0:	00303630 	eorseq	r3, r0, r0, lsr r6
 4d4:	00000d37 	andeq	r0, r0, r7, lsr sp
 4d8:	63635f5f 	cmnvs	r3, #380	; 0x17c
 4dc:	615f756d 	cmpvs	pc, sp, ror #10
 4e0:	6c636268 	sfmvs	f6, 2, [r3], #-416	; 0xfffffe60
 4e4:	61675f6b 	cmnvs	r7, fp, ror #30
 4e8:	5f306574 	svcpl	0x00306574
 4ec:	30676572 	rsbcc	r6, r7, r2, ror r5
 4f0:	5f303630 	svcpl	0x00303630
 4f4:	0d430074 	stcleq	0, cr0, [r3, #-464]	; 0xfffffe30
 4f8:	5f5f0000 	svcpl	0x005f0000
 4fc:	554d4343 	strbpl	r4, [sp, #-835]	; 0xfffffcbd
 500:	4248415f 	submi	r4, r8, #-1073741801	; 0xc0000017
 504:	5f4b4c43 	svcpl	0x004b4c43
 508:	45544147 	ldrbmi	r4, [r4, #-327]	; 0xfffffeb9
 50c:	45525f31 	ldrbmi	r5, [r2, #-3889]	; 0xfffff0cf
 510:	36303047 	ldrtcc	r3, [r0], -r7, asr #32
 514:	0eb90034 	mrceq	0, 5, r0, cr9, cr4, {1}
 518:	5f5f0000 	svcpl	0x005f0000
 51c:	756d6363 	strbvc	r6, [sp, #-867]!	; 0xfffffc9d
 520:	6268615f 	rsbvs	r6, r8, #-1073741801	; 0xc0000017
 524:	5f6b6c63 	svcpl	0x006b6c63
 528:	65746167 	ldrbvs	r6, [r4, #-359]!	; 0xfffffe99
 52c:	65725f31 	ldrbvs	r5, [r2, #-3889]!	; 0xfffff0cf
 530:	36303067 	ldrtcc	r3, [r0], -r7, rrx
 534:	00745f34 	rsbseq	r5, r4, r4, lsr pc
 538:	00000ec5 	andeq	r0, r0, r5, asr #29
 53c:	43435f5f 	movtmi	r5, #16223	; 0x3f5f
 540:	415f554d 	cmpmi	pc, sp, asr #10
 544:	43304250 	teqmi	r0, #80, 4
 548:	475f4b4c 	ldrbmi	r4, [pc, -ip, asr #22]
 54c:	5f455441 	svcpl	0x00455441
 550:	30474552 	subcc	r4, r7, r2, asr r5
 554:	00383630 	eorseq	r3, r8, r0, lsr r6
 558:	00000f99 	muleq	r0, r9, pc	; <UNPREDICTABLE>
 55c:	63635f5f 	cmnvs	r3, #380	; 0x17c
 560:	615f756d 	cmpvs	pc, sp, ror #10
 564:	63306270 	teqvs	r0, #112, 4
 568:	675f6b6c 	ldrbvs	r6, [pc, -ip, ror #22]
 56c:	5f657461 	svcpl	0x00657461
 570:	30676572 	rsbcc	r6, r7, r2, ror r5
 574:	5f383630 	svcpl	0x00383630
 578:	0fa50074 	svceq	0x00a50074
 57c:	5f5f0000 	svcpl	0x005f0000
 580:	554d4343 	strbpl	r4, [sp, #-835]	; 0xfffffcbd
 584:	4250415f 	subsmi	r4, r0, #-1073741801	; 0xc0000017
 588:	4b4c4331 	blmi	1311254 <__standby_start+0x1311254>
 58c:	5441475f 	strbpl	r4, [r1], #-1887	; 0xfffff8a1
 590:	45525f45 	ldrbmi	r5, [r2, #-3909]	; 0xfffff0bb
 594:	36303047 	ldrtcc	r3, [r0], -r7, asr #32
 598:	10f70043 	rscsne	r0, r7, r3, asr #32
 59c:	5f5f0000 	svcpl	0x005f0000
 5a0:	756d6363 	strbvc	r6, [sp, #-867]!	; 0xfffffc9d
 5a4:	6270615f 	rsbsvs	r6, r0, #-1073741801	; 0xc0000017
 5a8:	6b6c6331 	blvs	1b19274 <__standby_start+0x1b19274>
 5ac:	7461675f 	strbtvc	r6, [r1], #-1887	; 0xfffff8a1
 5b0:	65725f65 	ldrbvs	r5, [r2, #-3941]!	; 0xfffff09b
 5b4:	36303067 	ldrtcc	r3, [r0], -r7, rrx
 5b8:	00745f63 	rsbseq	r5, r4, r3, ror #30
 5bc:	00001103 	andeq	r1, r0, r3, lsl #2
 5c0:	43435f5f 	movtmi	r5, #16223	; 0x3f5f
 5c4:	4d5f554d 	cfldr64mi	mvdx5, [pc, #-308]	; 498 <__standby_start+0x498>
 5c8:	4c55444f 	cfldrdmi	mvd4, [r5], {79}	; 0x4f
 5cc:	435f3045 	cmpmi	pc, #69	; 0x45
 5d0:	8f004b4c 	svchi	0x00004b4c
 5d4:	5f000011 	svcpl	0x00000011
 5d8:	6d63635f 	stclvs	3, cr6, [r3, #-380]!	; 0xfffffe84
 5dc:	6f6d5f75 	svcvs	0x006d5f75
 5e0:	656c7564 	strbvs	r7, [ip, #-1380]!	; 0xfffffa9c
 5e4:	6c635f30 	stclvs	15, cr5, [r3], #-192	; 0xffffff40
 5e8:	00745f6b 	rsbseq	r5, r4, fp, ror #30
 5ec:	0000119b 	muleq	r0, fp, r1
 5f0:	43435f5f 	movtmi	r5, #16223	; 0x3f5f
 5f4:	4d5f554d 	cfldr64mi	mvdx5, [pc, #-308]	; 4c8 <__standby_start+0x4c8>
 5f8:	4c55444f 	cfldrdmi	mvd4, [r5], {79}	; 0x4f
 5fc:	435f3145 	cmpmi	pc, #1073741841	; 0x40000011
 600:	f1004b4c 			; <UNDEFINED> instruction: 0xf1004b4c
 604:	5f000011 	svcpl	0x00000011
 608:	6d63635f 	stclvs	3, cr6, [r3, #-380]!	; 0xfffffe84
 60c:	6f6d5f75 	svcvs	0x006d5f75
 610:	656c7564 	strbvs	r7, [ip, #-1380]!	; 0xfffffa9c
 614:	6c635f31 	stclvs	15, cr5, [r3], #-196	; 0xffffff3c
 618:	00745f6b 	rsbseq	r5, r4, fp, ror #30
 61c:	000011fd 	strdeq	r1, [r0], -sp
 620:	43435f5f 	movtmi	r5, #16223	; 0x3f5f
 624:	4b5f554d 	blmi	17d5b60 <__standby_start+0x17d5b60>
 628:	41505945 	cmpmi	r0, r5, asr #18
 62c:	4c435f44 	mcrrmi	15, 4, r5, r3, cr4
 630:	45525f4b 	ldrbmi	r5, [r2, #-3915]	; 0xfffff0b5
 634:	43303047 	teqmi	r0, #71	; 0x47
 638:	12890034 	addne	r0, r9, #52	; 0x34
 63c:	5f5f0000 	svcpl	0x005f0000
 640:	756d6363 	strbvc	r6, [sp, #-867]!	; 0xfffffc9d
 644:	79656b5f 	stmdbvc	r5!, {r0, r1, r2, r3, r4, r6, r8, r9, fp, sp, lr}^
 648:	5f646170 	svcpl	0x00646170
 64c:	5f6b6c63 	svcpl	0x006b6c63
 650:	30676572 	rsbcc	r6, r7, r2, ror r5
 654:	5f346330 	svcpl	0x00346330
 658:	12950074 	addsne	r0, r5, #116	; 0x74
 65c:	5f5f0000 	svcpl	0x005f0000
 660:	554d4343 	strbpl	r4, [sp, #-835]	; 0xfffffcbd
 664:	5441535f 	strbpl	r5, [r1], #-863	; 0xfffffca1
 668:	4c435f41 	mcrrmi	15, 4, r5, r3, cr1
 66c:	45525f4b 	ldrbmi	r5, [r2, #-3915]	; 0xfffff0b5
 670:	43303047 	teqmi	r0, #71	; 0x47
 674:	12eb0038 	rscne	r0, fp, #56	; 0x38
 678:	5f5f0000 	svcpl	0x005f0000
 67c:	756d6363 	strbvc	r6, [sp, #-867]!	; 0xfffffc9d
 680:	7461735f 	strbtvc	r7, [r1], #-863	; 0xfffffca1
 684:	6c635f61 	stclvs	15, cr5, [r3], #-388	; 0xfffffe7c
 688:	65725f6b 	ldrbvs	r5, [r2, #-3947]!	; 0xfffff095
 68c:	63303067 	teqvs	r0, #103	; 0x67
 690:	00745f38 	rsbseq	r5, r4, r8, lsr pc
 694:	000012f7 	strdeq	r1, [r0], -r7
 698:	43435f5f 	movtmi	r5, #16223	; 0x3f5f
 69c:	555f554d 	ldrbpl	r5, [pc, #-1357]	; 157 <__standby_start+0x157>
 6a0:	435f4253 	cmpmi	pc, #805306373	; 0x30000005
 6a4:	525f4b4c 	subspl	r4, pc, #76, 22	; 0x13000
 6a8:	30304745 	eorscc	r4, r0, r5, asr #14
 6ac:	b9004343 	stmdblt	r0, {r0, r1, r6, r8, r9, lr}
 6b0:	5f000013 	svcpl	0x00000013
 6b4:	6d63635f 	stclvs	3, cr6, [r3, #-380]!	; 0xfffffe84
 6b8:	73755f75 	cmnvc	r5, #468	; 0x1d4
 6bc:	6c635f62 	stclvs	15, cr5, [r3], #-392	; 0xfffffe78
 6c0:	65725f6b 	ldrbvs	r5, [r2, #-3947]!	; 0xfffff095
 6c4:	63303067 	teqvs	r0, #103	; 0x67
 6c8:	00745f63 	rsbseq	r5, r4, r3, ror #30
 6cc:	000013c5 	andeq	r1, r0, r5, asr #7
 6d0:	43435f5f 	movtmi	r5, #16223	; 0x3f5f
 6d4:	475f554d 	ldrbmi	r5, [pc, -sp, asr #10]
 6d8:	435f5350 	cmpmi	pc, #80, 6	; 0x40000001
 6dc:	525f4b4c 	subspl	r4, pc, #76, 22	; 0x13000
 6e0:	30304745 	eorscc	r4, r0, r5, asr #14
 6e4:	09003044 	stmdbeq	r0, {r2, r6, ip, sp}
 6e8:	5f000014 	svcpl	0x00000014
 6ec:	6d63635f 	stclvs	3, cr6, [r3, #-380]!	; 0xfffffe84
 6f0:	70675f75 	rsbvc	r5, r7, r5, ror pc
 6f4:	6c635f73 	stclvs	15, cr5, [r3], #-460	; 0xfffffe34
 6f8:	65725f6b 	ldrbvs	r5, [r2, #-3947]!	; 0xfffff095
 6fc:	64303067 	ldrtvs	r3, [r0], #-103	; 0xffffff99
 700:	00745f30 	rsbseq	r5, r4, r0, lsr pc
 704:	00001415 	andeq	r1, r0, r5, lsl r4
 708:	43435f5f 	movtmi	r5, #16223	; 0x3f5f
 70c:	445f554d 	ldrbmi	r5, [pc], #-1357	; 714 <__standby_start+0x714>
 710:	5f4d4152 	svcpl	0x004d4152
 714:	45544147 	ldrbmi	r4, [r4, #-327]	; 0xfffffeb9
 718:	4745525f 	smlsldmi	r5, r5, pc, r2	; <UNPREDICTABLE>
 71c:	30303130 	eorscc	r3, r0, r0, lsr r1
 720:	00155500 	andseq	r5, r5, r0, lsl #10
 724:	635f5f00 	cmpvs	pc, #0, 30
 728:	5f756d63 	svcpl	0x00756d63
 72c:	6d617264 	sfmvs	f7, 2, [r1, #-400]!	; 0xfffffe70
 730:	7461675f 	strbtvc	r6, [r1], #-1887	; 0xfffff8a1
 734:	65725f65 	ldrbvs	r5, [r2, #-3941]!	; 0xfffff09b
 738:	30313067 	eorscc	r3, r1, r7, rrx
 73c:	00745f30 	rsbseq	r5, r4, r0, lsr pc
 740:	00001561 	andeq	r1, r0, r1, ror #10
 744:	43435f5f 	movtmi	r5, #16223	; 0x3f5f
 748:	465f554d 	ldrbmi	r5, [pc], -sp, asr #10
 74c:	4d454445 	cfstrdmi	mvd4, [r5, #-276]	; 0xfffffeec
 750:	4c435f50 	mcrrmi	15, 5, r5, r3, cr0
 754:	15db004b 	ldrbne	r0, [fp, #75]	; 0x4b
 758:	5f5f0000 	svcpl	0x005f0000
 75c:	756d6363 	strbvc	r6, [sp, #-867]!	; 0xfffffc9d
 760:	6465665f 	strbtvs	r6, [r5], #-1631	; 0xfffff9a1
 764:	5f706d65 	svcpl	0x00706d65
 768:	5f6b6c63 	svcpl	0x006b6c63
 76c:	15e70074 	strbne	r0, [r7, #116]!	; 0x74
 770:	5f5f0000 	svcpl	0x005f0000
 774:	554d4343 	strbpl	r4, [sp, #-835]	; 0xfffffcbd
 778:	44434c5f 	strbmi	r4, [r3], #-3167	; 0xfffff3a1
 77c:	5f304843 	svcpl	0x00304843
 780:	004b4c43 	subeq	r4, fp, r3, asr #24
 784:	0000164f 	andeq	r1, r0, pc, asr #12
 788:	63635f5f 	cmnvs	r3, #380	; 0x17c
 78c:	6c5f756d 	cfldr64vs	mvdx7, [pc], {109}	; 0x6d
 790:	68636463 	stmdavs	r3!, {r0, r1, r5, r6, sl, sp, lr}^
 794:	6c635f30 	stclvs	15, cr5, [r3], #-192	; 0xffffff40
 798:	00745f6b 	rsbseq	r5, r4, fp, ror #30
 79c:	0000165b 	andeq	r1, r0, fp, asr r6
 7a0:	43435f5f 	movtmi	r5, #16223	; 0x3f5f
 7a4:	435f554d 	cmpmi	pc, #322961408	; 0x13400000
 7a8:	53494953 	movtpl	r4, #39251	; 0x9953
 7ac:	4c435f50 	mcrrmi	15, 5, r5, r3, cr0
 7b0:	45525f4b 	ldrbmi	r5, [r2, #-3915]	; 0xfffff0b5
 7b4:	32313047 	eorscc	r3, r1, #71	; 0x47
 7b8:	16c30030 			; <UNDEFINED> instruction: 0x16c30030
 7bc:	5f5f0000 	svcpl	0x005f0000
 7c0:	756d6363 	strbvc	r6, [sp, #-867]!	; 0xfffffc9d
 7c4:	6973635f 	ldmdbvs	r3!, {r0, r1, r2, r3, r4, r6, r8, r9, sp, lr}^
 7c8:	5f707369 	svcpl	0x00707369
 7cc:	5f6b6c63 	svcpl	0x006b6c63
 7d0:	30676572 	rsbcc	r6, r7, r2, ror r5
 7d4:	5f303231 	svcpl	0x00303231
 7d8:	16cf0074 	uxtb16ne	r0, r4
 7dc:	5f5f0000 	svcpl	0x005f0000
 7e0:	554d4343 	strbpl	r4, [sp, #-835]	; 0xfffffcbd
 7e4:	4456545f 	ldrbmi	r5, [r6], #-1119	; 0xfffffba1
 7e8:	4b4c435f 	blmi	131156c <__standby_start+0x131156c>
 7ec:	4745525f 	smlsldmi	r5, r5, pc, r2	; <UNPREDICTABLE>
 7f0:	38323130 	ldmdacc	r2!, {r4, r5, r8, ip, sp}
 7f4:	00172500 	andseq	r2, r7, r0, lsl #10
 7f8:	635f5f00 	cmpvs	pc, #0, 30
 7fc:	5f756d63 	svcpl	0x00756d63
 800:	5f647674 	svcpl	0x00647674
 804:	5f6b6c63 	svcpl	0x006b6c63
 808:	30676572 	rsbcc	r6, r7, r2, ror r5
 80c:	5f383231 	svcpl	0x00383231
 810:	17310074 			; <UNDEFINED> instruction: 0x17310074
 814:	5f5f0000 	svcpl	0x005f0000
 818:	554d4343 	strbpl	r4, [sp, #-835]	; 0xfffffcbd
 81c:	44434c5f 	strbmi	r4, [r3], #-3167	; 0xfffff3a1
 820:	5f314843 	svcpl	0x00314843
 824:	004b4c43 	subeq	r4, fp, r3, asr #24
 828:	000017e1 	andeq	r1, r0, r1, ror #15
 82c:	63635f5f 	cmnvs	r3, #380	; 0x17c
 830:	6c5f756d 	cfldr64vs	mvdx7, [pc], {109}	; 0x6d
 834:	68636463 	stmdavs	r3!, {r0, r1, r5, r6, sl, sp, lr}^
 838:	6c635f31 	stclvs	15, cr5, [r3], #-196	; 0xffffff3c
 83c:	00745f6b 	rsbseq	r5, r4, fp, ror #30
 840:	000017ed 	andeq	r1, r0, sp, ror #15
 844:	43435f5f 	movtmi	r5, #16223	; 0x3f5f
 848:	435f554d 	cmpmi	pc, #322961408	; 0x13400000
 84c:	435f4953 	cmpmi	pc, #1359872	; 0x14c000
 850:	67004b4c 	strvs	r4, [r0, -ip, asr #22]
 854:	5f000018 	svcpl	0x00000018
 858:	6d63635f 	stclvs	3, cr6, [r3, #-380]!	; 0xfffffe84
 85c:	73635f75 	cmnvc	r3, #468	; 0x1d4
 860:	6c635f69 	stclvs	15, cr5, [r3], #-420	; 0xfffffe5c
 864:	00745f6b 	rsbseq	r5, r4, fp, ror #30
 868:	00001873 	andeq	r1, r0, r3, ror r8
 86c:	43435f5f 	movtmi	r5, #16223	; 0x3f5f
 870:	565f554d 	ldrbpl	r5, [pc], -sp, asr #10
 874:	4c435f45 	mcrrmi	15, 4, r5, r3, cr5
 878:	45525f4b 	ldrbmi	r5, [r2, #-3915]	; 0xfffff0b5
 87c:	33313047 	teqcc	r1, #71	; 0x47
 880:	18db0043 	ldmne	fp, {r0, r1, r6}^
 884:	5f5f0000 	svcpl	0x005f0000
 888:	756d6363 	strbvc	r6, [sp, #-867]!	; 0xfffffc9d
 88c:	5f65765f 	svcpl	0x0065765f
 890:	5f6b6c63 	svcpl	0x006b6c63
 894:	30676572 	rsbcc	r6, r7, r2, ror r5
 898:	5f633331 	svcpl	0x00633331
 89c:	18e70074 	stmiane	r7!, {r2, r4, r5, r6}^
 8a0:	5f5f0000 	svcpl	0x005f0000
 8a4:	554d4343 	strbpl	r4, [sp, #-835]	; 0xfffffcbd
 8a8:	4444415f 	strbmi	r4, [r4], #-351	; 0xfffffea1
 8ac:	4c435f41 	mcrrmi	15, 4, r5, r3, cr1
 8b0:	45525f4b 	ldrbmi	r5, [r2, #-3915]	; 0xfffff0b5
 8b4:	34313047 	ldrtcc	r3, [r1], #-71	; 0xffffffb9
 8b8:	19190030 	ldmdbne	r9, {r4, r5}
 8bc:	5f5f0000 	svcpl	0x005f0000
 8c0:	756d6363 	strbvc	r6, [sp, #-867]!	; 0xfffffc9d
 8c4:	6464615f 	strbtvs	r6, [r4], #-351	; 0xfffffea1
 8c8:	6c635f61 	stclvs	15, cr5, [r3], #-388	; 0xfffffe7c
 8cc:	65725f6b 	ldrbvs	r5, [r2, #-3947]!	; 0xfffff095
 8d0:	34313067 	ldrtcc	r3, [r1], #-103	; 0xffffff99
 8d4:	00745f30 	rsbseq	r5, r4, r0, lsr pc
 8d8:	00001925 	andeq	r1, r0, r5, lsr #18
 8dc:	43435f5f 	movtmi	r5, #16223	; 0x3f5f
 8e0:	415f554d 	cmpmi	pc, sp, asr #10
 8e4:	435f5356 	cmpmi	pc, #1476395009	; 0x58000001
 8e8:	525f4b4c 	subspl	r4, pc, #76, 22	; 0x13000
 8ec:	31304745 	teqcc	r0, r5, asr #14
 8f0:	57003434 	smladxpl	r0, r4, r4, r3
 8f4:	5f000019 	svcpl	0x00000019
 8f8:	6d63635f 	stclvs	3, cr6, [r3, #-380]!	; 0xfffffe84
 8fc:	76615f75 	uqsub16vc	r5, r1, r5
 900:	6c635f73 	stclvs	15, cr5, [r3], #-460	; 0xfffffe34
 904:	65725f6b 	ldrbvs	r5, [r2, #-3947]!	; 0xfffff095
 908:	34313067 	ldrtcc	r3, [r1], #-103	; 0xffffff99
 90c:	00745f34 	rsbseq	r5, r4, r4, lsr pc
 910:	00001963 	andeq	r1, r0, r3, ror #18
 914:	43435f5f 	movtmi	r5, #16223	; 0x3f5f
 918:	415f554d 	cmpmi	pc, sp, asr #10
 91c:	435f4543 	cmpmi	pc, #281018368	; 0x10c00000
 920:	525f4b4c 	subspl	r4, pc, #76, 22	; 0x13000
 924:	31304745 	teqcc	r0, r5, asr #14
 928:	ef003834 	svc	0x00003834
 92c:	5f000019 	svcpl	0x00000019
 930:	6d63635f 	stclvs	3, cr6, [r3, #-380]!	; 0xfffffe84
 934:	63615f75 	cmnvs	r1, #468	; 0x1d4
 938:	6c635f65 	stclvs	15, cr5, [r3], #-404	; 0xfffffe6c
 93c:	65725f6b 	ldrbvs	r5, [r2, #-3947]!	; 0xfffff095
 940:	34313067 	ldrtcc	r3, [r1], #-103	; 0xffffff99
 944:	00745f38 	rsbseq	r5, r4, r8, lsr pc
 948:	000019fb 	strdeq	r1, [r0], -fp
 94c:	43435f5f 	movtmi	r5, #16223	; 0x3f5f
 950:	4c5f554d 	cfldr64mi	mvdx5, [pc], {77}	; 0x4d
 954:	5f534456 	svcpl	0x00534456
 958:	5f4b4c43 	svcpl	0x004b4c43
 95c:	30474552 	subcc	r4, r7, r2, asr r5
 960:	00433431 	subeq	r3, r3, r1, lsr r4
 964:	00001a2d 	andeq	r1, r0, sp, lsr #20
 968:	63635f5f 	cmnvs	r3, #380	; 0x17c
 96c:	6c5f756d 	cfldr64vs	mvdx7, [pc], {109}	; 0x6d
 970:	5f736476 	svcpl	0x00736476
 974:	5f6b6c63 	svcpl	0x006b6c63
 978:	30676572 	rsbcc	r6, r7, r2, ror r5
 97c:	5f633431 	svcpl	0x00633431
 980:	1a390074 	bne	e40b58 <__standby_start+0xe40b58>
 984:	5f5f0000 	svcpl	0x005f0000
 988:	554d4343 	strbpl	r4, [sp, #-835]	; 0xfffffcbd
 98c:	4d44485f 	stclmi	8, cr4, [r4, #-380]	; 0xfffffe84
 990:	4c435f49 	mcrrmi	15, 4, r5, r3, cr9
 994:	45525f4b 	ldrbmi	r5, [r2, #-3915]	; 0xfffff0b5
 998:	35313047 	ldrcc	r3, [r1, #-71]!	; 0xffffffb9
 99c:	1aa10030 	bne	fe840a64 <__bss_end+0xe83ea1c>
 9a0:	5f5f0000 	svcpl	0x005f0000
 9a4:	756d6363 	strbvc	r6, [sp, #-867]!	; 0xfffffc9d
 9a8:	6d64685f 	stclvs	8, cr6, [r4, #-380]!	; 0xfffffe84
 9ac:	6c635f69 	stclvs	15, cr5, [r3], #-420	; 0xfffffe5c
 9b0:	65725f6b 	ldrbvs	r5, [r2, #-3947]!	; 0xfffff095
 9b4:	35313067 	ldrcc	r3, [r1, #-103]!	; 0xffffff99
 9b8:	00745f30 	rsbseq	r5, r4, r0, lsr pc
 9bc:	00001aad 	andeq	r1, r0, sp, lsr #21
 9c0:	43435f5f 	movtmi	r5, #16223	; 0x3f5f
 9c4:	4d5f554d 	cfldr64mi	mvdx5, [pc, #-308]	; 898 <__standby_start+0x898>
 9c8:	34494c41 	strbcc	r4, [r9], #-3137	; 0xfffff3bf
 9cc:	435f3030 	cmpmi	pc, #48	; 0x30
 9d0:	525f4b4c 	subspl	r4, pc, #76, 22	; 0x13000
 9d4:	31304745 	teqcc	r0, r5, asr #14
 9d8:	27003435 	smladxcs	r0, r5, r4, r3
 9dc:	5f00001b 	svcpl	0x0000001b
 9e0:	6d63635f 	stclvs	3, cr6, [r3, #-380]!	; 0xfffffe84
 9e4:	616d5f75 	smcvs	54773	; 0xd5f5
 9e8:	3034696c 	eorscc	r6, r4, ip, ror #18
 9ec:	6c635f30 	stclvs	15, cr5, [r3], #-192	; 0xffffff40
 9f0:	65725f6b 	ldrbvs	r5, [r2, #-3947]!	; 0xfffff095
 9f4:	35313067 	ldrcc	r3, [r1, #-103]!	; 0xffffff99
 9f8:	00745f34 	rsbseq	r5, r4, r4, lsr pc
 9fc:	00001b33 	andeq	r1, r0, r3, lsr fp
 a00:	43435f5f 	movtmi	r5, #16223	; 0x3f5f
 a04:	525f554d 	subspl	r5, pc, #322961408	; 0x13400000
 a08:	4c5f4745 	mrrcmi	7, 4, r4, pc, cr5	; <UNPREDICTABLE>
 a0c:	00545349 	subseq	r5, r4, r9, asr #6
 a10:	00002094 	muleq	r0, r4, r0
 a14:	63635f5f 	cmnvs	r3, #380	; 0x17c
 a18:	725f756d 	subsvc	r7, pc, #457179136	; 0x1b400000
 a1c:	6c5f6765 	mrrcvs	7, 6, r6, pc, cr5	; <UNPREDICTABLE>
 a20:	5f747369 	svcpl	0x00747369
 a24:	20a00074 	adccs	r0, r0, r4, ror r0
 a28:	75730000 	ldrbvc	r0, [r3, #-0]!
 a2c:	5f69346e 	svcpl	0x0069346e
 a30:	5f6b6c63 	svcpl	0x006b6c63
 a34:	5f766964 	svcpl	0x00766964
 a38:	00000074 	andeq	r0, r0, r4, ror r0
 a3c:	00220000 	eoreq	r0, r2, r0
 a40:	00020000 	andeq	r0, r2, r0
 a44:	00002839 	andeq	r2, r0, r9, lsr r8
 a48:	0000053f 	andeq	r0, r0, pc, lsr r5
 a4c:	00000064 	andeq	r0, r0, r4, rrx
 a50:	33735f5f 	cmncc	r3, #380	; 0x17c
 a54:	006f0032 	rsbeq	r0, pc, r2, lsr r0	; <UNPREDICTABLE>
 a58:	5f5f0000 	svcpl	0x005f0000
 a5c:	00323375 	eorseq	r3, r2, r5, ror r3
 a60:	00000000 	andeq	r0, r0, r0
 a64:	0000004e 	andeq	r0, r0, lr, asr #32
 a68:	2d780002 	ldclcs	0, cr0, [r8, #-8]!
 a6c:	06540000 	ldrbeq	r0, [r4], -r0
 a70:	00480000 	subeq	r0, r8, r0
 a74:	72640000 	rsbvc	r0, r4, #0
 a78:	705f6d61 	subsvc	r6, pc, r1, ror #26
 a7c:	5f617261 	svcpl	0x00617261
 a80:	01890074 	orreq	r0, r9, r4, ror r0
 a84:	5f5f0000 	svcpl	0x005f0000
 a88:	00323373 	eorseq	r3, r2, r3, ror r3
 a8c:	00000194 	muleq	r0, r4, r1
 a90:	33755f5f 	cmncc	r5, #380	; 0x17c
 a94:	01a60032 			; <UNDEFINED> instruction: 0x01a60032
 a98:	5f5f0000 	svcpl	0x005f0000
 a9c:	00343675 	eorseq	r3, r4, r5, ror r6
 aa0:	000001b8 			; <UNDEFINED> instruction: 0x000001b8
 aa4:	72645f5f 	rsbvc	r5, r4, #380	; 0x17c
 aa8:	705f6d61 	subsvc	r6, pc, r1, ror #26
 aac:	5f617261 	svcpl	0x00617261
 ab0:	00000074 	andeq	r0, r0, r4, ror r0
 ab4:	004f0000 	subeq	r0, pc, r0
 ab8:	00020000 	andeq	r0, r2, r0
 abc:	000033cc 	andeq	r3, r0, ip, asr #7
 ac0:	0000035a 	andeq	r0, r0, sl, asr r3
 ac4:	0000004f 	andeq	r0, r0, pc, asr #32
 ac8:	33735f5f 	cmncc	r3, #380	; 0x17c
 acc:	005a0032 	subseq	r0, sl, r2, lsr r0
 ad0:	5f5f0000 	svcpl	0x005f0000
 ad4:	00323375 	eorseq	r3, r2, r5, ror r3
 ad8:	00000088 	andeq	r0, r0, r8, lsl #1
 adc:	65746e69 	ldrbvs	r6, [r4, #-3689]!	; 0xfffff197
 ae0:	70757272 	rsbsvc	r7, r5, r2, ror r2
 ae4:	6f735f74 	svcvs	0x00735f74
 ae8:	65637275 	strbvs	r7, [r3, #-629]!	; 0xfffffd8b
 aec:	eb00655f 	bl	1a070 <__standby_start+0x1a070>
 af0:	73000000 	movwvc	r0, #0
 af4:	646e6174 	strbtvs	r6, [lr], #-372	; 0xfffffe8c
 af8:	695f7962 	ldmdbvs	pc, {r1, r5, r6, r8, fp, ip, sp, lr}^	; <UNPREDICTABLE>
 afc:	725f746e 	subsvc	r7, pc, #1845493760	; 0x6e000000
 b00:	745f6765 	ldrbvc	r6, [pc], #-1893	; b08 <__standby_start+0xb08>
 b04:	00000000 	andeq	r0, r0, r0
 b08:	00001800 	andeq	r1, r0, r0, lsl #16
 b0c:	26000200 	strcs	r0, [r0], -r0, lsl #4
 b10:	c9000037 	stmdbgt	r0, {r0, r1, r2, r4, r5}
 b14:	4f000000 	svcmi	0x00000000
 b18:	5f000000 	svcpl	0x00000000
 b1c:	3233735f 	eorscc	r7, r3, #2080374785	; 0x7c000001
 b20:	00000000 	andeq	r0, r0, r0
 b24:	00005000 	andeq	r5, r0, r0
 b28:	ef000200 	svc	0x00000200
 b2c:	7a000037 	bvc	c10 <__standby_start+0xc10>
 b30:	4f000001 	svcmi	0x00000001
 b34:	5f000000 	svcpl	0x00000000
 b38:	3233735f 	eorscc	r7, r3, #2080374785	; 0x7c000001
 b3c:	00005a00 	andeq	r5, r0, r0, lsl #20
 b40:	755f5f00 	ldrbvc	r5, [pc, #-3840]	; fffffc48 <__bss_end+0xfffdc00>
 b44:	78003233 	stmdavc	r0, {r0, r1, r4, r5, r9, ip, sp}
 b48:	5f000000 	svcpl	0x00000000
 b4c:	4154535f 	cmpmi	r4, pc, asr r3
 b50:	5942444e 	stmdbpl	r2, {r1, r2, r3, r6, sl, lr}^
 b54:	59454b5f 	stmdbpl	r5, {r0, r1, r2, r3, r4, r6, r8, r9, fp, lr}^
 b58:	4745525f 	smlsldmi	r5, r5, pc, r2	; <UNPREDICTABLE>
 b5c:	0000cb00 	andeq	ip, r0, r0, lsl #22
 b60:	735f5f00 	cmpvc	pc, #0, 30
 b64:	646e6174 	strbtvs	r6, [lr], #-372	; 0xfffffe8c
 b68:	6b5f7962 	blvs	17df0f8 <__standby_start+0x17df0f8>
 b6c:	725f7965 	subsvc	r7, pc, #1654784	; 0x194000
 b70:	745f6765 	ldrbvc	r6, [pc], #-1893	; b78 <__standby_start+0xb78>
 b74:	00000000 	andeq	r0, r0, r0
 b78:	00005f00 	andeq	r5, r0, r0, lsl #30
 b7c:	69000200 	stmdbvs	r0, {r9}
 b80:	ce000039 	mcrgt	0, 0, r0, cr0, cr9, {1}
 b84:	41000003 	tstmi	r0, r3
 b88:	5f000000 	svcpl	0x00000000
 b8c:	0038755f 	eorseq	r7, r8, pc, asr r5
 b90:	0000005a 	andeq	r0, r0, sl, asr r0
 b94:	33735f5f 	cmncc	r3, #380	; 0x17c
 b98:	00650032 	rsbeq	r0, r5, r2, lsr r0
 b9c:	5f5f0000 	svcpl	0x005f0000
 ba0:	00323375 	eorseq	r3, r2, r5, ror r3
 ba4:	0000007e 	andeq	r0, r0, lr, ror r0
 ba8:	65776f70 	ldrbvs	r6, [r7, #-3952]!	; 0xfffff090
 bac:	6f765f72 	svcvs	0x00765f72
 bb0:	79745f6c 	ldmdbvc	r4!, {r2, r3, r5, r6, r8, r9, sl, fp, ip, lr}^
 bb4:	655f6570 	ldrbvs	r6, [pc, #-1392]	; 64c <__standby_start+0x64c>
 bb8:	0000b500 	andeq	fp, r0, r0, lsl #10
 bbc:	70786100 	rsbsvc	r6, r8, r0, lsl #2
 bc0:	666e695f 			; <UNDEFINED> instruction: 0x666e695f
 bc4:	0123006f 	teqeq	r3, pc, rrx
 bc8:	77740000 	ldrbvc	r0, [r4, -r0]!
 bcc:	706f5f69 	rsbvc	r5, pc, r9, ror #30
 bd0:	7079745f 	rsbsvc	r7, r9, pc, asr r4
 bd4:	00655f65 	rsbeq	r5, r5, r5, ror #30
 bd8:	00000000 	andeq	r0, r0, r0
 bdc:	00000065 	andeq	r0, r0, r5, rrx
 be0:	3d370002 	ldccc	0, cr0, [r7, #-8]!
 be4:	05380000 	ldreq	r0, [r8, #-0]!
 be8:	004f0000 	subeq	r0, pc, r0
 bec:	5f5f0000 	svcpl	0x005f0000
 bf0:	00323373 	eorseq	r3, r2, r3, ror r3
 bf4:	0000005a 	andeq	r0, r0, sl, asr r0
 bf8:	33755f5f 	cmncc	r5, #380	; 0x17c
 bfc:	00880032 	addeq	r0, r8, r2, lsr r0
 c00:	5f5f0000 	svcpl	0x005f0000
 c04:	4e415453 	mcrmi	4, 2, r5, cr1, cr3, {2}
 c08:	5f594244 	svcpl	0x00594244
 c0c:	5f524d54 	svcpl	0x00524d54
 c10:	00474552 	subeq	r4, r7, r2, asr r5
 c14:	0000037c 	andeq	r0, r0, ip, ror r3
 c18:	74735f5f 	ldrbtvc	r5, [r3], #-3935	; 0xfffff0a1
 c1c:	62646e61 	rsbvs	r6, r4, #1552	; 0x610
 c20:	6d745f79 	ldclvs	15, cr5, [r4, #-484]!	; 0xfffffe1c
 c24:	65725f72 	ldrbvs	r5, [r2, #-3954]!	; 0xfffff08e
 c28:	00745f67 	rsbseq	r5, r4, r7, ror #30
 c2c:	00000387 	andeq	r0, r0, r7, lsl #7
 c30:	5f726d74 	svcpl	0x00726d74
 c34:	6e657665 	cdpvs	6, 6, cr7, cr5, cr5, {3}
 c38:	79745f74 	ldmdbvc	r4!, {r2, r4, r5, r6, r8, r9, sl, fp, ip, lr}^
 c3c:	655f6570 	ldrbvs	r6, [pc, #-1392]	; 6d4 <__standby_start+0x6d4>
 c40:	00000000 	andeq	r0, r0, r0
 c44:	00005f00 	andeq	r5, r0, r0, lsl #30
 c48:	6f000200 	svcvs	0x00000200
 c4c:	c0000042 	andgt	r0, r0, r2, asr #32
 c50:	41000002 	tstmi	r0, r2
 c54:	5f000000 	svcpl	0x00000000
 c58:	0038755f 	eorseq	r7, r8, pc, asr r5
 c5c:	0000005a 	andeq	r0, r0, sl, asr r0
 c60:	33735f5f 	cmncc	r3, #380	; 0x17c
 c64:	00650032 	rsbeq	r0, r5, r2, lsr r0
 c68:	5f5f0000 	svcpl	0x005f0000
 c6c:	00323375 	eorseq	r3, r2, r5, ror r3
 c70:	0000007e 	andeq	r0, r0, lr, ror r0
 c74:	5f676174 	svcpl	0x00676174
 c78:	63697774 	cmnvs	r9, #116, 14	; 0x1d00000
 c7c:	6765725f 			; <UNDEFINED> instruction: 0x6765725f
 c80:	00010e00 	andeq	r0, r1, r0, lsl #28
 c84:	745f5f00 	ldrbvc	r5, [pc], #-3840	; c8c <__standby_start+0xc8c>
 c88:	5f636977 	svcpl	0x00636977
 c8c:	5f676572 	svcpl	0x00676572
 c90:	01190074 	tsteq	r9, r4, ror r0
 c94:	77740000 	ldrbvc	r0, [r4, -r0]!
 c98:	706f5f69 	rsbvc	r5, pc, r9, ror #30
 c9c:	7079745f 	rsbsvc	r7, r9, pc, asr r4
 ca0:	00655f65 	rsbeq	r5, r5, r5, ror #30
 ca4:	00000000 	andeq	r0, r0, r0
 ca8:	00000022 	andeq	r0, r0, r2, lsr #32
 cac:	452f0002 	strmi	r0, [pc, #-2]!	; cb2 <__standby_start+0xcb2>
 cb0:	00e80000 	rsceq	r0, r8, r0
 cb4:	004f0000 	subeq	r0, pc, r0
 cb8:	5f5f0000 	svcpl	0x005f0000
 cbc:	00323373 	eorseq	r3, r2, r3, ror r3
 cc0:	0000005a 	andeq	r0, r0, sl, asr r0
 cc4:	33755f5f 	cmncc	r5, #380	; 0x17c
 cc8:	00000032 	andeq	r0, r0, r2, lsr r0
	...

Disassembly of section .debug_aranges:

00000000 <.debug_aranges>:
   0:	0000001c 	andeq	r0, r0, ip, lsl r0
   4:	00000002 	andeq	r0, r0, r2
   8:	00040000 	andeq	r0, r4, r0
   c:	00000000 	andeq	r0, r0, r0
  10:	f0000000 			; <UNDEFINED> instruction: 0xf0000000
  14:	00000350 	andeq	r0, r0, r0, asr r3
	...
  20:	0000001c 	andeq	r0, r0, ip, lsl r0
  24:	03870002 	orreq	r0, r7, #2
  28:	00040000 	andeq	r0, r4, r0
  2c:	00000000 	andeq	r0, r0, r0
  30:	f0000350 			; <UNDEFINED> instruction: 0xf0000350
  34:	0000003c 	andeq	r0, r0, ip, lsr r0
	...
  40:	0000001c 	andeq	r0, r0, ip, lsl r0
  44:	04a20002 	strteq	r0, [r2], #2
  48:	00040000 	andeq	r0, r4, r0
  4c:	00000000 	andeq	r0, r0, r0
  50:	f000038c 			; <UNDEFINED> instruction: 0xf000038c
  54:	00000124 	andeq	r0, r0, r4, lsr #2
	...
  60:	0000001c 	andeq	r0, r0, ip, lsl r0
  64:	05190002 	ldreq	r0, [r9, #-2]
  68:	00040000 	andeq	r0, r4, r0
  6c:	00000000 	andeq	r0, r0, r0
  70:	f00004b0 			; <UNDEFINED> instruction: 0xf00004b0
  74:	00000444 	andeq	r0, r0, r4, asr #8
	...
  80:	0000001c 	andeq	r0, r0, ip, lsl r0
  84:	28390002 	ldmdacs	r9!, {r1}
  88:	00040000 	andeq	r0, r4, r0
  8c:	00000000 	andeq	r0, r0, r0
  90:	f00008f4 			; <UNDEFINED> instruction: 0xf00008f4
  94:	000003ac 	andeq	r0, r0, ip, lsr #7
	...
  a0:	0000001c 	andeq	r0, r0, ip, lsl r0
  a4:	2d780002 	ldclcs	0, cr0, [r8, #-8]!
  a8:	00040000 	andeq	r0, r4, r0
  ac:	00000000 	andeq	r0, r0, r0
  b0:	f0000ca0 			; <UNDEFINED> instruction: 0xf0000ca0
  b4:	00000690 	muleq	r0, r0, r6
	...
  c0:	0000001c 	andeq	r0, r0, ip, lsl r0
  c4:	33cc0002 	biccc	r0, ip, #2
  c8:	00040000 	andeq	r0, r4, r0
  cc:	00000000 	andeq	r0, r0, r0
  d0:	f0001330 			; <UNDEFINED> instruction: 0xf0001330
  d4:	00000168 	andeq	r0, r0, r8, ror #2
	...
  e0:	0000001c 	andeq	r0, r0, ip, lsl r0
  e4:	37260002 	strcc	r0, [r6, -r2]!
  e8:	00040000 	andeq	r0, r4, r0
  ec:	00000000 	andeq	r0, r0, r0
  f0:	f0001498 			; <UNDEFINED> instruction: 0xf0001498
  f4:	00000020 	andeq	r0, r0, r0, lsr #32
	...
 100:	0000001c 	andeq	r0, r0, ip, lsl r0
 104:	37ef0002 	strbcc	r0, [pc, r2]!
 108:	00040000 	andeq	r0, r4, r0
 10c:	00000000 	andeq	r0, r0, r0
 110:	f00014b8 			; <UNDEFINED> instruction: 0xf00014b8
 114:	000000a0 	andeq	r0, r0, r0, lsr #1
	...
 120:	0000001c 	andeq	r0, r0, ip, lsl r0
 124:	39690002 	stmdbcc	r9!, {r1}^
 128:	00040000 	andeq	r0, r4, r0
 12c:	00000000 	andeq	r0, r0, r0
 130:	f0001558 			; <UNDEFINED> instruction: 0xf0001558
 134:	00000340 	andeq	r0, r0, r0, asr #6
	...
 140:	0000001c 	andeq	r0, r0, ip, lsl r0
 144:	3d370002 	ldccc	0, cr0, [r7, #-8]!
 148:	00040000 	andeq	r0, r4, r0
 14c:	00000000 	andeq	r0, r0, r0
 150:	f0001898 			; <UNDEFINED> instruction: 0xf0001898
 154:	000001f0 	strdeq	r0, [r0], -r0	; <UNPREDICTABLE>
	...
 160:	0000001c 	andeq	r0, r0, ip, lsl r0
 164:	426f0002 	rsbmi	r0, pc, #2
 168:	00040000 	andeq	r0, r4, r0
 16c:	00000000 	andeq	r0, r0, r0
 170:	f0001a88 			; <UNDEFINED> instruction: 0xf0001a88
 174:	00000338 	andeq	r0, r0, r8, lsr r3
	...
 180:	0000001c 	andeq	r0, r0, ip, lsl r0
 184:	452f0002 	strmi	r0, [pc, #-2]!	; 18a <__standby_start+0x18a>
 188:	00040000 	andeq	r0, r4, r0
 18c:	00000000 	andeq	r0, r0, r0
 190:	f0001dc0 			; <UNDEFINED> instruction: 0xf0001dc0
 194:	00000020 	andeq	r0, r0, r0, lsr #32
	...
 1a0:	0000001c 	andeq	r0, r0, ip, lsl r0
 1a4:	46170002 	ldrmi	r0, [r7], -r2
 1a8:	00040000 	andeq	r0, r4, r0
 1ac:	00000000 	andeq	r0, r0, r0
 1b0:	f0001de0 			; <UNDEFINED> instruction: 0xf0001de0
 1b4:	0000000c 	andeq	r0, r0, ip
	...

Disassembly of section .debug_str:

00000000 <.debug_str>:
       0:	5f757063 	svcpl	0x00757063
       4:	00766964 	rsbseq	r6, r6, r4, ror #18
       8:	5f544e49 	svcpl	0x00544e49
       c:	52554f53 	subspl	r4, r5, #332	; 0x14c
      10:	555f4543 	ldrbpl	r4, [pc, #-1347]	; fffffad5 <__bss_end+0xfffda8d>
      14:	00304253 	eorseq	r4, r0, r3, asr r2
      18:	5f544e49 	svcpl	0x00544e49
      1c:	52554f53 	subspl	r4, r5, #332	; 0x14c
      20:	555f4543 	ldrbpl	r4, [pc, #-1347]	; fffffae5 <__bss_end+0xfffda9d>
      24:	00314253 	eorseq	r4, r1, r3, asr r2
      28:	6d617264 	sfmvs	f7, 2, [r1, #-400]!	; 0xfffffe70
      2c:	6172745f 	cmnvs	r2, pc, asr r4
      30:	676e696e 	strbvs	r6, [lr, -lr, ror #18]!
      34:	6572615f 	ldrbvs	r6, [r2, #-351]!	; 0xfffffea1
      38:	61625f61 	cmnvs	r2, r1, ror #30
      3c:	49006b63 	stmdbmi	r0, {r0, r1, r5, r6, r8, r9, fp, sp, lr}
      40:	535f544e 	cmppl	pc, #1308622848	; 0x4e000000
      44:	4352554f 	cmpmi	r2, #331350016	; 0x13c00000
      48:	53555f45 	cmppl	r5, #276	; 0x114
      4c:	49003342 	stmdbmi	r0, {r1, r6, r8, r9, ip, sp}
      50:	535f544e 	cmppl	pc, #1308622848	; 0x4e000000
      54:	4352554f 	cmpmi	r2, #331350016	; 0x13c00000
      58:	53555f45 	cmppl	r5, #276	; 0x114
      5c:	74003442 	strvc	r3, [r0], #-1090	; 0xfffffbbe
      60:	5f656d69 	svcpl	0x00656d69
      64:	0066666f 	rsbeq	r6, r6, pc, ror #12
      68:	5f544e49 	svcpl	0x00544e49
      6c:	52554f53 	subspl	r4, r5, #332	; 0x14c
      70:	555f4543 	ldrbpl	r4, [pc, #-1347]	; fffffb35 <__bss_end+0xfffdaed>
      74:	00324253 	eorseq	r4, r2, r3, asr r2
      78:	73625f5f 	cmnvc	r2, #380	; 0x17c
      7c:	6e655f73 	mcrvs	15, 3, r5, cr5, cr3, {3}
      80:	72640064 	rsbvc	r0, r4, #100	; 0x64
      84:	705f6d61 	subsvc	r6, pc, r1, ror #26
      88:	7265776f 	rsbvc	r7, r5, #29097984	; 0x1bc0000
      8c:	5f70755f 	svcpl	0x0070755f
      90:	636f7270 	cmnvs	pc, #112, 4
      94:	00737365 	rsbseq	r7, r3, r5, ror #6
      98:	6e69616d 	powvsez	f6, f1, #5.0
      9c:	69786100 	ldmdbvs	r8!, {r8, sp, lr}^
      a0:	7669645f 			; <UNDEFINED> instruction: 0x7669645f
      a4:	544e4900 	strbpl	r4, [lr], #-2304	; 0xfffff700
      a8:	554f535f 	strbpl	r5, [pc, #-863]	; fffffd51 <__bss_end+0xfffdd09>
      ac:	5f454352 	svcpl	0x00454352
      b0:	43554f54 	cmpmi	r5, #84, 30	; 0x150
      b4:	4c4e5048 	mcrrmi	0, 4, r5, lr, cr8
      b8:	746e6900 	strbtvc	r6, [lr], #-2304	; 0xfffff700
      bc:	75727265 	ldrbvc	r7, [r2, #-613]!	; 0xfffffd9b
      c0:	735f7470 	cmpvc	pc, #112, 8	; 0x70000000
      c4:	6372756f 	cmnvs	r2, #465567744	; 0x1bc00000
      c8:	00655f65 	rsbeq	r5, r5, r5, ror #30
      cc:	45574f50 	ldrbmi	r4, [r7, #-3920]	; 0xfffff0b0
      d0:	4f565f52 	svcmi	0x00565f52
      d4:	43445f4c 	movtmi	r5, #20300	; 0x4f4c
      d8:	00314344 	eorseq	r4, r1, r4, asr #6
      dc:	45574f50 	ldrbmi	r4, [r7, #-3920]	; 0xfffff0b0
      e0:	4f565f52 	svcmi	0x00565f52
      e4:	43445f4c 	movtmi	r5, #20300	; 0x4f4c
      e8:	00324344 	eorseq	r4, r2, r4, asr #6
      ec:	45574f50 	ldrbmi	r4, [r7, #-3920]	; 0xfffff0b0
      f0:	4f565f52 	svcmi	0x00565f52
      f4:	43445f4c 	movtmi	r5, #20300	; 0x4f4c
      f8:	00334344 	eorseq	r4, r3, r4, asr #6
      fc:	33755f5f 	cmncc	r5, #380	; 0x17c
     100:	72640032 	rsbvc	r0, r4, #50	; 0x32
     104:	705f6d61 	subsvc	r6, pc, r1, ror #26
     108:	7265776f 	rsbvc	r7, r5, #29097984	; 0x1bc0000
     10c:	7661735f 			; <UNDEFINED> instruction: 0x7661735f
     110:	72705f65 	rsbsvc	r5, r0, #404	; 0x194
     114:	7365636f 	cmnvc	r5, #-1140850687	; 0xbc000001
     118:	77740073 			; <UNDEFINED> instruction: 0x77740073
     11c:	6f705f69 	svcvs	0x00705f69
     120:	61007472 	tstvs	r0, r2, ror r4
     124:	645f6270 	ldrbvs	r6, [pc], #-624	; 12c <__standby_start+0x12c>
     128:	6c007669 	stcvs	6, cr7, [r0], {105}	; 0x69
     12c:	20676e6f 	rsbcs	r6, r7, pc, ror #28
     130:	676e6f6c 	strbvs	r6, [lr, -ip, ror #30]!
     134:	746e6920 	strbtvc	r6, [lr], #-2336	; 0xfffff6e0
     138:	62686100 	rsbvs	r6, r8, #0, 2
     13c:	7669645f 			; <UNDEFINED> instruction: 0x7669645f
     140:	6f682f00 	svcvs	0x00682f00
     144:	732f656d 	teqvc	pc, #457179136	; 0x1b400000
     148:	61353636 	teqvs	r5, r6, lsr r6
     14c:	6b2f3031 	blvs	bcc218 <__standby_start+0xbcc218>
     150:	2f30316b 	svccs	0x0030316b
     154:	6863696c 	stmdavs	r3!, {r2, r3, r5, r6, r8, fp, sp, lr}^
     158:	6c2f6565 	cfstr32vs	mvfx6, [pc], #-404	; ffffffcc <__bss_end+0xfffdf84>
     15c:	78756e69 	ldmdavc	r5!, {r0, r3, r5, r6, r9, sl, fp, sp, lr}^
     160:	362e322d 	strtcc	r3, [lr], -sp, lsr #4
     164:	2f36332e 	svccs	0x0036332e
     168:	68637261 	stmdavs	r3!, {r0, r5, r6, r9, ip, sp, lr}^
     16c:	6d72612f 	ldfvse	f6, [r2, #-188]!	; 0xffffff44
     170:	63616d2f 	cmnvs	r1, #3008	; 0xbc0
     174:	75732d68 	ldrbvc	r2, [r3, #-3432]!	; 0xfffff298
     178:	2f69346e 	svccs	0x0069346e
     17c:	732f6d70 	teqvc	pc, #112, 26	; 0x1c00
     180:	646e6174 	strbtvs	r6, [lr], #-372	; 0xfffffe8c
     184:	61007962 	tstvs	r0, r2, ror #18
     188:	6d705f77 	ldclvs	15, cr5, [r0, #-476]!	; 0xfffffe24
     18c:	72615f75 	rsbvc	r5, r1, #468	; 0x1d4
     190:	6d740067 	ldclvs	0, cr0, [r4, #-412]!	; 0xfffffe64
     194:	72745070 	rsbsvc	r5, r4, #112	; 0x70
     198:	706d7400 	rsbvc	r7, sp, r0, lsl #8
     19c:	6b6c635f 	blvs	1b18f20 <__standby_start+0x1b18f20>
     1a0:	7669645f 			; <UNDEFINED> instruction: 0x7669645f
     1a4:	735f5f00 	cmpvc	pc, #0, 30
     1a8:	646e6174 	strbtvs	r6, [lr], #-372	; 0xfffffe8c
     1ac:	735f7962 	cmpvc	pc, #1605632	; 0x188000
     1b0:	74726174 	ldrbtvc	r6, [r2], #-372	; 0xfffffe8c
     1b4:	61747300 	cmnvs	r4, r0, lsl #6
     1b8:	7962646e 	stmdbvc	r2!, {r1, r2, r3, r5, r6, sl, sp, lr}^
     1bc:	726d745f 	rsbvc	r7, sp, #1593835520	; 0x5f000000
     1c0:	7465735f 	strbtvc	r7, [r5], #-863	; 0xfffffca1
     1c4:	625f5f00 	subsvs	r5, pc, #0, 30
     1c8:	735f7373 	cmpvc	pc, #-872415231	; 0xcc000001
     1cc:	74726174 	ldrbtvc	r6, [r2], #-372	; 0xfffffe8c
     1d0:	736e7500 	cmnvc	lr, #0, 10
     1d4:	656e6769 	strbvs	r6, [lr, #-1897]!	; 0xfffff897
     1d8:	68632064 	stmdavs	r3!, {r2, r5, r6, sp}^
     1dc:	73007261 	movwvc	r7, #609	; 0x261
     1e0:	74726f68 	ldrbtvc	r6, [r2], #-3944	; 0xfffff098
     1e4:	746e6920 	strbtvc	r6, [lr], #-2336	; 0xfffff6e0
     1e8:	574f5000 	strbpl	r5, [pc, -r0]
     1ec:	565f5245 	ldrbpl	r5, [pc], -r5, asr #4
     1f0:	4c5f4c4f 	mrrcmi	12, 4, r4, pc, cr15	; <UNPREDICTABLE>
     1f4:	00314f44 	eorseq	r4, r1, r4, asr #30
     1f8:	45574f50 	ldrbmi	r4, [r7, #-3920]	; 0xfffff0b0
     1fc:	4f565f52 	svcmi	0x00565f52
     200:	444c5f4c 	strbmi	r5, [ip], #-3916	; 0xfffff0b4
     204:	5000324f 	andpl	r3, r0, pc, asr #4
     208:	5245574f 	subpl	r5, r5, #20709376	; 0x13c0000
     20c:	4c4f565f 	mcrrmi	6, 5, r5, pc, cr15
     210:	4f444c5f 	svcmi	0x00444c5f
     214:	4f500033 	svcmi	0x00500033
     218:	5f524557 	svcpl	0x00524557
     21c:	5f4c4f56 	svcpl	0x004c4f56
     220:	344f444c 	strbcc	r4, [pc], #-1100	; 228 <__standby_start+0x228>
     224:	6e6f6c00 	cdpvs	12, 6, cr6, cr15, cr0, {0}
     228:	6f6c2067 	svcvs	0x006c2067
     22c:	7520676e 	strvc	r6, [r0, #-1902]!	; 0xfffff892
     230:	6769736e 	strbvs	r7, [r9, -lr, ror #6]!
     234:	2064656e 	rsbcs	r6, r4, lr, ror #10
     238:	00746e69 	rsbseq	r6, r4, r9, ror #28
     23c:	5f766564 	svcpl	0x00766564
     240:	72646461 	rsbvc	r6, r4, #1627389952	; 0x61000000
     244:	5f707300 	svcpl	0x00707300
     248:	6b636162 	blvs	18d87d8 <__standby_start+0x18d87d8>
     24c:	61007075 	tstvs	r0, r5, ror r0
     250:	6d705f77 	ldclvs	15, cr5, [r0, #-476]!	; 0xfffffe24
     254:	666e695f 			; <UNDEFINED> instruction: 0x666e695f
     258:	6f70006f 	svcvs	0x0070006f
     25c:	5f726577 	svcpl	0x00726577
     260:	5f6c6f76 	svcpl	0x006c6f76
     264:	65707974 	ldrbvs	r7, [r0, #-2420]!	; 0xfffff68c
     268:	7300655f 	movwvc	r6, #1375	; 0x55f
     26c:	646e6174 	strbtvs	r6, [lr], #-372	; 0xfffffe8c
     270:	632e7962 	teqvs	lr, #1605632	; 0x188000
     274:	544e4900 	strbpl	r4, [lr], #-2304	; 0xfffff700
     278:	554f535f 	strbpl	r5, [pc, #-863]	; ffffff21 <__bss_end+0xfffded9>
     27c:	5f454352 	svcpl	0x00454352
     280:	4e545845 	cdpmi	8, 5, cr5, cr4, cr5, {2}
     284:	7300494d 	movwvc	r4, #2381	; 0x94d
     288:	74726f68 	ldrbtvc	r6, [r2], #-3944	; 0xfffff098
     28c:	736e7520 	cmnvc	lr, #32, 10	; 0x8000000
     290:	656e6769 	strbvs	r6, [lr, #-1897]!	; 0xfffff897
     294:	6e692064 	cdpvs	0, 6, cr2, cr9, cr4, {3}
     298:	5f5f0074 	svcpl	0x005f0074
     29c:	6e617473 	mcrvs	4, 3, r7, cr1, cr3, {3}
     2a0:	5f796264 	svcpl	0x00796264
     2a4:	00646e65 	rsbeq	r6, r4, r5, ror #28
     2a8:	5f544e49 	svcpl	0x00544e49
     2ac:	52554f53 	subspl	r4, r5, #332	; 0x14c
     2b0:	4c5f4543 	cfldr64mi	mvdx4, [pc], {67}	; 0x43
     2b4:	43444152 	movtmi	r4, #16722	; 0x4152
     2b8:	6e757300 	cdpvs	3, 7, cr7, cr5, cr0, {0}
     2bc:	635f6934 	cmpvs	pc, #52, 18	; 0xd0000
     2c0:	645f6b6c 	ldrbvs	r6, [pc], #-2924	; 2c8 <__standby_start+0x2c8>
     2c4:	745f7669 	ldrbvc	r7, [pc], #-1641	; 2cc <__standby_start+0x2cc>
     2c8:	544e4900 	strbpl	r4, [lr], #-2304	; 0xfffff700
     2cc:	554f535f 	strbpl	r5, [pc, #-863]	; ffffff75 <__bss_end+0xfffdf2d>
     2d0:	5f454352 	svcpl	0x00454352
     2d4:	454d4954 	strbmi	r4, [sp, #-2388]	; 0xfffff6ac
     2d8:	49003052 	stmdbmi	r0, {r1, r4, r6, ip, sp}
     2dc:	535f544e 	cmppl	pc, #1308622848	; 0x4e000000
     2e0:	4352554f 	cmpmi	r2, #331350016	; 0x13c00000
     2e4:	49545f45 	ldmdbmi	r4, {r0, r2, r6, r8, r9, sl, fp, ip, lr}^
     2e8:	3152454d 	cmpcc	r2, sp, asr #10
     2ec:	554e4700 	strbpl	r4, [lr, #-1792]	; 0xfffff900
     2f0:	34204320 	strtcc	r4, [r0], #-800	; 0xfffffce0
     2f4:	312e352e 	teqcc	lr, lr, lsr #10
     2f8:	544e4900 	strbpl	r4, [lr], #-2304	; 0xfffff700
     2fc:	554f535f 	strbpl	r5, [pc, #-863]	; ffffffa5 <__bss_end+0xfffdf5d>
     300:	5f454352 	svcpl	0x00454352
     304:	5059454b 	subspl	r4, r9, fp, asr #10
     308:	61004441 	tstvs	r0, r1, asr #8
     30c:	74735f77 	ldrbtvc	r5, [r3], #-3959	; 0xfffff089
     310:	62646e61 	rsbvs	r6, r4, #1552	; 0x610
     314:	61705f79 	cmnvs	r0, r9, ror pc
     318:	64006172 	strvs	r6, [r0], #-370	; 0xfffffe8e
     31c:	32636463 	rsbcc	r6, r3, #1660944384	; 0x63000000
     320:	64636400 	strbtvs	r6, [r3], #-1024	; 0xfffffc00
     324:	49003363 	stmdbmi	r0, {r0, r1, r5, r6, r8, r9, ip, sp}
     328:	535f544e 	cmppl	pc, #1308622848	; 0x4e000000
     32c:	4352554f 	cmpmi	r2, #331350016	; 0x13c00000
     330:	52495f45 	subpl	r5, r9, #276	; 0x114
     334:	4e490030 	mcrmi	0, 2, r0, cr9, cr0, {1}
     338:	4f535f54 	svcmi	0x00535f54
     33c:	45435255 	strbmi	r5, [r3, #-597]	; 0xfffffdab
     340:	3152495f 	cmpcc	r2, pc, asr r9
     344:	544e4900 	strbpl	r4, [lr], #-2304	; 0xfffff700
     348:	554f535f 	strbpl	r5, [pc, #-863]	; fffffff1 <__bss_end+0xfffdfa9>
     34c:	5f454352 	svcpl	0x00454352
     350:	52414c41 	subpl	r4, r1, #16640	; 0x4100
     354:	6572004d 	ldrbvs	r0, [r2, #-77]!	; 0xffffffb3
     358:	76726573 			; <UNDEFINED> instruction: 0x76726573
     35c:	64006465 	strvs	r6, [r0], #-1125	; 0xfffffb9b
     360:	00747365 	rsbseq	r7, r4, r5, ror #6
     364:	6e617473 	mcrvs	4, 3, r7, cr1, cr3, {3}
     368:	5f796264 	svcpl	0x00796264
     36c:	6c65646d 	cfstrdvs	mvd6, [r5], #-436	; 0xfffffe4c
     370:	74007961 	strvc	r7, [r0], #-2401	; 0xfffff69f
     374:	645f706d 	ldrbvs	r7, [pc], #-109	; 37c <__standby_start+0x37c>
     378:	63007473 	movwvs	r7, #1139	; 0x473
     37c:	6d5f7570 	cfldr64vs	mvdx7, [pc, #-448]	; 1c4 <__standby_start+0x1c4>
     380:	6f6c5f73 	svcvs	0x006c5f73
     384:	6e63706f 	cdpvs	0, 6, cr7, cr3, cr15, {3}
     388:	74730074 	ldrbtvc	r0, [r3], #-116	; 0xffffff8c
     38c:	62646e61 	rsbvs	r6, r4, #1552	; 0x610
     390:	656d5f79 	strbvs	r5, [sp, #-3961]!	; 0xfffff087
     394:	7970636d 	ldmdbvc	r0!, {r0, r2, r3, r5, r6, r8, r9, sp, lr}^
     398:	706d7400 	rsbvc	r7, sp, r0, lsl #8
     39c:	6372735f 	cmnvs	r2, #2080374785	; 0x7c000001
     3a0:	6d6f6300 	stclvs	3, cr6, [pc, #-0]	; 3a8 <__standby_start+0x3a8>
     3a4:	2e6e6f6d 	cdpcs	15, 6, cr6, cr14, cr13, {3}
     3a8:	65520063 	ldrbvs	r0, [r2, #-99]	; 0xffffff9d
     3ac:	00746573 	rsbseq	r6, r4, r3, ror r5
     3b0:	65766157 	ldrbvs	r6, [r6, #-343]!	; 0xfffffea9
     3b4:	70657453 	rsbvc	r7, r5, r3, asr r4
     3b8:	635f5f00 	cmpvs	pc, #0, 30
     3bc:	5f756d63 	svcpl	0x00756d63
     3c0:	63626861 	cmnvs	r2, #6356992	; 0x610000
     3c4:	675f6b6c 	ldrbvs	r6, [pc, -ip, ror #22]
     3c8:	30657461 	rsbcc	r7, r5, r1, ror #8
     3cc:	6765725f 			; <UNDEFINED> instruction: 0x6765725f
     3d0:	30363030 	eorscc	r3, r6, r0, lsr r0
     3d4:	5000745f 	andpl	r7, r0, pc, asr r4
     3d8:	54356c6c 	ldrtpl	r6, [r5], #-3180	; 0xfffff394
     3dc:	32656e75 	rsbcc	r6, r5, #1872	; 0x750
     3e0:	43655600 	cmnmi	r5, #0, 12
     3e4:	5f006b6c 	svcpl	0x00006b6c
     3e8:	6d63635f 	stclvs	3, cr6, [r3, #-380]!	; 0xfffffe84
     3ec:	64685f75 	strbtvs	r5, [r8], #-3957	; 0xfffff08b
     3f0:	635f696d 	cmpvs	pc, #1785856	; 0x1b4000
     3f4:	725f6b6c 	subsvc	r6, pc, #108, 22	; 0x1b000
     3f8:	31306765 	teqcc	r0, r5, ror #14
     3fc:	745f3035 	ldrbvc	r3, [pc], #-53	; 404 <__standby_start+0x404>
     400:	6c6c5000 	stclvs	0, cr5, [ip], #-0
     404:	6e755437 	mrcvs	4, 3, r5, cr5, cr7, {1}
     408:	5f5f0065 	svcpl	0x005f0065
     40c:	554d4343 	strbpl	r4, [sp, #-835]	; 0xfffffcbd
     410:	4248415f 	submi	r4, r8, #-1073741801	; 0xc0000017
     414:	5f4b4c43 	svcpl	0x004b4c43
     418:	45544147 	ldrbmi	r4, [r4, #-327]	; 0xfffffeb9
     41c:	45525f30 	ldrbmi	r5, [r2, #-3888]	; 0xfffff0d0
     420:	36303047 	ldrtcc	r3, [r0], -r7, asr #32
     424:	73540030 	cmpvc	r4, #48	; 0x30
     428:	65746147 	ldrbvs	r6, [r4, #-327]!	; 0xfffffeb9
     42c:	6c614d00 	stclvs	13, cr4, [r1], #-0
     430:	6b6c4369 	blvs	1b111dc <__standby_start+0x1b111dc>
     434:	69705300 	ldmdbvs	r0!, {r8, r9, ip, lr}^
     438:	74614733 	strbtvc	r4, [r1], #-1843	; 0xfffff8cd
     43c:	70530065 	subsvc	r0, r3, r5, rrx
     440:	6c433169 	stfvse	f3, [r3], {105}	; 0x69
     444:	7654006b 	ldrbvc	r0, [r4], -fp, rrx
     448:	61473165 	mrsvs	r3, SPSR
     44c:	5f006574 	svcpl	0x00006574
     450:	4d43435f 	stclmi	3, cr4, [r3, #-380]	; 0xfffffe84
     454:	4c505f55 	mrrcmi	15, 5, r5, r0, cr5
     458:	545f324c 	ldrbpl	r3, [pc], #-588	; 460 <__standby_start+0x460>
     45c:	4e494e55 	mcrmi	14, 2, r4, cr9, cr5, {2}
     460:	45525f47 	ldrbmi	r5, [r2, #-3911]	; 0xfffff0b9
     464:	30303047 	eorscc	r3, r0, r7, asr #32
     468:	64530043 	ldrbvs	r0, [r3], #-67	; 0xffffffbd
     46c:	33636d6d 	cmncc	r3, #6976	; 0x1b40
     470:	65746147 	ldrbvs	r6, [r4, #-327]!	; 0xfffffeb9
     474:	61747300 	cmnvs	r4, r0, lsl #6
     478:	7962646e 	stmdbvc	r2!, {r1, r2, r3, r5, r6, sl, sp, lr}^
     47c:	6b6c635f 	blvs	1b19200 <__standby_start+0x1b19200>
     480:	6978655f 	ldmdbvs	r8!, {r0, r1, r2, r3, r4, r6, r8, sl, sp, lr}^
     484:	5f5f0074 	svcpl	0x005f0074
     488:	554d4343 	strbpl	r4, [sp, #-835]	; 0xfffffcbd
     48c:	4445465f 	strbmi	r4, [r5], #-1631	; 0xfffff9a1
     490:	5f504d45 	svcpl	0x00504d45
     494:	004b4c43 	subeq	r4, fp, r3, asr #24
     498:	43435f5f 	movtmi	r5, #16223	; 0x3f5f
     49c:	445f554d 	ldrbmi	r5, [pc], #-1357	; 4a4 <__standby_start+0x4a4>
     4a0:	5f4d4152 	svcpl	0x004d4152
     4a4:	45544147 	ldrbmi	r4, [r4, #-327]	; 0xfffffeb9
     4a8:	4745525f 	smlsldmi	r5, r5, pc, r2	; <UNPREDICTABLE>
     4ac:	30303130 	eorscc	r3, r0, r0, lsr r1
     4b0:	64765400 	ldrbtvs	r5, [r6], #-1024	; 0xfffffc00
     4b4:	65746147 	ldrbvs	r6, [r4, #-327]!	; 0xfffffeb9
     4b8:	635f5f00 	cmpvs	pc, #0, 30
     4bc:	5f756d63 	svcpl	0x00756d63
     4c0:	61646461 	cmnvs	r4, r1, ror #8
     4c4:	6b6c635f 	blvs	1b19248 <__standby_start+0x1b19248>
     4c8:	6765725f 			; <UNDEFINED> instruction: 0x6765725f
     4cc:	30343130 	eorscc	r3, r4, r0, lsr r1
     4d0:	5f00745f 	svcpl	0x0000745f
     4d4:	6d63635f 	stclvs	3, cr6, [r3, #-380]!	; 0xfffffe84
     4d8:	72645f75 	rsbvc	r5, r4, #468	; 0x1d4
     4dc:	675f6d61 	ldrbvs	r6, [pc, -r1, ror #26]
     4e0:	5f657461 	svcpl	0x00657461
     4e4:	30676572 	rsbcc	r6, r7, r2, ror r5
     4e8:	5f303031 	svcpl	0x00303031
     4ec:	65440074 	strbvs	r0, [r4, #-116]	; 0xffffff8c
     4f0:	6c43704d 	mcrrvs	0, 4, r7, r3, cr13
     4f4:	6c50006b 	mrrcvs	0, 6, r0, r0, cr11	; <UNPREDICTABLE>
     4f8:	7443366c 	strbvc	r3, [r3], #-1644	; 0xfffff994
     4fc:	7053006c 	subsvc	r0, r3, ip, rrx
     500:	61473069 	mrsvs	r3, SPSR
     504:	53006574 	movwpl	r6, #1396	; 0x574
     508:	636d4d64 	cmnvs	sp, #100, 26	; 0x1900
     50c:	6b6c4330 	blvs	1b111d4 <__standby_start+0x1b111d4>
     510:	6b6c4300 	blvs	1b11118 <__standby_start+0x1b11118>
     514:	44657250 	strbtmi	r7, [r5], #-592	; 0xfffffdb0
     518:	56007669 	strpl	r7, [r0], -r9, ror #12
     51c:	61474f43 	mrsvs	r4, SPSR
     520:	6e456e69 	cdpvs	14, 4, cr6, cr5, cr9, {3}
     524:	4c4c5000 	marmi	acc0, r5, ip
     528:	6f506e49 	svcvs	0x00506e49
     52c:	00726577 	rsbseq	r6, r2, r7, ror r5
     530:	704d6544 	subvc	r6, sp, r4, asr #10
     534:	65746147 	ldrbvs	r6, [r4, #-327]!	; 0xfffffeb9
     538:	435f5f00 	cmpmi	pc, #0, 30
     53c:	5f554d43 	svcpl	0x00554d43
     540:	5344564c 	movtpl	r5, #17996	; 0x464c
     544:	4b4c435f 	blmi	13112c8 <__standby_start+0x13112c8>
     548:	4745525f 	smlsldmi	r5, r5, pc, r2	; <UNPREDICTABLE>
     54c:	43343130 	teqmi	r4, #48, 2
     550:	6f695000 	svcvs	0x00695000
     554:	65746147 	ldrbvs	r6, [r4, #-327]!	; 0xfffffeb9
     558:	6c6c5000 	stclvs	0, cr5, [ip], #-0
     55c:	6c744334 	ldclvs	3, cr4, [r4], #-208	; 0xffffff30
     560:	61747300 	cmnvs	r4, r0, lsl #6
     564:	7962646e 	stmdbvc	r2!, {r1, r2, r3, r5, r6, sl, sp, lr}^
     568:	6b6c635f 	blvs	1b192ec <__standby_start+0x1b192ec>
     56c:	726f635f 	rsbvc	r6, pc, #2080374785	; 0x7c000001
     570:	6f683265 	svcvs	0x00683265
     574:	5f006373 	svcpl	0x00006373
     578:	6d63635f 	stclvs	3, cr6, [r3, #-380]!	; 0xfffffe84
     57c:	6c705f75 	ldclvs	15, cr5, [r0], #-468	; 0xfffffe2c
     580:	745f316c 	ldrbvc	r3, [pc], #-364	; 588 <__standby_start+0x588>
     584:	6e696e75 	mcrvs	14, 3, r6, cr9, cr5, {3}
     588:	725f3267 	subsvc	r3, pc, #1879048198	; 0x70000006
     58c:	30306765 	eorscc	r6, r0, r5, ror #14
     590:	745f3833 	ldrbvc	r3, [pc], #-2099	; 598 <__standby_start+0x598>
     594:	435f5f00 	cmpmi	pc, #0, 30
     598:	5f554d43 	svcpl	0x00554d43
     59c:	55444f4d 	strbpl	r4, [r4, #-3917]	; 0xfffff0b3
     5a0:	5f31454c 	svcpl	0x0031454c
     5a4:	004b4c43 	subeq	r4, fp, r3, asr #24
     5a8:	454f444c 	strbmi	r4, [pc, #-1100]	; 164 <__standby_start+0x164>
     5ac:	5f5f006e 	svcpl	0x005f006e
     5b0:	756d6363 	strbvc	r6, [sp, #-867]!	; 0xfffffc9d
     5b4:	6c6c705f 	stclvs	0, cr7, [ip], #-380	; 0xfffffe84
     5b8:	61735f36 	cmnvs	r3, r6, lsr pc
     5bc:	725f6174 	subsvc	r6, pc, #116, 2
     5c0:	30306765 	eorscc	r6, r0, r5, ror #14
     5c4:	745f3832 	ldrbvc	r3, [pc], #-2098	; 5cc <__standby_start+0x5cc>
     5c8:	6e614200 	cdpvs	2, 6, cr4, cr1, cr0, {0}
     5cc:	64695764 	strbtvs	r5, [r9], #-1892	; 0xfffff89c
     5d0:	53006874 	movwpl	r6, #2164	; 0x874
     5d4:	61477263 	mrsvs	r7, SPSR
     5d8:	53006574 	movwpl	r6, #1396	; 0x574
     5dc:	6b6c4373 	blvs	1b113b0 <__standby_start+0x1b113b0>
     5e0:	62735500 	rsbsvs	r5, r3, #0, 10
     5e4:	006b6c43 	rsbeq	r6, fp, r3, asr #24
     5e8:	63635f5f 	cmnvs	r3, #380	; 0x17c
     5ec:	6c5f756d 	cfldr64vs	mvdx7, [pc], {109}	; 0x6d
     5f0:	68636463 	stmdavs	r3!, {r0, r1, r5, r6, sl, sp, lr}^
     5f4:	6c635f30 	stclvs	15, cr5, [r3], #-192	; 0xffffff40
     5f8:	00745f6b 	rsbseq	r5, r4, fp, ror #30
     5fc:	3064634c 	rsbcc	r6, r4, ip, asr #6
     600:	43316843 	teqmi	r1, #4390912	; 0x430000
     604:	50006b6c 	andpl	r6, r0, ip, ror #22
     608:	43617461 	cmnmi	r1, #1627389952	; 0x61000000
     60c:	5f006b6c 	svcpl	0x00006b6c
     610:	4d43435f 	stclmi	3, cr4, [r3, #-380]	; 0xfffffe84
     614:	53435f55 	movtpl	r5, #16213	; 0x3f55
     618:	50534949 	subspl	r4, r3, r9, asr #18
     61c:	4b4c435f 	blmi	13113a0 <__standby_start+0x13113a0>
     620:	4745525f 	smlsldmi	r5, r5, pc, r2	; <UNPREDICTABLE>
     624:	30323130 	eorscc	r3, r2, r0, lsr r1
     628:	435f5f00 	cmpmi	pc, #0, 30
     62c:	5f554d43 	svcpl	0x00554d43
     630:	494d4448 	stmdbmi	sp, {r3, r6, sl, lr}^
     634:	4b4c435f 	blmi	13113b8 <__standby_start+0x13113b8>
     638:	4745525f 	smlsldmi	r5, r5, pc, r2	; <UNPREDICTABLE>
     63c:	30353130 	eorscc	r3, r5, r0, lsr r1
     640:	62704100 	rsbsvs	r4, r0, #0, 2
     644:	74614730 	strbtvc	r4, [r1], #-1840	; 0xfffff8d0
     648:	70530065 	subsvc	r0, r3, r5, rrx
     64c:	6c436365 	mcrrvs	3, 6, r6, r3, cr5
     650:	7253316b 	subsvc	r3, r3, #-1073741798	; 0xc000001a
     654:	61550063 	cmpvs	r5, r3, rrx
     658:	47357472 			; <UNDEFINED> instruction: 0x47357472
     65c:	00657461 	rsbeq	r7, r5, r1, ror #8
     660:	43435f5f 	movtmi	r5, #16223	; 0x3f5f
     664:	505f554d 	subspl	r5, pc, sp, asr #10
     668:	5f354c4c 	svcpl	0x00354c4c
     66c:	5f524444 	svcpl	0x00524444
     670:	30474552 	subcc	r4, r7, r2, asr r5
     674:	00303230 	eorseq	r3, r0, r0, lsr r2
     678:	63736f48 	cmnvs	r3, #72, 30	; 0x120
     67c:	006c7443 	rsbeq	r7, ip, r3, asr #8
     680:	63635f5f 	cmnvs	r3, #380	; 0x17c
     684:	705f756d 	subsvc	r7, pc, sp, ror #10
     688:	5f316c6c 	svcpl	0x00316c6c
     68c:	696e7574 	stmdbvs	lr!, {r2, r4, r5, r6, r8, sl, ip, sp, lr}^
     690:	725f676e 	subsvc	r6, pc, #28835840	; 0x1b80000
     694:	30306765 	eorscc	r6, r0, r5, ror #14
     698:	745f3430 	ldrbvc	r3, [pc], #-1072	; 6a0 <__standby_start+0x6a0>
     69c:	435f5f00 	cmpmi	pc, #0, 30
     6a0:	5f554d43 	svcpl	0x00554d43
     6a4:	344c4c50 	strbcc	r4, [ip], #-3152	; 0xfffff3b0
     6a8:	5f45565f 	svcpl	0x0045565f
     6ac:	30474552 	subcc	r4, r7, r2, asr r5
     6b0:	00383130 	eorseq	r3, r8, r0, lsr r1
     6b4:	4943484f 	stmdbmi	r3, {r0, r1, r2, r3, r6, fp, lr}^
     6b8:	65705331 	ldrbvs	r5, [r0, #-817]!	; 0xfffffccf
     6bc:	6b6c4363 	blvs	1b11450 <__standby_start+0x1b11450>
     6c0:	65746147 	ldrbvs	r6, [r4, #-327]!	; 0xfffffeb9
     6c4:	69705300 	ldmdbvs	r0!, {r8, r9, ip, lr}^
     6c8:	6b6c4333 	blvs	1b1139c <__standby_start+0x1b1139c>
     6cc:	635f5f00 	cmpvs	pc, #0, 30
     6d0:	5f756d63 	svcpl	0x00756d63
     6d4:	31627061 	cmncc	r2, r1, rrx
     6d8:	5f6b6c63 	svcpl	0x006b6c63
     6dc:	69746172 	ldmdbvs	r4!, {r1, r4, r5, r6, r8, sp, lr}^
     6e0:	65725f6f 	ldrbvs	r5, [r2, #-3951]!	; 0xfffff091
     6e4:	35303067 	ldrcc	r3, [r0, #-103]!	; 0xffffff99
     6e8:	00745f38 	rsbseq	r5, r4, r8, lsr pc
     6ec:	6e617473 	mcrvs	4, 3, r7, cr1, cr3, {3}
     6f0:	5f796264 	svcpl	0x00796264
     6f4:	5f6b6c63 	svcpl	0x006b6c63
     6f8:	63736f68 	cmnvs	r3, #104, 30	; 0x1a0
     6fc:	61736964 	cmnvs	r3, r4, ror #18
     700:	00656c62 	rsbeq	r6, r5, r2, ror #24
     704:	4f4f444c 	svcmi	0x004f444c
     708:	75707475 	ldrbvc	r7, [r0, #-1141]!	; 0xfffffb8b
     70c:	5f5f0074 	svcpl	0x005f0074
     710:	756d6363 	strbvc	r6, [sp, #-867]!	; 0xfffffc9d
     714:	6273755f 	rsbsvs	r7, r3, #398458880	; 0x17c00000
     718:	6b6c635f 	blvs	1b1949c <__standby_start+0x1b1949c>
     71c:	6765725f 			; <UNDEFINED> instruction: 0x6765725f
     720:	63633030 	cmnvs	r3, #48	; 0x30
     724:	4d00745f 	cfstrsmi	mvf7, [r0, #-380]	; 0xfffffe84
     728:	74614773 	strbtvc	r4, [r1], #-1907	; 0xfffff88d
     72c:	70410065 	subvc	r0, r1, r5, rrx
     730:	61473162 	mrsvs	r3, SPSR
     734:	46006574 			; <UNDEFINED> instruction: 0x46006574
     738:	6f746361 	svcvs	0x00746361
     73c:	46004b72 			; <UNDEFINED> instruction: 0x46004b72
     740:	6f746361 	svcvs	0x00746361
     744:	46004d72 			; <UNDEFINED> instruction: 0x46004d72
     748:	6f746361 	svcvs	0x00746361
     74c:	46004e72 			; <UNDEFINED> instruction: 0x46004e72
     750:	6f746361 	svcvs	0x00746361
     754:	5f005072 	svcpl	0x00005072
     758:	4d43435f 	stclmi	3, cr4, [r3, #-380]	; 0xfffffe84
     75c:	4c505f55 	mrrcmi	15, 5, r5, r0, cr5
     760:	535f364c 	cmppl	pc, #76, 12	; 0x4c00000
     764:	5f415441 	svcpl	0x00415441
     768:	30474552 	subcc	r4, r7, r2, asr r5
     76c:	00383230 	eorseq	r3, r8, r0, lsr r2
     770:	61746150 	cmnvs	r4, r0, asr r1
     774:	65746147 	ldrbvs	r6, [r4, #-327]!	; 0xfffffeb9
     778:	72615500 	rsbvc	r5, r1, #0, 10
     77c:	61473274 	cmpvs	r7, r4, ror r2
     780:	4d006574 	cfstr32mi	mvfx6, [r0, #-464]	; 0xfffffe30
     784:	6b6c4373 	blvs	1b11558 <__standby_start+0x1b11558>
     788:	635f5f00 	cmpvs	pc, #0, 30
     78c:	5f756d63 	svcpl	0x00756d63
     790:	75646f6d 	strbvc	r6, [r4, #-3949]!	; 0xfffff093
     794:	5f31656c 	svcpl	0x0031656c
     798:	5f6b6c63 	svcpl	0x006b6c63
     79c:	63410074 	movtvs	r0, #4212	; 0x1074
     7a0:	61473739 	cmpvs	r7, r9, lsr r7
     7a4:	44006574 	strmi	r6, [r0], #-1396	; 0xfffffa8c
     7a8:	31654265 	cmncc	r5, r5, ror #4
     7ac:	006b6c43 	rsbeq	r6, fp, r3, asr #24
     7b0:	63635f5f 	cmnvs	r3, #380	; 0x17c
     7b4:	6f5f756d 	svcvs	0x005f756d
     7b8:	34326373 	ldrtcc	r6, [r2], #-883	; 0xfffffc8d
     7bc:	65725f6d 	ldrbvs	r5, [r2, #-3949]!	; 0xfffff093
     7c0:	35303067 	ldrcc	r3, [r0, #-103]!	; 0xffffff99
     7c4:	00745f30 	rsbseq	r5, r4, r0, lsr pc
     7c8:	6d4d6453 	cfstrdvs	mvd6, [sp, #-332]	; 0xfffffeb4
     7cc:	6c433263 	sfmvs	f3, 2, [r3], {99}	; 0x63
     7d0:	6153006b 	cmpvs	r3, fp, rrx
     7d4:	61476174 	cmpvs	r7, r4, ror r1
     7d8:	50006574 	andpl	r6, r0, r4, ror r5
     7dc:	43336c6c 	teqmi	r3, #108, 24	; 0x6c00
     7e0:	4c006c74 	stcmi	12, cr6, [r0], {116}	; 0x74
     7e4:	47306463 	ldrmi	r6, [r0, -r3, ror #8]!
     7e8:	00657461 	rsbeq	r7, r5, r1, ror #8
     7ec:	346c6c50 	strbtcc	r6, [ip], #-3152	; 0xfffff3b0
     7f0:	656e7554 	strbvs	r7, [lr, #-1364]!	; 0xfffffaac
     7f4:	62735500 	rsbsvs	r5, r3, #0, 10
     7f8:	74614730 	strbtvc	r4, [r1], #-1840	; 0xfffff8d0
     7fc:	73430065 	movtvc	r0, #12389	; 0x3065
     800:	70734969 	rsbsvc	r4, r3, r9, ror #18
     804:	006b6c43 	rsbeq	r6, fp, r3, asr #24
     808:	63635f5f 	cmnvs	r3, #380	; 0x17c
     80c:	705f756d 	subsvc	r7, pc, sp, ror #10
     810:	5f356c6c 	svcpl	0x00356c6c
     814:	5f726464 	svcpl	0x00726464
     818:	30676572 	rsbcc	r6, r7, r2, ror r5
     81c:	5f303230 	svcpl	0x00303230
     820:	65440074 	strbvs	r0, [r4, #-116]	; 0xffffff8c
     824:	47316542 	ldrmi	r6, [r1, -r2, asr #10]!
     828:	00657461 	rsbeq	r7, r5, r1, ror #8
     82c:	63635f5f 	cmnvs	r3, #380	; 0x17c
     830:	705f756d 	subsvc	r7, pc, sp, ror #10
     834:	5f326c6c 	svcpl	0x00326c6c
     838:	69647561 	stmdbvs	r4!, {r0, r5, r6, r8, sl, ip, sp, lr}^
     83c:	65725f6f 	ldrbvs	r5, [r2, #-3951]!	; 0xfffff091
     840:	30303067 	eorscc	r3, r0, r7, rrx
     844:	00745f38 	rsbseq	r5, r4, r8, lsr pc
     848:	43435f5f 	movtmi	r5, #16223	; 0x3f5f
     84c:	415f554d 	cmpmi	pc, sp, asr #10
     850:	435f5356 	cmpmi	pc, #1476395009	; 0x58000001
     854:	525f4b4c 	subspl	r4, pc, #76, 22	; 0x13000
     858:	31304745 	teqcc	r0, r5, asr #14
     85c:	46003434 			; <UNDEFINED> instruction: 0x46003434
     860:	4d716572 	cfldr64mi	mvdx6, [r1, #-456]!	; 0xfffffe38
     864:	0065646f 	rsbeq	r6, r5, pc, ror #8
     868:	444c4c50 	strbmi	r4, [ip], #-3152	; 0xfffff3b0
     86c:	00507669 	subseq	r7, r0, r9, ror #12
     870:	30697754 	rsbcc	r7, r9, r4, asr r7
     874:	65746147 	ldrbvs	r6, [r4, #-327]!	; 0xfffffeb9
     878:	62735500 	rsbsvs	r5, r3, #0, 10
     87c:	30796850 	rsbscc	r6, r9, r0, asr r8
     880:	00747352 	rsbseq	r7, r4, r2, asr r3
     884:	316c6c50 	cmncc	ip, r0, asr ip
     888:	656e7554 	strbvs	r7, [lr, #-1364]!	; 0xfffffaac
     88c:	39634100 	stmdbcc	r3!, {r8, lr}^
     890:	6b6c4337 	blvs	1b11574 <__standby_start+0x1b11574>
     894:	63684f00 	cmnvs	r8, #0, 30
     898:	61473169 	mrsvs	r3, SPSR
     89c:	49006574 	stmdbmi	r0, {r2, r4, r5, r6, r8, sl, sp, lr}
     8a0:	61473172 	cmpvs	r7, r2, ror r1
     8a4:	5f006574 	svcpl	0x00006574
     8a8:	6d63635f 	stclvs	3, cr6, [r3, #-380]!	; 0xfffffe84
     8ac:	73635f75 	cmnvc	r3, #468	; 0x1d4
     8b0:	70736969 	rsbsvc	r6, r3, r9, ror #18
     8b4:	6b6c635f 	blvs	1b19638 <__standby_start+0x1b19638>
     8b8:	6765725f 			; <UNDEFINED> instruction: 0x6765725f
     8bc:	30323130 	eorscc	r3, r2, r0, lsr r1
     8c0:	5f00745f 	svcpl	0x0000745f
     8c4:	4d43435f 	stclmi	3, cr4, [r3, #-380]	; 0xfffffe84
     8c8:	48415f55 	stmdami	r1, {r0, r2, r4, r6, r8, r9, sl, fp, ip, lr}^
     8cc:	4b4c4342 	blmi	13115dc <__standby_start+0x13115dc>
     8d0:	5441475f 	strbpl	r4, [r1], #-1887	; 0xfffff8a1
     8d4:	525f3145 	subspl	r3, pc, #1073741841	; 0x40000011
     8d8:	30304745 	eorscc	r4, r0, r5, asr #14
     8dc:	53003436 	movwpl	r3, #1078	; 0x436
     8e0:	47316970 			; <UNDEFINED> instruction: 0x47316970
     8e4:	00657461 	rsbeq	r7, r5, r1, ror #8
     8e8:	63635f5f 	cmnvs	r3, #380	; 0x17c
     8ec:	735f756d 	cmpvc	pc, #457179136	; 0x1b400000
     8f0:	5f617461 	svcpl	0x00617461
     8f4:	5f6b6c63 	svcpl	0x006b6c63
     8f8:	30676572 	rsbcc	r6, r7, r2, ror r5
     8fc:	5f386330 	svcpl	0x00386330
     900:	73500074 	cmpvc	r0, #116	; 0x74
     904:	61473032 	cmpvs	r7, r2, lsr r0
     908:	42006574 	andmi	r6, r0, #116, 10	; 0x1d000000
     90c:	47747369 	ldrbmi	r7, [r4, -r9, ror #6]!
     910:	00657461 	rsbeq	r7, r5, r1, ror #8
     914:	476e6143 	strbmi	r6, [lr, -r3, asr #2]!
     918:	00657461 	rsbeq	r7, r5, r1, ror #8
     91c:	63635f5f 	cmnvs	r3, #380	; 0x17c
     920:	635f756d 	cmpvs	pc, #457179136	; 0x1b400000
     924:	635f6973 	cmpvs	pc, #1884160	; 0x1cc000
     928:	745f6b6c 	ldrbvc	r6, [pc], #-2924	; 930 <__standby_start+0x930>
     92c:	42484100 	submi	r4, r8, #0, 2
     930:	446b6c43 	strbtmi	r6, [fp], #-3139	; 0xfffff3bd
     934:	53007669 	movwpl	r7, #1641	; 0x669
     938:	636d6d64 	cmnvs	sp, #100, 26	; 0x1900
     93c:	74614730 	strbtvc	r4, [r1], #-1840	; 0xfffff8d0
     940:	6c430065 	mcrrvs	0, 6, r0, r3, cr5
     944:	74754f6b 	ldrbtvc	r4, [r5], #-3947	; 0xfffff095
     948:	45747570 	ldrbmi	r7, [r4, #-1392]!	; 0xfffffa90
     94c:	5f5f006e 	svcpl	0x005f006e
     950:	756d6363 	strbvc	r6, [sp, #-867]!	; 0xfffffc9d
     954:	6268615f 	rsbvs	r6, r8, #-1073741801	; 0xc0000017
     958:	5f6b6c63 	svcpl	0x006b6c63
     95c:	65746167 	ldrbvs	r6, [r4, #-359]!	; 0xfffffe99
     960:	65725f31 	ldrbvs	r5, [r2, #-3889]!	; 0xfffff0cf
     964:	36303067 	ldrtcc	r3, [r0], -r7, rrx
     968:	00745f34 	rsbseq	r5, r4, r4, lsr pc
     96c:	63635f5f 	cmnvs	r3, #380	; 0x17c
     970:	6d5f756d 	cfldr64vs	mvdx7, [pc, #-436]	; 7c4 <__standby_start+0x7c4>
     974:	34696c61 	strbtcc	r6, [r9], #-3169	; 0xfffff39f
     978:	635f3030 	cmpvs	pc, #48	; 0x30
     97c:	725f6b6c 	subsvc	r6, pc, #108, 22	; 0x1b000
     980:	31306765 	teqcc	r0, r5, ror #14
     984:	745f3435 	ldrbvc	r3, [pc], #-1077	; 98c <__standby_start+0x98c>
     988:	69734300 	ldmdbvs	r3!, {r8, r9, lr}^
     98c:	6b6c4330 	blvs	1b11654 <__standby_start+0x1b11654>
     990:	31724900 	cmncc	r2, r0, lsl #18
     994:	006b6c43 	rsbeq	r6, fp, r3, asr #24
     998:	6e617473 	mcrvs	4, 3, r7, cr1, cr3, {3}
     99c:	5f796264 	svcpl	0x00796264
     9a0:	5f6b6c63 	svcpl	0x006b6c63
     9a4:	65726f63 	ldrbvs	r6, [r2, #-3939]!	; 0xfffff09d
     9a8:	6c6c7032 	stclvs	0, cr7, [ip], #-200	; 0xffffff38
     9ac:	635f5f00 	cmpvs	pc, #0, 30
     9b0:	5f756d63 	svcpl	0x00756d63
     9b4:	5f737067 	svcpl	0x00737067
     9b8:	5f6b6c63 	svcpl	0x006b6c63
     9bc:	30676572 	rsbcc	r6, r7, r2, ror r5
     9c0:	5f306430 	svcpl	0x00306430
     9c4:	68410074 	stmdavs	r1, {r2, r4, r5, r6}^
     9c8:	74614762 	strbtvc	r4, [r1], #-1890	; 0xfffff89e
     9cc:	41003065 	tstmi	r0, r5, rrx
     9d0:	61476268 	mrsvs	r6, SPSR
     9d4:	00316574 	eorseq	r6, r1, r4, ror r5
     9d8:	43733249 	cmnmi	r3, #-1879048188	; 0x90000004
     9dc:	5f006b6c 	svcpl	0x00006b6c
     9e0:	4d43435f 	stclmi	3, cr4, [r3, #-380]	; 0xfffffe84
     9e4:	53435f55 	movtpl	r5, #16213	; 0x3f55
     9e8:	4c435f49 	mcrrmi	15, 4, r5, r3, cr9
     9ec:	5f5f004b 	svcpl	0x005f004b
     9f0:	756d6363 	strbvc	r6, [sp, #-867]!	; 0xfffffc9d
     9f4:	79656b5f 	stmdbvc	r5!, {r0, r1, r2, r3, r4, r6, r8, r9, fp, sp, lr}^
     9f8:	5f646170 	svcpl	0x00646170
     9fc:	5f6b6c63 	svcpl	0x006b6c63
     a00:	30676572 	rsbcc	r6, r7, r2, ror r5
     a04:	5f346330 	svcpl	0x00346330
     a08:	6c500074 	mrrcvs	0, 7, r0, r0, cr4	; <UNPREDICTABLE>
     a0c:	7443316c 	strbvc	r3, [r3], #-364	; 0xfffffe94
     a10:	6144006c 	mrsvs	r0, SPSR
     a14:	6146706d 	mrsvs	r7, SPSR
     a18:	726f7463 	rsbvc	r7, pc, #1660944384	; 0x63000000
     a1c:	79654b00 	stmdbvc	r5!, {r8, r9, fp, lr}^
     a20:	47646170 			; <UNDEFINED> instruction: 0x47646170
     a24:	00657461 	rsbeq	r7, r5, r1, ror #8
     a28:	32697053 	rsbcc	r7, r9, #83	; 0x53
     a2c:	65746147 	ldrbvs	r6, [r4, #-327]!	; 0xfffffeb9
     a30:	46654400 	strbtmi	r4, [r5], -r0, lsl #8
     a34:	6c433065 	mcrrvs	0, 6, r3, r3, cr5
     a38:	7654006b 	ldrbvc	r0, [r4], -fp, rrx
     a3c:	61473065 	mrsvs	r3, SPSR
     a40:	73006574 	movwvc	r6, #1396	; 0x574
     a44:	646e6174 	strbtvs	r6, [lr], #-372	; 0xfffffe8c
     a48:	635f7962 	cmpvs	pc, #1605632	; 0x188000
     a4c:	695f6b6c 	ldmdbvs	pc, {r2, r3, r5, r6, r8, r9, fp, sp, lr}^	; <UNPREDICTABLE>
     a50:	0074696e 	rsbseq	r6, r4, lr, ror #18
     a54:	63635f5f 	cmnvs	r3, #380	; 0x17c
     a58:	705f756d 	subsvc	r7, pc, sp, ror #10
     a5c:	5f316c6c 	svcpl	0x00316c6c
     a60:	65726f63 	ldrbvs	r6, [r2, #-3939]!	; 0xfffff09d
     a64:	6765725f 			; <UNDEFINED> instruction: 0x6765725f
     a68:	30303030 	eorscc	r3, r0, r0, lsr r0
     a6c:	5300745f 	movwpl	r7, #1119	; 0x45f
     a70:	43636570 	cmnmi	r3, #112, 10	; 0x1c000000
     a74:	47326b6c 	ldrmi	r6, [r2, -ip, ror #22]!
     a78:	00657461 	rsbeq	r7, r5, r1, ror #8
     a7c:	43307249 	teqmi	r0, #-1879048188	; 0x90000004
     a80:	41006b6c 	tstmi	r0, ip, ror #22
     a84:	43316270 	teqmi	r1, #112, 4
     a88:	69446b6c 	stmdbvs	r4, {r2, r3, r5, r6, r8, r9, fp, sp, lr}^
     a8c:	74730076 	ldrbtvc	r0, [r3], #-118	; 0xffffff8a
     a90:	62646e61 	rsbvs	r6, r4, #1552	; 0x610
     a94:	6c635f79 	stclvs	15, cr5, [r3], #-484	; 0xfffffe1c
     a98:	646c5f6b 	strbtvs	r5, [ip], #-3947	; 0xfffff095
     a9c:	616e656f 	cmnvs	lr, pc, ror #10
     aa0:	00656c62 	rsbeq	r6, r5, r2, ror #24
     aa4:	43656341 	cmnmi	r5, #67108865	; 0x4000001
     aa8:	5f006b6c 	svcpl	0x00006b6c
     aac:	4d43435f 	stclmi	3, cr4, [r3, #-380]	; 0xfffffe84
     ab0:	414d5f55 	cmpmi	sp, r5, asr pc
     ab4:	3034494c 	eorscc	r4, r4, ip, asr #18
     ab8:	4c435f30 	mcrrmi	15, 3, r5, r3, cr0
     abc:	45525f4b 	ldrbmi	r5, [r2, #-3915]	; 0xfffff0b5
     ac0:	35313047 	ldrcc	r3, [r1, #-71]!	; 0xffffffb9
     ac4:	74730034 	ldrbtvc	r0, [r3], #-52	; 0xffffffcc
     ac8:	62646e61 	rsbvs	r6, r4, #1552	; 0x610
     acc:	6c635f79 	stclvs	15, cr5, [r3], #-484	; 0xfffffe1c
     ad0:	6f635f6b 	svcvs	0x00635f6b
     ad4:	6c326572 	cfldr32vs	mvfx6, [r2], #-456	; 0xfffffe38
     ad8:	0063736f 	rsbeq	r7, r3, pc, ror #6
     adc:	43435f5f 	movtmi	r5, #16223	; 0x3f5f
     ae0:	555f554d 	ldrbpl	r5, [pc, #-1357]	; 59b <__standby_start+0x59b>
     ae4:	435f4253 	cmpmi	pc, #805306373	; 0x30000005
     ae8:	525f4b4c 	subspl	r4, pc, #76, 22	; 0x13000
     aec:	30304745 	eorscc	r4, r0, r5, asr #14
     af0:	53004343 	movwpl	r4, #835	; 0x343
     af4:	616d6769 	cmnvs	sp, r9, ror #14
     af8:	5f006e45 	svcpl	0x00006e45
     afc:	4d43435f 	stclmi	3, cr4, [r3, #-380]	; 0xfffffe84
     b00:	41535f55 	cmpmi	r3, r5, asr pc
     b04:	435f4154 	cmpmi	pc, #84, 2
     b08:	525f4b4c 	subspl	r4, pc, #76, 22	; 0x13000
     b0c:	30304745 	eorscc	r4, r0, r5, asr #14
     b10:	53003843 	movwpl	r3, #2115	; 0x843
     b14:	66696470 			; <UNDEFINED> instruction: 0x66696470
     b18:	65746147 	ldrbvs	r6, [r4, #-327]!	; 0xfffffeb9
     b1c:	63684500 	cmnvs	r8, #0, 10
     b20:	61473169 	mrsvs	r3, SPSR
     b24:	57006574 	smlsdxpl	r0, r4, r5, r6
     b28:	42657661 	rsbmi	r7, r5, #101711872	; 0x6100000
     b2c:	6f74746f 	svcvs	0x0074746f
     b30:	7355006d 	cmpvc	r5, #109	; 0x6d
     b34:	79685062 	stmdbvc	r8!, {r1, r5, r6, ip, lr}^
     b38:	74735232 	ldrbtvc	r5, [r3], #-562	; 0xfffffdce
     b3c:	69705300 	ldmdbvs	r0!, {r8, r9, ip, lr}^
     b40:	6b6c4330 	blvs	1b11808 <__standby_start+0x1b11808>
     b44:	435f5f00 	cmpmi	pc, #0, 30
     b48:	5f554d43 	svcpl	0x00554d43
     b4c:	55444f4d 	strbpl	r4, [r4, #-3917]	; 0xfffff0b3
     b50:	5f30454c 	svcpl	0x0030454c
     b54:	004b4c43 	subeq	r4, fp, r3, asr #24
     b58:	6e617473 	mcrvs	4, 3, r7, cr1, cr3, {3}
     b5c:	5f796264 	svcpl	0x00796264
     b60:	5f6b6c63 	svcpl	0x006b6c63
     b64:	32627061 	rsbcc	r7, r2, #97	; 0x61
     b68:	63736f68 	cmnvs	r3, #104, 30	; 0x1a0
     b6c:	61747300 	cmnvs	r4, r0, lsl #6
     b70:	7962646e 	stmdbvc	r2!, {r1, r2, r3, r5, r6, sl, sp, lr}^
     b74:	6f6c635f 	svcvs	0x006c635f
     b78:	632e6b63 	teqvs	lr, #101376	; 0x18c00
     b7c:	46654400 	strbtmi	r4, [r5], -r0, lsl #8
     b80:	6c433165 	stfvse	f3, [r3], {101}	; 0x65
     b84:	6155006b 	cmpvs	r5, fp, rrx
     b88:	47377472 			; <UNDEFINED> instruction: 0x47377472
     b8c:	00657461 	rsbeq	r7, r5, r1, ror #8
     b90:	6e617473 	mcrvs	4, 3, r7, cr1, cr3, {3}
     b94:	5f796264 	svcpl	0x00796264
     b98:	5f6b6c63 	svcpl	0x006b6c63
     b9c:	646f646c 	strbtvs	r6, [pc], #-1132	; ba4 <__standby_start+0xba4>
     ba0:	62617369 	rsbvs	r7, r1, #-1543503871	; 0xa4000001
     ba4:	5600656c 	strpl	r6, [r0], -ip, ror #10
     ba8:	74614765 	strbtvc	r4, [r1], #-1893	; 0xfffff89b
     bac:	64480065 	strbvs	r0, [r8], #-101	; 0xffffff9b
     bb0:	6c43696d 	mcrrvs	9, 6, r6, r3, cr13
     bb4:	4c50006b 	mrrcmi	0, 6, r0, r0, cr11	; <UNPREDICTABLE>
     bb8:	7079424c 	rsbsvc	r4, r9, ip, asr #4
     bbc:	00737361 	rsbseq	r7, r3, r1, ror #6
     bc0:	3064634c 	rsbcc	r6, r4, ip, asr #6
     bc4:	43306843 	teqmi	r0, #4390912	; 0x430000
     bc8:	45006b6c 	strmi	r6, [r0, #-2924]	; 0xfffff494
     bcc:	61686378 	smcvs	34360	; 0x8638
     bd0:	4565676e 	strbmi	r6, [r5, #-1902]!	; 0xfffff892
     bd4:	7246006e 	subvc	r0, r6, #110	; 0x6e
     bd8:	65536361 	ldrbvs	r6, [r3, #-865]	; 0xfffffc9f
     bdc:	5f5f0074 	svcpl	0x005f0074
     be0:	756d6363 	strbvc	r6, [sp, #-867]!	; 0xfffffc9d
     be4:	6270615f 	rsbsvs	r6, r0, #-1073741801	; 0xc0000017
     be8:	6b6c6331 	blvs	1b198b4 <__standby_start+0x1b198b4>
     bec:	7461675f 	strbtvc	r6, [r1], #-1887	; 0xfffff8a1
     bf0:	65725f65 	ldrbvs	r5, [r2, #-3941]!	; 0xfffff09b
     bf4:	36303067 	ldrtcc	r3, [r0], -r7, rrx
     bf8:	00745f63 	rsbseq	r5, r4, r3, ror #30
     bfc:	6e617473 	mcrvs	4, 3, r7, cr1, cr3, {3}
     c00:	5f796264 	svcpl	0x00796264
     c04:	5f6b6c63 	svcpl	0x006b6c63
     c08:	6d617264 	sfmvs	f7, 2, [r1, #-400]!	; 0xfffffe70
     c0c:	69746167 	ldmdbvs	r4!, {r0, r1, r2, r5, r6, r8, sp, lr}^
     c10:	4c00676e 	stcmi	7, cr6, [r0], {110}	; 0x6e
     c14:	43736476 	cmnmi	r3, #1979711488	; 0x76000000
     c18:	56006b6c 	strpl	r6, [r0], -ip, ror #22
     c1c:	73524f43 	cmpvc	r2, #268	; 0x10c
     c20:	006e4974 	rsbeq	r4, lr, r4, ror r9
     c24:	74726155 	ldrbtvc	r6, [r2], #-341	; 0xfffffeab
     c28:	74614734 	strbtvc	r4, [r1], #-1844	; 0xfffff8cc
     c2c:	5f5f0065 	svcpl	0x005f0065
     c30:	554d4343 	strbpl	r4, [sp, #-835]	; 0xfffffcbd
     c34:	4958415f 	ldmdbmi	r8, {r0, r1, r2, r3, r4, r6, r8, lr}^
     c38:	5f4b4c43 	svcpl	0x004b4c43
     c3c:	45544147 	ldrbmi	r4, [r4, #-327]	; 0xfffffeb9
     c40:	4745525f 	smlsldmi	r5, r5, pc, r2	; <UNPREDICTABLE>
     c44:	63353030 	teqvs	r5, #48	; 0x30
     c48:	73795300 	cmnvc	r9, #0, 6
     c4c:	446b6c43 	strbtmi	r6, [fp], #-3139	; 0xfffff3bd
     c50:	44007669 	strmi	r7, [r0], #-1641	; 0xfffff997
     c54:	31654665 	cmncc	r5, r5, ror #12
     c58:	65746147 	ldrbvs	r6, [r4, #-327]!	; 0xfffffeb9
     c5c:	6f6e6f00 	svcvs	0x006e6f00
     c60:	50006666 	andpl	r6, r0, r6, ror #12
     c64:	69424c4c 	stmdbvs	r2, {r2, r3, r6, sl, fp, lr}^
     c68:	6e457361 	cdpvs	3, 4, cr7, cr5, cr1, {3}
     c6c:	435f5f00 	cmpmi	pc, #0, 30
     c70:	5f554d43 	svcpl	0x00554d43
     c74:	324c4c50 	subcc	r4, ip, #80, 24	; 0x5000
     c78:	4455415f 	ldrbmi	r4, [r5], #-351	; 0xfffffea1
     c7c:	525f4f49 	subspl	r4, pc, #292	; 0x124
     c80:	30304745 	eorscc	r4, r0, r5, asr #14
     c84:	5f003830 	svcpl	0x00003830
     c88:	4d43435f 	stclmi	3, cr4, [r3, #-380]	; 0xfffffe84
     c8c:	434c5f55 	movtmi	r5, #53077	; 0xcf55
     c90:	31484344 	mrscc	r4, SPSR
     c94:	4b4c435f 	blmi	1311a18 <__standby_start+0x1311a18>
     c98:	635f5f00 	cmpvs	pc, #0, 30
     c9c:	5f756d63 	svcpl	0x00756d63
     ca0:	356c6c70 	strbcc	r6, [ip, #-3184]!	; 0xfffff390
     ca4:	6e75745f 	mrcvs	4, 3, r7, cr5, cr15, {2}
     ca8:	5f676e69 	svcpl	0x00676e69
     cac:	30676572 	rsbcc	r6, r7, r2, ror r5
     cb0:	5f343230 	svcpl	0x00343230
     cb4:	5f5f0074 	svcpl	0x005f0074
     cb8:	4d43435f 	stclmi	3, cr4, [r3, #-380]	; 0xfffffe84
     cbc:	4c505f55 	mrrcmi	15, 5, r5, r0, cr5
     cc0:	435f314c 	cmpmi	pc, #76, 2
     cc4:	5f45524f 	svcpl	0x0045524f
     cc8:	30474552 	subcc	r4, r7, r2, asr r5
     ccc:	00303030 	eorseq	r3, r0, r0, lsr r0
     cd0:	74726155 	ldrbtvc	r6, [r2], #-341	; 0xfffffeab
     cd4:	74614731 	strbtvc	r4, [r1], #-1841	; 0xfffff8cf
     cd8:	70470065 	subvc	r0, r7, r5, rrx
     cdc:	6b6c4373 	blvs	1b11ab0 <__standby_start+0x1b11ab0>
     ce0:	435f5f00 	cmpmi	pc, #0, 30
     ce4:	5f554d43 	svcpl	0x00554d43
     ce8:	41444441 	mrsmi	r4, SPSR
     cec:	4b4c435f 	blmi	1311a70 <__standby_start+0x1311a70>
     cf0:	4745525f 	smlsldmi	r5, r5, pc, r2	; <UNPREDICTABLE>
     cf4:	30343130 	eorscc	r3, r4, r0, lsr r1
     cf8:	64705300 	ldrbtvs	r5, [r0], #-768	; 0xfffffd00
     cfc:	6c436669 	mcrrvs	6, 6, r6, r3, cr9
     d00:	5f5f006b 	svcpl	0x005f006b
     d04:	756d6363 	strbvc	r6, [sp, #-867]!	; 0xfffffc9d
     d08:	6c6c705f 	stclvs	0, cr7, [ip], #-380	; 0xfffffe84
     d0c:	69765f33 	ldmdbvs	r6!, {r0, r1, r4, r5, r8, r9, sl, fp, ip, lr}^
     d10:	5f6f6564 	svcpl	0x006f6564
     d14:	30676572 	rsbcc	r6, r7, r2, ror r5
     d18:	5f303130 	svcpl	0x00303130
     d1c:	64530074 	ldrbvs	r0, [r3], #-116	; 0xffffff8c
     d20:	476d6172 			; <UNDEFINED> instruction: 0x476d6172
     d24:	00657461 	rsbeq	r7, r5, r1, ror #8
     d28:	32697754 	rsbcc	r7, r9, #84, 14	; 0x1500000
     d2c:	65746147 	ldrbvs	r6, [r4, #-327]!	; 0xfffffeb9
     d30:	635f5f00 	cmpvs	pc, #0, 30
     d34:	5f756d63 	svcpl	0x00756d63
     d38:	30627061 	rsbcc	r7, r2, r1, rrx
     d3c:	5f6b6c63 	svcpl	0x006b6c63
     d40:	65746167 	ldrbvs	r6, [r4, #-359]!	; 0xfffffe99
     d44:	6765725f 			; <UNDEFINED> instruction: 0x6765725f
     d48:	38363030 	ldmdacc	r6!, {r4, r5, ip, sp}
     d4c:	5300745f 	movwpl	r7, #1119	; 0x45f
     d50:	43326970 	teqmi	r2, #112, 18	; 0x1c0000
     d54:	41006b6c 	tstmi	r0, ip, ror #22
     d58:	61476563 	mrsvs	r6, SPSR
     d5c:	73006574 	movwvc	r6, #1396	; 0x574
     d60:	646e6174 	strbtvs	r6, [lr], #-372	; 0xfffffe8c
     d64:	635f7962 	cmpvs	pc, #1605632	; 0x188000
     d68:	615f6b6c 	cmpvs	pc, ip, ror #22
     d6c:	6c326270 	lfmvs	f6, 4, [r2], #-448	; 0xfffffe40
     d70:	0063736f 	rsbeq	r7, r3, pc, ror #6
     d74:	3243534f 	subcc	r5, r3, #1006632961	; 0x3c000001
     d78:	73474d34 	movtvc	r4, #32052	; 0x7d34
     d7c:	7244006d 	subvc	r0, r4, #109	; 0x6d
     d80:	61476d61 	mrsvs	r6, SPSR
     d84:	53006574 	movwpl	r6, #1396	; 0x574
     d88:	616d6769 	cmnvs	sp, r9, ror #14
     d8c:	0074754f 	rsbseq	r7, r4, pc, asr #10
     d90:	6d6d6453 	cfstrdvs	mvd6, [sp, #-332]!	; 0xfffffeb4
     d94:	61473263 	mrsvs	r3, SPSR
     d98:	5f006574 	svcpl	0x00006574
     d9c:	6d63635f 	stclvs	3, cr6, [r3, #-380]!	; 0xfffffe84
     da0:	6c705f75 	ldclvs	15, cr5, [r0], #-468	; 0xfffffe2c
     da4:	765f376c 	ldrbvc	r3, [pc], -ip, ror #14
     da8:	6f656469 	svcvs	0x00656469
     dac:	65725f31 	ldrbvs	r5, [r2, #-3889]!	; 0xfffff0cf
     db0:	33303067 	teqcc	r0, #103	; 0x67
     db4:	00745f30 	rsbseq	r5, r4, r0, lsr pc
     db8:	65426544 	strbvs	r6, [r2, #-1348]	; 0xfffffabc
     dbc:	6b6c4330 	blvs	1b11a84 <__standby_start+0x1b11a84>
     dc0:	646f4d00 	strbtvs	r4, [pc], #-3328	; dc8 <__standby_start+0xdc8>
     dc4:	6c655365 	stclvs	3, cr5, [r5], #-404	; 0xfffffe6c
     dc8:	75704700 	ldrbvc	r4, [r0, #-1792]!	; 0xfffff900
     dcc:	61474433 	cmpvs	r7, r3, lsr r4
     dd0:	4c006574 	cfstr32mi	mvfx6, [r0], {116}	; 0x74
     dd4:	43316463 	teqmi	r1, #1660944384	; 0x63000000
     dd8:	6c433168 	stfvse	f3, [r3], {104}	; 0x68
     ddc:	5f5f006b 	svcpl	0x005f006b
     de0:	554d4343 	strbpl	r4, [sp, #-835]	; 0xfffffcbd
     de4:	4c4c505f 	mcrrmi	0, 5, r5, ip, cr15
     de8:	49565f37 	ldmdbmi	r6, {r0, r1, r2, r4, r5, r8, r9, sl, fp, ip, lr}^
     dec:	314f4544 	mrscc	r4, SPSR
     df0:	4745525f 	smlsldmi	r5, r5, pc, r2	; <UNPREDICTABLE>
     df4:	30333030 	eorscc	r3, r3, r0, lsr r0
     df8:	435f5f00 	cmpmi	pc, #0, 30
     dfc:	5f554d43 	svcpl	0x00554d43
     e00:	5f445654 	svcpl	0x00445654
     e04:	5f4b4c43 	svcpl	0x004b4c43
     e08:	30474552 	subcc	r4, r7, r2, asr r5
     e0c:	00383231 	eorseq	r3, r8, r1, lsr r2
     e10:	33735f5f 	cmncc	r3, #380	; 0x17c
     e14:	684f0032 	stmdavs	pc, {r1, r4, r5}^	; <UNPREDICTABLE>
     e18:	47306963 	ldrmi	r6, [r0, -r3, ror #18]!
     e1c:	00657461 	rsbeq	r7, r5, r1, ror #8
     e20:	47307249 	ldrmi	r7, [r0, -r9, asr #4]!
     e24:	00657461 	rsbeq	r7, r5, r1, ror #8
     e28:	43435f5f 	movtmi	r5, #16223	; 0x3f5f
     e2c:	475f554d 	ldrbmi	r5, [pc, -sp, asr #10]
     e30:	435f5350 	cmpmi	pc, #80, 6	; 0x40000001
     e34:	525f4b4c 	subspl	r4, pc, #76, 22	; 0x13000
     e38:	30304745 	eorscc	r4, r0, r5, asr #14
     e3c:	5f003044 	svcpl	0x00003044
     e40:	6d63635f 	stclvs	3, cr6, [r3, #-380]!	; 0xfffffe84
     e44:	63615f75 	cmnvs	r1, #468	; 0x1d4
     e48:	6c635f65 	stclvs	15, cr5, [r3], #-404	; 0xfffffe6c
     e4c:	65725f6b 	ldrbvs	r5, [r2, #-3947]!	; 0xfffff095
     e50:	34313067 	ldrtcc	r3, [r1], #-103	; 0xffffff99
     e54:	00745f38 	rsbseq	r5, r4, r8, lsr pc
     e58:	63635f5f 	cmnvs	r3, #380	; 0x17c
     e5c:	6d5f756d 	cfldr64vs	mvdx7, [pc, #-436]	; cb0 <__standby_start+0xcb0>
     e60:	6c75646f 	cfldrdvs	mvd6, [r5], #-444	; 0xfffffe44
     e64:	635f3065 	cmpvs	pc, #101	; 0x65
     e68:	745f6b6c 	ldrbvc	r6, [pc], #-2924	; e70 <__standby_start+0xe70>
     e6c:	435f5f00 	cmpmi	pc, #0, 30
     e70:	5f554d43 	svcpl	0x00554d43
     e74:	3243534f 	subcc	r5, r3, #1006632961	; 0x3c000001
     e78:	525f4d34 	subspl	r4, pc, #52, 26	; 0xd00
     e7c:	30304745 	eorscc	r4, r0, r5, asr #14
     e80:	50003035 	andpl	r3, r0, r5, lsr r0
     e84:	54316c6c 	ldrtpl	r6, [r1], #-3180	; 0xfffff394
     e88:	32656e75 	rsbcc	r6, r5, #1872	; 0x750
     e8c:	616d4500 	cmnvs	sp, r0, lsl #10
     e90:	74614763 	strbtvc	r4, [r1], #-1891	; 0xfffff89d
     e94:	654b0065 	strbvs	r0, [fp, #-101]	; 0xffffff9b
     e98:	65694679 	strbvs	r4, [r9, #-1657]!	; 0xfffff987
     e9c:	5f00646c 	svcpl	0x0000646c
     ea0:	6d63635f 	stclvs	3, cr6, [r3, #-380]!	; 0xfffffe84
     ea4:	766c5f75 	uqsub16vc	r5, ip, r5
     ea8:	635f7364 	cmpvs	pc, #100, 6	; 0x90000001
     eac:	725f6b6c 	subsvc	r6, pc, #108, 22	; 0x1b000
     eb0:	31306765 	teqcc	r0, r5, ror #14
     eb4:	745f6334 	ldrbvc	r6, [pc], #-820	; ebc <__standby_start+0xebc>
     eb8:	6c6c5000 	stclvs	0, cr5, [ip], #-0
     ebc:	6c744335 	ldclvs	3, cr4, [r4], #-212	; 0xffffff2c
     ec0:	635f5f00 	cmpvs	pc, #0, 30
     ec4:	5f756d63 	svcpl	0x00756d63
     ec8:	635f6576 	cmpvs	pc, #494927872	; 0x1d800000
     ecc:	725f6b6c 	subsvc	r6, pc, #108, 22	; 0x1b000
     ed0:	31306765 	teqcc	r0, r5, ror #14
     ed4:	745f6333 	ldrbvc	r6, [pc], #-819	; edc <__standby_start+0xedc>
     ed8:	435f5f00 	cmpmi	pc, #0, 30
     edc:	5f554d43 	svcpl	0x00554d43
     ee0:	5f454341 	svcpl	0x00454341
     ee4:	5f4b4c43 	svcpl	0x004b4c43
     ee8:	30474552 	subcc	r4, r7, r2, asr r5
     eec:	00383431 	eorseq	r3, r8, r1, lsr r4
     ef0:	63635f5f 	cmnvs	r3, #380	; 0x17c
     ef4:	705f756d 	subsvc	r7, pc, sp, ror #10
     ef8:	5f326c6c 	svcpl	0x00326c6c
     efc:	696e7574 	stmdbvs	lr!, {r2, r4, r5, r6, r8, sl, ip, sp, lr}^
     f00:	725f676e 	subsvc	r6, pc, #28835840	; 0x1b80000
     f04:	30306765 	eorscc	r6, r0, r5, ror #14
     f08:	745f6330 	ldrbvc	r6, [pc], #-816	; f10 <__standby_start+0xf10>
     f0c:	67695300 	strbvs	r5, [r9, -r0, lsl #6]!
     f10:	6e49616d 	dvfvsez	f6, f1, #5.0
     f14:	61747300 	cmnvs	r4, r0, lsl #6
     f18:	7962646e 	stmdbvc	r2!, {r1, r2, r3, r5, r6, sl, sp, lr}^
     f1c:	6b6c635f 	blvs	1b19ca0 <__standby_start+0x1b19ca0>
     f20:	7465675f 	strbtvc	r6, [r5], #-1887	; 0xfffff8a1
     f24:	00766964 	rsbseq	r6, r6, r4, ror #18
     f28:	43435f5f 	movtmi	r5, #16223	; 0x3f5f
     f2c:	505f554d 	subspl	r5, pc, sp, asr #10
     f30:	5f334c4c 	svcpl	0x00334c4c
     f34:	45444956 	strbmi	r4, [r4, #-2390]	; 0xfffff6aa
     f38:	45525f4f 	ldrbmi	r5, [r2, #-3919]	; 0xfffff0b1
     f3c:	31303047 	teqcc	r0, r7, asr #32
     f40:	5f5f0030 	svcpl	0x005f0030
     f44:	554d4343 	strbpl	r4, [sp, #-835]	; 0xfffffcbd
     f48:	4c4c505f 	mcrrmi	0, 5, r5, ip, cr15
     f4c:	55545f35 	ldrbpl	r5, [r4, #-3893]	; 0xfffff0cb
     f50:	474e494e 	strbmi	r4, [lr, -lr, asr #18]
     f54:	45525f32 	ldrbmi	r5, [r2, #-3890]	; 0xfffff0ce
     f58:	33303047 	teqcc	r0, #71	; 0x47
     f5c:	64410043 	strbvs	r0, [r1], #-67	; 0xffffffbd
     f60:	61476164 	mrsvs	r6, SPSR
     f64:	56006574 			; <UNDEFINED> instruction: 0x56006574
     f68:	69424f43 	stmdbvs	r2, {r0, r1, r6, r8, r9, sl, fp, lr}^
     f6c:	5f007361 	svcpl	0x00007361
     f70:	6d63635f 	stclvs	3, cr6, [r3, #-380]!	; 0xfffffe84
     f74:	636c5f75 	cmnvs	ip, #468	; 0x1d4
     f78:	31686364 	cmncc	r8, r4, ror #6
     f7c:	6b6c635f 	blvs	1b19d00 <__standby_start+0x1b19d00>
     f80:	5400745f 	strpl	r7, [r0], #-1119	; 0xfffffba1
     f84:	6c436476 	cfstrdvs	mvd6, [r3], {118}	; 0x76
     f88:	6544006b 	strbvs	r0, [r4, #-107]	; 0xffffff95
     f8c:	47306542 	ldrmi	r6, [r0, -r2, asr #10]!
     f90:	00657461 	rsbeq	r7, r5, r1, ror #8
     f94:	6d4d6453 	cfstrdvs	mvd6, [sp, #-332]	; 0xfffffeb4
     f98:	6c433163 	stfvse	f3, [r3], {99}	; 0x63
     f9c:	7473006b 	ldrbtvc	r0, [r3], #-107	; 0xffffff95
     fa0:	62646e61 	rsbvs	r6, r4, #1552	; 0x610
     fa4:	6c635f79 	stclvs	15, cr5, [r3], #-484	; 0xfffffe1c
     fa8:	6f685f6b 	svcvs	0x00685f6b
     fac:	6e656373 	mcrvs	3, 3, r6, cr5, cr3, {3}
     fb0:	656c6261 	strbvs	r6, [ip, #-609]!	; 0xfffffd9f
     fb4:	435f5f00 	cmpmi	pc, #0, 30
     fb8:	5f554d43 	svcpl	0x00554d43
     fbc:	31425041 	mrscc	r5, SPSR
     fc0:	5f4b4c43 	svcpl	0x004b4c43
     fc4:	49544152 	ldmdbmi	r4, {r1, r4, r6, r8, lr}^
     fc8:	45525f4f 	ldrbmi	r5, [r2, #-3919]	; 0xfffff0b1
     fcc:	35303047 	ldrcc	r3, [r0, #-71]!	; 0xffffffb9
     fd0:	61530038 	cmpvs	r3, r8, lsr r0
     fd4:	6c436174 	stfvse	f6, [r3], {116}	; 0x74
     fd8:	6572006b 	ldrbvs	r0, [r2, #-107]!	; 0xffffff95
     fdc:	76726573 			; <UNDEFINED> instruction: 0x76726573
     fe0:	00306465 	eorseq	r6, r0, r5, ror #8
     fe4:	65736572 	ldrbvs	r6, [r3, #-1394]!	; 0xfffffa8e
     fe8:	64657672 	strbtvs	r7, [r5], #-1650	; 0xfffff98e
     fec:	65720031 	ldrbvs	r0, [r2, #-49]!	; 0xffffffcf
     ff0:	76726573 			; <UNDEFINED> instruction: 0x76726573
     ff4:	00326465 	eorseq	r6, r2, r5, ror #8
     ff8:	65736572 	ldrbvs	r6, [r3, #-1394]!	; 0xfffffa8e
     ffc:	64657672 	strbtvs	r7, [r5], #-1650	; 0xfffff98e
    1000:	65720033 	ldrbvs	r0, [r2, #-51]!	; 0xffffffcd
    1004:	76726573 			; <UNDEFINED> instruction: 0x76726573
    1008:	00346465 	eorseq	r6, r4, r5, ror #8
    100c:	43435f5f 	movtmi	r5, #16223	; 0x3f5f
    1010:	505f554d 	subspl	r5, pc, sp, asr #10
    1014:	5f314c4c 	svcpl	0x00314c4c
    1018:	494e5554 	stmdbmi	lr, {r2, r4, r6, r8, sl, ip, lr}^
    101c:	5f32474e 	svcpl	0x0032474e
    1020:	30474552 	subcc	r4, r7, r2, asr r5
    1024:	00383330 	eorseq	r3, r8, r0, lsr r3
    1028:	63657053 	cmnvs	r5, #83	; 0x53
    102c:	316b6c43 	cmncc	fp, r3, asr #24
    1030:	65746147 	ldrbvs	r6, [r4, #-327]!	; 0xfffffeb9
    1034:	65705300 	ldrbvs	r5, [r0, #-768]!	; 0xfffffd00
    1038:	6b6c4363 	blvs	1b11dcc <__standby_start+0x1b11dcc>
    103c:	63725332 	cmnvs	r2, #-939524096	; 0xc8000000
    1040:	61747300 	cmnvs	r4, r0, lsl #6
    1044:	7962646e 	stmdbvc	r2!, {r1, r2, r3, r5, r6, sl, sp, lr}^
    1048:	6b6c635f 	blvs	1b19dcc <__standby_start+0x1b19dcc>
    104c:	6c6c705f 	stclvs	0, cr7, [ip], #-380	; 0xfffffe84
    1050:	62616e65 	rsbvs	r6, r1, #1616	; 0x650
    1054:	4900656c 	stmdbmi	r0, {r2, r3, r5, r6, r8, sl, sp, lr}
    1058:	61477369 	mrsvs	r7, SPSR
    105c:	4f006574 	svcmi	0x00006574
    1060:	34324353 	ldrtcc	r4, [r2], #-851	; 0xfffffcad
    1064:	006e454d 	rsbeq	r4, lr, sp, asr #10
    1068:	47616d44 	strbmi	r6, [r1, -r4, asr #26]!
    106c:	00657461 	rsbeq	r7, r5, r1, ror #8
    1070:	454c4c50 	strbmi	r4, [ip, #-3152]	; 0xfffff3b0
    1074:	5f5f006e 	svcpl	0x005f006e
    1078:	554d4343 	strbpl	r4, [sp, #-835]	; 0xfffffcbd
    107c:	59454b5f 	stmdbpl	r5, {r0, r1, r2, r3, r4, r6, r8, r9, fp, lr}^
    1080:	5f444150 	svcpl	0x00444150
    1084:	5f4b4c43 	svcpl	0x004b4c43
    1088:	30474552 	subcc	r4, r7, r2, asr r5
    108c:	00344330 	eorseq	r4, r4, r0, lsr r3
    1090:	43435f5f 	movtmi	r5, #16223	; 0x3f5f
    1094:	535f554d 	cmppl	pc, #322961408	; 0x13400000
    1098:	4c435359 	mcrrmi	3, 5, r5, r3, cr9
    109c:	41525f4b 	cmpmi	r2, fp, asr #30
    10a0:	5f4f4954 	svcpl	0x004f4954
    10a4:	30474552 	subcc	r4, r7, r2, asr r5
    10a8:	00343530 	eorseq	r3, r4, r0, lsr r5
    10ac:	61646441 	cmnvs	r4, r1, asr #8
    10b0:	006b6c43 	rsbeq	r6, fp, r3, asr #24
    10b4:	6c437354 	mcrrvs	3, 5, r7, r3, cr4
    10b8:	6845006b 	stmdavs	r5, {r0, r1, r3, r5, r6}^
    10bc:	47306963 	ldrmi	r6, [r0, -r3, ror #18]!
    10c0:	00657461 	rsbeq	r7, r5, r1, ror #8
    10c4:	74696e49 	strbtvc	r6, [r9], #-3657	; 0xfffff1b7
    10c8:	71657246 	cmnvc	r5, r6, asr #4
    10cc:	79654b00 	stmdbvc	r5!, {r8, r9, fp, lr}^
    10d0:	43646150 	cmnmi	r4, #80, 2
    10d4:	50006b6c 	andpl	r6, r0, ip, ror #22
    10d8:	69424c4c 	stmdbvs	r2, {r2, r3, r6, sl, fp, lr}^
    10dc:	4c007361 	stcmi	3, cr7, [r0], {97}	; 0x61
    10e0:	43316463 	teqmi	r1, #1660944384	; 0x63000000
    10e4:	6c433068 	mcrrvs	0, 6, r3, r3, cr8
    10e8:	614e006b 	mrsvs	r0, SPSR
    10ec:	6147646e 	mrsvs	r6, SPSR
    10f0:	53006574 	movwpl	r6, #1396	; 0x574
    10f4:	74614773 	strbtvc	r4, [r1], #-1907	; 0xfffff88d
    10f8:	5f5f0065 	svcpl	0x005f0065
    10fc:	756d6363 	strbvc	r6, [sp, #-867]!	; 0xfffffc9d
    1100:	6465665f 	strbtvs	r6, [r5], #-1631	; 0xfffff9a1
    1104:	5f706d65 	svcpl	0x00706d65
    1108:	5f6b6c63 	svcpl	0x006b6c63
    110c:	64530074 	ldrbvs	r0, [r3], #-116	; 0xffffff8c
    1110:	33636d4d 	cmncc	r3, #4928	; 0x1340
    1114:	006b6c43 	rsbeq	r6, fp, r3, asr #24
    1118:	52756d43 	rsbspl	r6, r5, #4288	; 0x10c0
    111c:	48006765 	stmdami	r0, {r0, r2, r5, r6, r8, r9, sl, sp, lr}
    1120:	44696d64 	strbtmi	r6, [r9], #-3428	; 0xfffff29c
    1124:	65746147 	ldrbvs	r6, [r4, #-327]!	; 0xfffffeb9
    1128:	65725600 	ldrbvs	r5, [r2, #-1536]!	; 0xfffffa00
    112c:	754f3167 	strbvc	r3, [pc, #-359]	; fcd <__standby_start+0xfcd>
    1130:	006e4574 	rsbeq	r4, lr, r4, ror r5
    1134:	63635f5f 	cmnvs	r3, #380	; 0x17c
    1138:	705f756d 	subsvc	r7, pc, sp, ror #10
    113c:	5f356c6c 	svcpl	0x00356c6c
    1140:	696e7574 	stmdbvs	lr!, {r2, r4, r5, r6, r8, sl, ip, sp, lr}^
    1144:	5f32676e 	svcpl	0x0032676e
    1148:	30676572 	rsbcc	r6, r7, r2, ror r5
    114c:	5f633330 	svcpl	0x00633330
    1150:	6c500074 	mrrcvs	0, 7, r0, r0, cr4	; <UNPREDICTABLE>
    1154:	7554326c 	ldrbvc	r3, [r4, #-620]	; 0xfffffd94
    1158:	5f00656e 	svcpl	0x0000656e
    115c:	6d63635f 	stclvs	3, cr6, [r3, #-380]!	; 0xfffffe84
    1160:	78615f75 	stmdavc	r1!, {r0, r2, r4, r5, r6, r8, r9, sl, fp, ip, lr}^
    1164:	6b6c6369 	blvs	1b19f10 <__standby_start+0x1b19f10>
    1168:	7461675f 	strbtvc	r6, [r1], #-1887	; 0xfffff8a1
    116c:	65725f65 	ldrbvs	r5, [r2, #-3941]!	; 0xfffff09b
    1170:	35303067 	ldrcc	r3, [r0, #-103]!	; 0xffffff99
    1174:	00745f63 	rsbseq	r5, r4, r3, ror #30
    1178:	74726155 	ldrbtvc	r6, [r2], #-341	; 0xfffffeab
    117c:	74614736 	strbtvc	r4, [r1], #-1846	; 0xfffff8ca
    1180:	444c0065 	strbmi	r0, [ip], #-101	; 0xffffff9b
    1184:	6e45324f 	cdpvs	2, 4, cr3, cr5, cr15, {2}
    1188:	63614600 	cmnvs	r1, #0, 12
    118c:	4d726f74 	ldclmi	15, cr6, [r2, #-464]!	; 0xfffffe30
    1190:	6c500031 	mrrcvs	0, 3, r0, r0, cr1	; <UNPREDICTABLE>
    1194:	7443376c 	strbvc	r3, [r3], #-1900	; 0xfffff894
    1198:	5f5f006c 	svcpl	0x005f006c
    119c:	756d6363 	strbvc	r6, [sp, #-867]!	; 0xfffffc9d
    11a0:	6765725f 			; <UNDEFINED> instruction: 0x6765725f
    11a4:	73696c5f 	cmnvc	r9, #24320	; 0x5f00
    11a8:	00745f74 	rsbseq	r5, r4, r4, ror pc
    11ac:	646e614e 	strbtvs	r6, [lr], #-334	; 0xfffffeb2
    11b0:	006b6c43 	rsbeq	r6, fp, r3, asr #24
    11b4:	4943484f 	stmdbmi	r3, {r0, r1, r2, r3, r6, fp, lr}^
    11b8:	65705330 	ldrbvs	r5, [r0, #-816]!	; 0xfffffcd0
    11bc:	6b6c4363 	blvs	1b11f50 <__standby_start+0x1b11f50>
    11c0:	65746147 	ldrbvs	r6, [r4, #-327]!	; 0xfffffeb9
    11c4:	61747300 	cmnvs	r4, r0, lsl #6
    11c8:	7962646e 	stmdbvc	r2!, {r1, r2, r3, r5, r6, sl, sp, lr}^
    11cc:	6b6c635f 	blvs	1b19f50 <__standby_start+0x1b19f50>
    11d0:	6c6c705f 	stclvs	0, cr7, [ip], #-380	; 0xfffffe84
    11d4:	61736964 	cmnvs	r3, r4, ror #18
    11d8:	00656c62 	rsbeq	r6, r5, r2, ror #24
    11dc:	43435f5f 	movtmi	r5, #16223	; 0x3f5f
    11e0:	505f554d 	subspl	r5, pc, sp, asr #10
    11e4:	5f314c4c 	svcpl	0x00314c4c
    11e8:	494e5554 	stmdbmi	lr, {r2, r4, r6, r8, sl, ip, lr}^
    11ec:	525f474e 	subspl	r4, pc, #20447232	; 0x1380000
    11f0:	30304745 	eorscc	r4, r0, r5, asr #14
    11f4:	5f003430 	svcpl	0x00003430
    11f8:	6d63635f 	stclvs	3, cr6, [r3, #-380]!	; 0xfffffe84
    11fc:	76745f75 	uhsub16vc	r5, r4, r5
    1200:	6c635f64 	stclvs	15, cr5, [r3], #-400	; 0xfffffe70
    1204:	65725f6b 	ldrbvs	r5, [r2, #-3947]!	; 0xfffff095
    1208:	32313067 	eorscc	r3, r1, #103	; 0x67
    120c:	00745f38 	rsbseq	r5, r4, r8, lsr pc
    1210:	4943484f 	stmdbmi	r3, {r0, r1, r2, r3, r6, fp, lr}^
    1214:	536b6c43 	cmnpl	fp, #17152	; 0x4300
    1218:	50006372 	andpl	r6, r0, r2, ror r3
    121c:	54336c6c 	ldrtpl	r6, [r3], #-3180	; 0xfffff394
    1220:	00656e75 	rsbeq	r6, r5, r5, ror lr
    1224:	43737641 	cmnmi	r3, #68157440	; 0x4100000
    1228:	55006b6c 	strpl	r6, [r0, #-2924]	; 0xfffff494
    122c:	68506273 	ldmdavs	r0, {r0, r1, r4, r5, r6, r9, sp, lr}^
    1230:	73523179 	cmpvc	r2, #1073741854	; 0x4000001e
    1234:	5f5f0074 	svcpl	0x005f0074
    1238:	756d6363 	strbvc	r6, [sp, #-867]!	; 0xfffffc9d
    123c:	7379735f 	cmnvc	r9, #2080374785	; 0x7c000001
    1240:	6c6b6c63 	stclvs	12, cr6, [fp], #-396	; 0xfffffe74
    1244:	7461725f 	strbtvc	r7, [r1], #-607	; 0xfffffda1
    1248:	725f6f69 	subsvc	r6, pc, #420	; 0x1a4
    124c:	30306765 	eorscc	r6, r0, r5, ror #14
    1250:	745f3435 	ldrbvc	r3, [pc], #-1077	; 1258 <__standby_start+0x1258>
    1254:	72615500 	rsbvc	r5, r1, #0, 10
    1258:	61473374 	cmpvs	r7, r4, ror r3
    125c:	44006574 	strmi	r6, [r0], #-1396	; 0xfffffa8c
    1260:	30654665 	rsbcc	r4, r5, r5, ror #12
    1264:	65746147 	ldrbvs	r6, [r4, #-327]!	; 0xfffffeb9
    1268:	69734300 	ldmdbvs	r3!, {r8, r9, lr}^
    126c:	74614731 	strbtvc	r4, [r1], #-1841	; 0xfffff8cf
    1270:	78410065 	stmdavc	r1, {r0, r2, r5, r6}^
    1274:	74614769 	strbtvc	r4, [r1], #-1897	; 0xfffff897
    1278:	70470065 	subvc	r0, r7, r5, rrx
    127c:	74614773 	strbtvc	r4, [r1], #-1907	; 0xfffff88d
    1280:	634c0065 	movtvs	r0, #49253	; 0xc065
    1284:	61473164 	mrsvs	r3, SPSR
    1288:	5f006574 	svcpl	0x00006574
    128c:	4d43435f 	stclmi	3, cr4, [r3, #-380]	; 0xfffffe84
    1290:	434c5f55 	movtmi	r5, #53077	; 0xcf55
    1294:	30484344 	subcc	r4, r8, r4, asr #6
    1298:	4b4c435f 	blmi	131201c <__standby_start+0x131201c>
    129c:	636f4c00 	cmnvs	pc, #0, 24
    12a0:	6d69546b 	cfstrdvs	mvd5, [r9, #-428]!	; 0xfffffe54
    12a4:	63630065 	cmnvs	r3, #101	; 0x65
    12a8:	65725f75 	ldrbvs	r5, [r2, #-3957]!	; 0xfffff08b
    12ac:	61625f67 	cmnvs	r2, r7, ror #30
    12b0:	5f006b63 	svcpl	0x00006b63
    12b4:	4d43435f 	stclmi	3, cr4, [r3, #-380]	; 0xfffffe84
    12b8:	45565f55 	ldrbmi	r5, [r6, #-3925]	; 0xfffff0ab
    12bc:	4b4c435f 	blmi	1312040 <__standby_start+0x1312040>
    12c0:	4745525f 	smlsldmi	r5, r5, pc, r2	; <UNPREDICTABLE>
    12c4:	43333130 	teqmi	r3, #48, 2
    12c8:	635f5f00 	cmpvs	pc, #0, 30
    12cc:	5f756d63 	svcpl	0x00756d63
    12d0:	5f737661 	svcpl	0x00737661
    12d4:	5f6b6c63 	svcpl	0x006b6c63
    12d8:	30676572 	rsbcc	r6, r7, r2, ror r5
    12dc:	5f343431 	svcpl	0x00343431
    12e0:	61550074 	cmpvs	r5, r4, ror r0
    12e4:	47307472 			; <UNDEFINED> instruction: 0x47307472
    12e8:	00657461 	rsbeq	r7, r5, r1, ror #8
    12ec:	31697343 	cmncc	r9, r3, asr #6
    12f0:	006b6c43 	rsbeq	r6, fp, r3, asr #24
    12f4:	43435f5f 	movtmi	r5, #16223	; 0x3f5f
    12f8:	415f554d 	cmpmi	pc, sp, asr #10
    12fc:	43314250 	teqmi	r1, #80, 4
    1300:	475f4b4c 	ldrbmi	r4, [pc, -ip, asr #22]
    1304:	5f455441 	svcpl	0x00455441
    1308:	30474552 	subcc	r4, r7, r2, asr r5
    130c:	00433630 	subeq	r3, r3, r0, lsr r6
    1310:	43495841 	movtmi	r5, #38977	; 0x9841
    1314:	69446b6c 	stmdbvs	r4, {r2, r3, r5, r6, r8, r9, fp, sp, lr}^
    1318:	5f5f0076 	svcpl	0x005f0076
    131c:	554d4343 	strbpl	r4, [sp, #-835]	; 0xfffffcbd
    1320:	4c4c505f 	mcrrmi	0, 5, r5, ip, cr15
    1324:	55545f35 	ldrbpl	r5, [r4, #-3893]	; 0xfffff0cb
    1328:	474e494e 	strbmi	r4, [lr, -lr, asr #18]
    132c:	4745525f 	smlsldmi	r5, r5, pc, r2	; <UNPREDICTABLE>
    1330:	34323030 	ldrtcc	r3, [r2], #-48	; 0xffffffd0
    1334:	4f435600 	svcmi	0x00435600
    1338:	6e696147 	powvsem	f6, f1, f7
    133c:	61747300 	cmnvs	r4, r0, lsl #6
    1340:	7962646e 	stmdbvc	r2!, {r1, r2, r3, r5, r6, sl, sp, lr}^
    1344:	6b6c635f 	blvs	1b1a0c8 <__standby_start+0x1b1a0c8>
    1348:	7465735f 	strbtvc	r7, [r5], #-863	; 0xfffffca1
    134c:	00766964 	rsbseq	r6, r6, r4, ror #18
    1350:	32334341 	eorscc	r4, r3, #67108865	; 0x4000001
    1354:	6b6c4338 	blvs	1b1203c <__standby_start+0x1b1203c>
    1358:	00637253 	rsbeq	r7, r3, r3, asr r2
    135c:	71657246 	cmnvc	r5, r6, asr #4
    1360:	636e6575 	cmnvs	lr, #490733568	; 0x1d400000
    1364:	77540079 			; <UNDEFINED> instruction: 0x77540079
    1368:	61473169 	mrsvs	r3, SPSR
    136c:	50006574 	andpl	r6, r0, r4, ror r5
    1370:	43326c6c 	teqmi	r2, #108, 24	; 0x6c00
    1374:	5f006c74 	svcpl	0x00006c74
    1378:	4d43435f 	stclmi	3, cr4, [r3, #-380]	; 0xfffffe84
    137c:	45525f55 	ldrbmi	r5, [r2, #-3925]	; 0xfffff0ab
    1380:	494c5f47 	stmdbmi	ip, {r0, r1, r2, r6, r8, r9, sl, fp, ip, lr}^
    1384:	5f005453 	svcpl	0x00005453
    1388:	6d63635f 	stclvs	3, cr6, [r3, #-380]!	; 0xfffffe84
    138c:	6c705f75 	ldclvs	15, cr5, [r0], #-468	; 0xfffffe2c
    1390:	765f346c 	ldrbvc	r3, [pc], -ip, ror #8
    1394:	65725f65 	ldrbvs	r5, [r2, #-3941]!	; 0xfffff09b
    1398:	31303067 	teqcc	r0, r7, rrx
    139c:	00745f38 	rsbseq	r5, r4, r8, lsr pc
    13a0:	30425041 	subcc	r5, r2, r1, asr #32
    13a4:	446b6c43 	strbtmi	r6, [fp], #-3139	; 0xfffff3bd
    13a8:	50007669 	andpl	r7, r0, r9, ror #12
    13ac:	54356c6c 	ldrtpl	r6, [r5], #-3180	; 0xfffff394
    13b0:	00656e75 	rsbeq	r6, r5, r5, ror lr
    13b4:	53796850 	cmnpl	r9, #80, 16	; 0x500000
    13b8:	43636570 	cmnmi	r3, #112, 10	; 0x1c000000
    13bc:	61476b6c 	mrsvs	r6, SPSR
    13c0:	50006574 	andpl	r6, r0, r4, ror r5
    13c4:	47313273 			; <UNDEFINED> instruction: 0x47313273
    13c8:	00657461 	rsbeq	r7, r5, r1, ror #8
    13cc:	366c6c50 			; <UNDEFINED> instruction: 0x366c6c50
    13d0:	656e7554 	strbvs	r7, [lr, #-1364]!	; 0xfffffaac
    13d4:	69734300 	ldmdbvs	r3!, {r8, r9, lr}^
    13d8:	74614730 	strbtvc	r4, [r1], #-1840	; 0xfffff8d0
    13dc:	64530065 	ldrbvs	r0, [r3], #-101	; 0xffffff9b
    13e0:	31636d6d 	cmncc	r3, sp, ror #26
    13e4:	65746147 	ldrbvs	r6, [r4, #-327]!	; 0xfffffeb9
    13e8:	435f5f00 	cmpmi	pc, #0, 30
    13ec:	5f554d43 	svcpl	0x00554d43
    13f0:	30425041 	subcc	r5, r2, r1, asr #32
    13f4:	5f4b4c43 	svcpl	0x004b4c43
    13f8:	45544147 	ldrbmi	r4, [r4, #-327]	; 0xfffffeb9
    13fc:	4745525f 	smlsldmi	r5, r5, pc, r2	; <UNPREDICTABLE>
    1400:	38363030 	ldmdacc	r6!, {r4, r5, ip, sp}
    1404:	69727000 	ldmdbvs	r2!, {ip, sp, lr}^
    1408:	5244006f 	subpl	r0, r4, #111	; 0x6f
    140c:	5f434d41 	svcpl	0x00434d41
    1410:	72746572 	rsbsvc	r6, r4, #478150656	; 0x1c800000
    1414:	696e6961 	stmdbvs	lr!, {r0, r5, r6, r8, fp, sp, lr}^
    1418:	4400676e 	strmi	r6, [r0], #-1902	; 0xfffff892
    141c:	434d4152 	movtmi	r4, #53586	; 0xd152
    1420:	736f685f 	cmnvc	pc, #6225920	; 0x5f0000
    1424:	726f7074 	rsbvc	r7, pc, #116	; 0x74
    1428:	6e6f5f74 	mcrvs	15, 3, r5, cr15, cr4, {3}
    142c:	66666f5f 	uqsaxvs	r6, r6, pc	; <UNPREDICTABLE>
    1430:	74657200 	strbtvc	r7, [r5], #-512	; 0xfffffe00
    1434:	6c61765f 	stclvs	6, cr7, [r1], #-380	; 0xfffffe84
    1438:	67657200 	strbvs	r7, [r5, -r0, lsl #4]!
    143c:	7272645f 	rsbsvc	r6, r2, #1593835520	; 0x5f000000
    1440:	74636d00 	strbtvc	r6, [r3], #-3328	; 0xfffff300
    1444:	65735f6c 	ldrbvs	r5, [r3, #-3948]!	; 0xfffff094
    1448:	72645f74 	rsbvc	r5, r4, #116, 30	; 0x1d0
    144c:	00657669 	rsbeq	r7, r5, r9, ror #12
    1450:	5f676572 	svcpl	0x00676572
    1454:	00726364 	rsbseq	r6, r2, r4, ror #6
    1458:	6c74636d 	ldclvs	3, cr6, [r4], #-436	; 0xfffffe4c
    145c:	6572705f 	ldrbvs	r7, [r2, #-95]!	; 0xffffffa1
    1460:	72616863 	rsbvc	r6, r1, #6488064	; 0x630000
    1464:	615f6567 	cmpvs	pc, r7, ror #10
    1468:	70006c6c 	andvc	r6, r0, ip, ror #24
    146c:	5f74726f 	svcpl	0x0074726f
    1470:	74696177 	strbtvc	r6, [r9], #-375	; 0xfffffe89
    1474:	6379635f 	cmnvs	r9, #2080374785	; 0x7c000001
    1478:	4400656c 	strmi	r6, [r0], #-1388	; 0xfffffa94
    147c:	434d4152 	movtmi	r4, #53586	; 0xd152
    1480:	6978655f 	ldmdbvs	r8!, {r0, r1, r2, r3, r4, r6, r8, sl, sp, lr}^
    1484:	65735f74 	ldrbvs	r5, [r3, #-3956]!	; 0xfffff08c
    1488:	6572666c 	ldrbvs	r6, [r2, #-1644]!	; 0xfffff994
    148c:	73657266 	cmnvc	r5, #1610612742	; 0x60000006
    1490:	636d0068 	cmnvs	sp, #104	; 0x68
    1494:	635f6c74 	cmpvs	pc, #116, 24	; 0x7400
    1498:	69666e6f 	stmdbvs	r6!, {r0, r1, r2, r3, r5, r6, r9, sl, fp, sp, lr}^
    149c:	65727567 	ldrbvs	r7, [r2, #-1383]!	; 0xfffffa99
    14a0:	736f685f 	cmnvc	pc, #6225920	; 0x5f0000
    14a4:	726f7074 	rsbvc	r7, pc, #116	; 0x74
    14a8:	65720074 	ldrbvs	r0, [r2, #-116]!	; 0xffffff8c
    14ac:	70745f67 	rsbsvc	r5, r4, r7, ror #30
    14b0:	72003072 	andvc	r3, r0, #114	; 0x72
    14b4:	765f6765 	ldrbvc	r6, [pc], -r5, ror #14
    14b8:	64006c61 	strvs	r6, [r0], #-3169	; 0xfffff39f
    14bc:	5f6d6172 	svcpl	0x006d6172
    14c0:	74736f68 	ldrbtvc	r6, [r3], #-3944	; 0xfffff098
    14c4:	74726f70 	ldrbtvc	r6, [r2], #-3952	; 0xfffff090
    14c8:	7465735f 	strbtvc	r7, [r5], #-863	; 0xfffffca1
    14cc:	72007075 	andvc	r7, r0, #117	; 0x75
    14d0:	655f6765 	ldrbvs	r6, [pc, #-1893]	; d73 <__standby_start+0xd73>
    14d4:	0032726d 	eorseq	r7, r2, sp, ror #4
    14d8:	5f676572 	svcpl	0x00676572
    14dc:	33726d65 	cmncc	r2, #6464	; 0x1940
    14e0:	74636d00 	strbtvc	r6, [r3], #-3328	; 0xfffff300
    14e4:	68615f6c 	stmdavs	r1!, {r2, r3, r5, r6, r8, r9, sl, fp, ip, lr}^
    14e8:	65725f62 	ldrbvs	r5, [r2, #-3938]!	; 0xfffff09e
    14ec:	00746573 	rsbseq	r6, r4, r3, ror r5
    14f0:	4d415244 	sfmmi	f5, 2, [r1, #-272]	; 0xfffffef0
    14f4:	78655f43 	stmdavc	r5!, {r0, r1, r6, r8, r9, sl, fp, ip, lr}^
    14f8:	705f7469 	subsvc	r7, pc, r9, ror #8
    14fc:	7265776f 	rsbvc	r7, r5, #29097984	; 0x1bc0000
    1500:	776f645f 			; <UNDEFINED> instruction: 0x776f645f
    1504:	5244006e 	subpl	r0, r4, #110	; 0x6e
    1508:	5f434d41 	svcpl	0x00434d41
    150c:	74736f68 	ldrbtvc	r6, [r3], #-3944	; 0xfffff098
    1510:	74726f70 	ldrbtvc	r6, [r2], #-3952	; 0xfffff090
    1514:	7465735f 	strbtvc	r7, [r5], #-863	; 0xfffffca1
    1518:	72007075 	andvc	r7, r0, #117	; 0x75
    151c:	695f6765 	ldmdbvs	pc, {r0, r2, r5, r6, r8, r9, sl, sp, lr}^	; <UNPREDICTABLE>
    1520:	0072636f 	rsbseq	r6, r2, pc, ror #6
    1524:	6c74636d 	ldclvs	3, cr6, [r4], #-436	; 0xfffffe4c
    1528:	7264645f 	rsbvc	r6, r4, #1593835520	; 0x5f000000
    152c:	65725f33 	ldrbvs	r5, [r2, #-3891]!	; 0xfffff0cd
    1530:	00746573 	rsbseq	r6, r4, r3, ror r5
    1534:	6d617264 	sfmvs	f7, 2, [r1, #-400]!	; 0xfffffe70
    1538:	736f685f 	cmnvc	pc, #6225920	; 0x5f0000
    153c:	726f7074 	rsbvc	r7, pc, #116	; 0x74
    1540:	6e6f5f74 	mcrvs	15, 3, r5, cr15, cr4, {3}
    1544:	66666f5f 	uqsaxvs	r6, r6, pc	; <UNPREDICTABLE>
    1548:	67657200 	strbvs	r7, [r5, -r0, lsl #4]!
    154c:	7270745f 	rsbsvc	r7, r0, #1593835520	; 0x5f000000
    1550:	65720031 	ldrbvs	r0, [r2, #-49]!	; 0xffffffcf
    1554:	70745f67 	rsbsvc	r5, r4, r7, ror #30
    1558:	64003272 	strvs	r3, [r0], #-626	; 0xfffffd8e
    155c:	5f6d6172 	svcpl	0x006d6172
    1560:	74736f68 	ldrbtvc	r6, [r3], #-3944	; 0xfffff098
    1564:	74726f70 	ldrbtvc	r6, [r2], #-3952	; 0xfffff090
    1568:	6568635f 	strbvs	r6, [r8, #-863]!	; 0xfffffca1
    156c:	615f6b63 	cmpvs	pc, r3, ror #22
    1570:	665f6268 	ldrbvs	r6, [pc], -r8, ror #4
    1574:	5f6f6669 	svcpl	0x006f6669
    1578:	74617473 	strbtvc	r7, [r1], #-1139	; 0xfffffb8d
    157c:	72007375 	andvc	r7, r0, #-738197503	; 0xd4000001
    1580:	6d5f6765 	ldclvs	7, cr6, [pc, #-404]	; 13f4 <__standby_start+0x13f4>
    1584:	72640072 	rsbvc	r0, r4, #114	; 0x72
    1588:	655f6d61 	ldrbvs	r6, [pc, #-3425]	; 82f <__standby_start+0x82f>
    158c:	7265746e 	rsbvc	r7, r5, #1845493760	; 0x6e000000
    1590:	776f705f 			; <UNDEFINED> instruction: 0x776f705f
    1594:	645f7265 	ldrbvs	r7, [pc], #-613	; 159c <__standby_start+0x159c>
    1598:	006e776f 	rsbeq	r7, lr, pc, ror #14
    159c:	6d617264 	sfmvs	f7, 2, [r1, #-400]!	; 0xfffffe70
    15a0:	6172642f 	cmnvs	r2, pc, lsr #8
    15a4:	00632e6d 	rsbeq	r2, r3, sp, ror #28
    15a8:	5f676572 	svcpl	0x00676572
    15ac:	7263717a 	rsbvc	r7, r3, #-2147483618	; 0x8000001e
    15b0:	52440030 	subpl	r0, r4, #48	; 0x30
    15b4:	5f434d41 	svcpl	0x00434d41
    15b8:	65746e65 	ldrbvs	r6, [r4, #-3685]!	; 0xfffff19b
    15bc:	65735f72 	ldrbvs	r5, [r3, #-3954]!	; 0xfffff08e
    15c0:	6572666c 	ldrbvs	r6, [r2, #-1644]!	; 0xfffff994
    15c4:	73657266 	cmnvc	r5, #1610612742	; 0x60000006
    15c8:	6d630068 	stclvs	0, cr0, [r3, #-416]!	; 0xfffffe60
    15cc:	756e5f64 	strbvc	r5, [lr, #-3940]!	; 0xfffff09c
    15d0:	7264006d 	rsbvc	r0, r4, #109	; 0x6d
    15d4:	655f6d61 	ldrbvs	r6, [pc, #-3425]	; 87b <__standby_start+0x87b>
    15d8:	5f746978 	svcpl	0x00746978
    15dc:	65776f70 	ldrbvs	r6, [r7, #-3952]!	; 0xfffff090
    15e0:	6f645f72 	svcvs	0x00645f72
    15e4:	70006e77 	andvc	r6, r0, r7, ror lr
    15e8:	5f74726f 	svcpl	0x0074726f
    15ec:	00786469 	rsbseq	r6, r8, r9, ror #8
    15f0:	4d415244 	sfmmi	f5, 2, [r1, #-272]	; 0xfffffef0
    15f4:	6e655f43 	cdpvs	15, 6, cr5, cr5, cr3, {2}
    15f8:	5f726574 	svcpl	0x00726574
    15fc:	65776f70 	ldrbvs	r6, [r7, #-3952]!	; 0xfffff090
    1600:	6f645f72 	svcvs	0x00645f72
    1604:	72006e77 	andvc	r6, r0, #1904	; 0x770
    1608:	655f6765 	ldrbvs	r6, [pc, #-1893]	; eab <__standby_start+0xeab>
    160c:	4400726d 	strmi	r7, [r0], #-621	; 0xfffffd93
    1610:	434d4152 	movtmi	r4, #53586	; 0xd152
    1614:	736f685f 	cmnvc	pc, #6225920	; 0x5f0000
    1618:	726f7074 	rsbvc	r7, pc, #116	; 0x74
    161c:	68635f74 	stmdavs	r3!, {r2, r4, r5, r6, r8, r9, sl, fp, ip, lr}^
    1620:	5f6b6365 	svcpl	0x006b6365
    1624:	5f626861 	svcpl	0x00626861
    1628:	6f666966 	svcvs	0x00666966
    162c:	6174735f 	cmnvs	r4, pc, asr r3
    1630:	00737574 	rsbseq	r7, r3, r4, ror r5
    1634:	74726f70 	ldrbtvc	r6, [r2], #-3952	; 0xfffff090
    1638:	6972705f 	ldmdbvs	r2!, {r0, r1, r2, r3, r4, r6, ip, sp, lr}^
    163c:	76656c5f 			; <UNDEFINED> instruction: 0x76656c5f
    1640:	64006c65 	strvs	r6, [r0], #-3173	; 0xfffff39b
    1644:	5f6d6172 	svcpl	0x006d6172
    1648:	65746e65 	ldrbvs	r6, [r4, #-3685]!	; 0xfffff19b
    164c:	65735f72 	ldrbvs	r5, [r3, #-3954]!	; 0xfffff08e
    1650:	6572666c 	ldrbvs	r6, [r2, #-1644]!	; 0xfffff994
    1654:	73657266 	cmnvc	r5, #1610612742	; 0x60000006
    1658:	636d0068 	cmnvs	sp, #104	; 0x68
    165c:	6d5f6c74 	ldclvs	12, cr6, [pc, #-464]	; 1494 <__standby_start+0x1494>
    1660:	5f65646f 	svcpl	0x0065646f
    1664:	74697865 	strbtvc	r7, [r9], #-2149	; 0xfffff79b
    1668:	61726400 	cmnvs	r2, r0, lsl #8
    166c:	78655f6d 	stmdavc	r5!, {r0, r2, r3, r5, r6, r8, r9, sl, fp, ip, lr}^
    1670:	735f7469 	cmpvc	pc, #1761607680	; 0x69000000
    1674:	72666c65 	rsbvc	r6, r6, #25856	; 0x6500
    1678:	65726665 	ldrbvs	r6, [r2, #-1637]!	; 0xfffff99b
    167c:	6d006873 	stcvs	8, cr6, [r0, #-460]	; 0xfffffe34
    1680:	5f6c7463 	svcpl	0x006c7463
    1684:	75746573 	ldrbvc	r6, [r4, #-1395]!	; 0xfffffa8d
    1688:	72645f70 	rsbvc	r5, r4, #112, 30	; 0x1c0
    168c:	635f6d61 	cmpvs	pc, #6208	; 0x1840
    1690:	6b636f6c 	blvs	18dd448 <__standby_start+0x18dd448>
    1694:	706d7400 	rsbvc	r7, sp, r0, lsl #8
    1698:	746f7551 	strbtvc	r7, [pc], #-1361	; 16a0 <__standby_start+0x16a0>
    169c:	755f5f00 	ldrbvc	r5, [pc, #-3840]	; 7a4 <__standby_start+0x7a4>
    16a0:	63003436 	movwvs	r3, #1078	; 0x436
    16a4:	5f706968 	svcpl	0x00706968
    16a8:	006e6564 	rsbeq	r6, lr, r4, ror #10
    16ac:	6c74636d 	ldclvs	3, cr6, [r4], #-436	; 0xfffffe4c
    16b0:	616e655f 	cmnvs	lr, pc, asr r5
    16b4:	5f656c62 	svcpl	0x00656c62
    16b8:	786c6c64 	stmdavc	ip!, {r2, r5, r6, sl, fp, sp, lr}^
    16bc:	41524400 	cmpmi	r2, r0, lsl #8
    16c0:	675f434d 	ldrbvs	r4, [pc, -sp, asr #6]
    16c4:	645f7465 	ldrbvs	r7, [pc], #-1125	; 16cc <__standby_start+0x16cc>
    16c8:	5f6d6172 	svcpl	0x006d6172
    16cc:	657a6973 	ldrbvs	r6, [sl, #-2419]!	; 0xfffff68d
    16d0:	61726400 	cmnvs	r2, r0, lsl #8
    16d4:	65735f6d 	ldrbvs	r5, [r3, #-3949]!	; 0xfffff093
    16d8:	6c635f74 	stclvs	15, cr5, [r3], #-464	; 0xfffffe30
    16dc:	006b636f 	rsbeq	r6, fp, pc, ror #6
    16e0:	72645f5f 	rsbvc	r5, r4, #380	; 0x17c
    16e4:	705f6d61 	subsvc	r6, pc, r1, ror #26
    16e8:	5f617261 	svcpl	0x00617261
    16ec:	72640074 	rsbvc	r0, r4, #116	; 0x74
    16f0:	735f6d61 	cmpvc	pc, #6208	; 0x1840
    16f4:	615f7465 	cmpvs	pc, r5, ror #8
    16f8:	726f7475 	rsbvc	r7, pc, #1962934272	; 0x75000000
    16fc:	65726665 	ldrbvs	r6, [r2, #-1637]!	; 0xfffff99b
    1700:	635f6873 	cmpvs	pc, #7536640	; 0x730000
    1704:	656c6379 	strbvs	r6, [ip, #-889]!	; 0xfffffc87
    1708:	76696400 	strbtvc	r6, [r9], -r0, lsl #8
    170c:	6f697369 	svcvs	0x00697369
    1710:	74730072 	ldrbtvc	r0, [r3], #-114	; 0xffffff8e
    1714:	62646e61 	rsbvs	r6, r4, #1552	; 0x610
    1718:	6c755f79 	ldclvs	15, cr5, [r5], #-484	; 0xfffffe1c
    171c:	00766964 	rsbseq	r6, r6, r4, ror #18
    1720:	6d617264 	sfmvs	f7, 2, [r1, #-400]!	; 0xfffffe70
    1724:	7270745f 	rsbsvc	r7, r0, #1593835520	; 0x5f000000
    1728:	72640030 	rsbvc	r0, r4, #48	; 0x30
    172c:	745f6d61 	ldrbvc	r6, [pc], #-3425	; 1734 <__standby_start+0x1734>
    1730:	00317270 	eorseq	r7, r1, r0, ror r2
    1734:	6d617264 	sfmvs	f7, 2, [r1, #-400]!	; 0xfffffe70
    1738:	7270745f 	rsbsvc	r7, r0, #1593835520	; 0x5f000000
    173c:	72640032 	rsbvc	r0, r4, #50	; 0x32
    1740:	745f6d61 	ldrbvc	r6, [pc], #-3425	; 1748 <__standby_start+0x1748>
    1744:	00337270 	eorseq	r7, r3, r0, ror r2
    1748:	6d617264 	sfmvs	f7, 2, [r1, #-400]!	; 0xfffffe70
    174c:	7270745f 	rsbsvc	r7, r0, #1593835520	; 0x5f000000
    1750:	72640034 	rsbvc	r0, r4, #52	; 0x34
    1754:	745f6d61 	ldrbvc	r6, [pc], #-3425	; 175c <__standby_start+0x175c>
    1758:	00357270 	eorseq	r7, r5, r0, ror r2
    175c:	6d617264 	sfmvs	f7, 2, [r1, #-400]!	; 0xfffffe70
    1760:	6163735f 	cmnvs	r3, pc, asr r3
    1764:	65725f6e 	ldrbvs	r5, [r2, #-3950]!	; 0xfffff092
    1768:	69706461 	ldmdbvs	r0!, {r0, r5, r6, sl, sp, lr}^
    176c:	64006570 	strvs	r6, [r0], #-1392	; 0xfffffa90
    1770:	5f6d6172 	svcpl	0x006d6172
    1774:	31726d65 	cmncc	r2, r5, ror #26
    1778:	61726400 	cmnvs	r2, r0, lsl #8
    177c:	65735f6d 	ldrbvs	r5, [r3, #-3949]!	; 0xfffff093
    1780:	72645f74 	rsbvc	r5, r4, #116, 30	; 0x1d0
    1784:	00657669 	rsbeq	r7, r5, r9, ror #12
    1788:	6d617264 	sfmvs	f7, 2, [r1, #-400]!	; 0xfffffe70
    178c:	7465675f 	strbtvc	r6, [r5], #-1887	; 0xfffff8a1
    1790:	7a69735f 	bvc	1a5e514 <__standby_start+0x1a5e514>
    1794:	72640065 	rsbvc	r0, r4, #101	; 0x65
    1798:	635f6d61 	cmpvs	pc, #6208	; 0x1840
    179c:	5f706968 	svcpl	0x00706968
    17a0:	736e6564 	cmnvc	lr, #100, 10	; 0x19000000
    17a4:	00797469 	rsbseq	r7, r9, r9, ror #8
    17a8:	4d415244 	sfmmi	f5, 2, [r1, #-272]	; 0xfffffef0
    17ac:	6e695f43 	cdpvs	15, 6, cr5, cr9, cr3, {2}
    17b0:	6d007469 	cfstrsvs	mvf7, [r0, #-420]	; 0xfffffe5c
    17b4:	5f6c7463 	svcpl	0x006c7463
    17b8:	61736964 	cmnvs	r3, r4, ror #18
    17bc:	5f656c62 	svcpl	0x00656c62
    17c0:	006c6c64 	rsbeq	r6, ip, r4, ror #24
    17c4:	69766964 	ldmdbvs	r6!, {r2, r5, r6, r8, fp, sp, lr}^
    17c8:	646e6564 	strbtvs	r6, [lr], #-1380	; 0xfffffa9c
    17cc:	61726400 	cmnvs	r2, r0, lsl #8
    17d0:	646f5f6d 	strbtvs	r5, [pc], #-3949	; 17d8 <__standby_start+0x17d8>
    17d4:	6e655f74 	mcrvs	15, 3, r5, cr5, cr4, {3}
    17d8:	41524400 	cmpmi	r2, r0, lsl #8
    17dc:	655f434d 	ldrbvs	r4, [pc, #-845]	; 1497 <__standby_start+0x1497>
    17e0:	00746978 	rsbseq	r6, r4, r8, ror r9
    17e4:	6d617264 	sfmvs	f7, 2, [r1, #-400]!	; 0xfffffe70
    17e8:	696e695f 	stmdbvs	lr!, {r0, r1, r2, r3, r4, r6, r8, fp, sp, lr}^
    17ec:	636d0074 	cmnvs	sp, #116	; 0x74
    17f0:	655f6c74 	ldrbvs	r6, [pc, #-3188]	; b84 <__standby_start+0xb84>
    17f4:	6c62616e 	stfvse	f6, [r2], #-440	; 0xfffffe48
    17f8:	6c645f65 	stclvs	15, cr5, [r4], #-404	; 0xfffffe6c
    17fc:	4400306c 	strmi	r3, [r0], #-108	; 0xffffff94
    1800:	434d4152 	movtmi	r4, #53586	; 0xd152
    1804:	6f6c635f 	svcvs	0x006c635f
    1808:	6f5f6b63 	svcvs	0x005f6b63
    180c:	75707475 	ldrbvc	r7, [r0, #-1141]!	; 0xfffffb8b
    1810:	6e655f74 	mcrvs	15, 3, r5, cr5, cr4, {3}
    1814:	61726400 	cmnvs	r2, r0, lsl #8
    1818:	75625f6d 	strbvc	r5, [r2, #-3949]!	; 0xfffff093
    181c:	69775f73 	ldmdbvs	r7!, {r0, r1, r4, r5, r6, r8, r9, sl, fp, ip, lr}^
    1820:	00687464 	rsbeq	r7, r8, r4, ror #8
    1824:	4d415244 	sfmmi	f5, 2, [r1, #-272]	; 0xfffffef0
    1828:	65735f43 	ldrbvs	r5, [r3, #-3907]!	; 0xfffff0bd
    182c:	75615f74 	strbvc	r5, [r1, #-3956]!	; 0xfffff08c
    1830:	65726f74 	ldrbvs	r6, [r2, #-3956]!	; 0xfffff08c
    1834:	73657266 	cmnvc	r5, #1610612742	; 0x60000006
    1838:	79635f68 	stmdbvc	r3!, {r3, r5, r6, r8, r9, sl, fp, ip, lr}^
    183c:	00656c63 	rsbeq	r6, r5, r3, ror #24
    1840:	6d617264 	sfmvs	f7, 2, [r1, #-400]!	; 0xfffffe70
    1844:	6e61725f 	mcrvs	2, 3, r7, cr1, cr15, {2}
    1848:	756e5f6b 	strbvc	r5, [lr, #-3947]!	; 0xfffff095
    184c:	7264006d 	rsbvc	r0, r4, #109	; 0x6d
    1850:	625f6d61 	subsvs	r6, pc, #6208	; 0x1840
    1854:	61657361 	cmnvs	r5, r1, ror #6
    1858:	00726464 	rsbseq	r6, r2, r4, ror #8
    185c:	6d617264 	sfmvs	f7, 2, [r1, #-400]!	; 0xfffffe70
    1860:	6172642f 	cmnvs	r2, pc, lsr #8
    1864:	6e695f6d 	cdpvs	15, 6, cr5, cr9, cr13, {3}
    1868:	632e7469 	teqvs	lr, #1761607680	; 0x69000000
    186c:	74636d00 	strbtvc	r6, [r3], #-3328	; 0xfffff300
    1870:	74695f6c 	strbtvc	r5, [r9], #-3948	; 0xfffff094
    1874:	69645f6d 	stmdbvs	r4!, {r0, r2, r3, r5, r6, r8, r9, sl, fp, ip, lr}^
    1878:	6c626173 	stfvse	f6, [r2], #-460	; 0xfffffe34
    187c:	6d740065 	ldclvs	0, cr0, [r4, #-404]!	; 0xfffffe6c
    1880:	61765f70 	cmnvs	r6, r0, ror pc
    1884:	7264006c 	rsbvc	r0, r4, #108	; 0x6c
    1888:	7a5f6d61 	bvc	17dce14 <__standby_start+0x17dce14>
    188c:	72640071 	rsbvc	r0, r4, #113	; 0x71
    1890:	655f6d61 	ldrbvs	r6, [pc, #-3425]	; b37 <__standby_start+0xb37>
    1894:	0032726d 	eorseq	r7, r2, sp, ror #4
    1898:	6d617264 	sfmvs	f7, 2, [r1, #-400]!	; 0xfffffe70
    189c:	726d655f 	rsbvc	r6, sp, #398458880	; 0x17c00000
    18a0:	72640033 	rsbvc	r0, r4, #51	; 0x33
    18a4:	655f6d61 	ldrbvs	r6, [pc, #-3425]	; b4b <__standby_start+0xb4b>
    18a8:	00746978 	rsbseq	r6, r4, r8, ror r9
    18ac:	6d617264 	sfmvs	f7, 2, [r1, #-400]!	; 0xfffffe70
    18b0:	6b6c635f 	blvs	1b1a634 <__standby_start+0x1b1a634>
    18b4:	74636d00 	strbtvc	r6, [r3], #-3328	; 0xfffff300
    18b8:	74695f6c 	strbtvc	r5, [r9], #-3948	; 0xfffff094
    18bc:	6e655f6d 	cdpvs	15, 6, cr5, cr5, cr13, {3}
    18c0:	656c6261 	strbvs	r6, [ip, #-609]!	; 0xfffffd9f
    18c4:	706d7400 	rsbvc	r7, sp, r0, lsl #8
    18c8:	00766944 	rsbseq	r6, r6, r4, asr #18
    18cc:	72637068 	rsbvc	r7, r3, #104	; 0x68
    18d0:	6c61765f 	stclvs	6, cr7, [r1], #-380	; 0xfffffe84
    18d4:	44006575 	strmi	r6, [r0], #-1397	; 0xfffffa8b
    18d8:	434d4152 	movtmi	r4, #53586	; 0xd152
    18dc:	6163735f 	cmnvs	r3, pc, asr r3
    18e0:	65725f6e 	ldrbvs	r5, [r2, #-3950]!	; 0xfffff092
    18e4:	69706461 	ldmdbvs	r0!, {r0, r5, r6, sl, sp, lr}^
    18e8:	64006570 	strvs	r6, [r0], #-1392	; 0xfffffa90
    18ec:	5f6d6172 	svcpl	0x006d6172
    18f0:	775f6f69 	ldrbvc	r6, [pc, -r9, ror #30]
    18f4:	68746469 	ldmdavs	r4!, {r0, r3, r5, r6, sl, sp, lr}^
    18f8:	61726400 	cmnvs	r2, r0, lsl #8
    18fc:	79745f6d 	ldmdbvc	r4!, {r0, r2, r3, r5, r6, r8, r9, sl, fp, ip, lr}^
    1900:	64006570 	strvs	r6, [r0], #-1392	; 0xfffffa90
    1904:	5f6d6172 	svcpl	0x006d6172
    1908:	00736163 	rsbseq	r6, r3, r3, ror #2
    190c:	50716946 	rsbspl	r6, r1, r6, asr #18
    1910:	00646e65 	rsbeq	r6, r4, r5, ror #28
    1914:	4d717249 	lfmmi	f7, 2, [r1, #-292]!	; 0xfffffedc
    1918:	526b7361 	rsbpl	r7, fp, #-2080374783	; 0x84000001
    191c:	49006765 	stmdbmi	r0, {r0, r2, r5, r6, r8, r9, sl, sp, lr}
    1920:	72507172 	subsvc	r7, r0, #-2147483620	; 0x8000001c
    1924:	49006f69 	stmdbmi	r0, {r0, r3, r5, r6, r8, r9, sl, fp, sp, lr}
    1928:	65507172 	ldrbvs	r7, [r0, #-370]	; 0xfffffe8e
    192c:	4900646e 	stmdbmi	r0, {r1, r2, r3, r5, r6, sl, sp, lr}
    1930:	6f467172 	svcvs	0x00467172
    1934:	00656372 	rsbeq	r6, r5, r2, ror r3
    1938:	45717249 	ldrbmi	r7, [r1, #-585]!	; 0xfffffdb7
    193c:	6765526e 	strbvs	r5, [r5, -lr, ror #4]!
    1940:	61747300 	cmnvs	r4, r0, lsl #6
    1944:	7962646e 	stmdbvc	r2!, {r1, r2, r3, r5, r6, sl, sp, lr}^
    1948:	746e695f 	strbtvc	r6, [lr], #-2399	; 0xfffff6a1
    194c:	6978655f 	ldmdbvs	r8!, {r0, r1, r2, r3, r4, r6, r8, sl, sp, lr}^
    1950:	72490074 	subvc	r0, r9, #116	; 0x74
    1954:	73655271 	cmnvc	r5, #268435463	; 0x10000007
    1958:	74730070 	ldrbtvc	r0, [r3], #-112	; 0xffffff90
    195c:	62646e61 	rsbvs	r6, r4, #1552	; 0x610
    1960:	75715f79 	ldrbvc	r5, [r1, #-3961]!	; 0xfffff087
    1964:	5f797265 	svcpl	0x00797265
    1968:	00746e69 	rsbseq	r6, r4, r9, ror #28
    196c:	6e617473 	mcrvs	4, 3, r7, cr1, cr3, {3}
    1970:	5f796264 	svcpl	0x00796264
    1974:	62616e65 	rsbvs	r6, r1, #1616	; 0x650
    1978:	695f656c 	ldmdbvs	pc, {r2, r3, r5, r6, r8, sl, sp, lr}^	; <UNPREDICTABLE>
    197c:	5400746e 	strpl	r7, [r0], #-1134	; 0xfffffb92
    1980:	53657079 	cmnpl	r5, #121	; 0x79
    1984:	73006c65 	movwvc	r6, #3173	; 0xc65
    1988:	646e6174 	strbtvs	r6, [lr], #-372	; 0xfffffe8c
    198c:	695f7962 	ldmdbvs	pc, {r1, r5, r6, r8, fp, ip, sp, lr}^	; <UNPREDICTABLE>
    1990:	695f746e 	ldmdbvs	pc, {r1, r2, r3, r5, r6, sl, ip, sp, lr}^	; <UNPREDICTABLE>
    1994:	0074696e 	rsbseq	r6, r4, lr, ror #18
    1998:	53706d74 	cmnpl	r0, #116, 26	; 0x1d00
    199c:	4e006372 	mcrmi	3, 0, r6, cr0, cr2, {3}
    19a0:	7443696d 	strbvc	r6, [r3], #-2413	; 0xfffff693
    19a4:	72006c72 	andvc	r6, r0, #29184	; 0x7200
    19a8:	6c757365 	ldclvs	3, cr7, [r5], #-404	; 0xfffffe6c
    19ac:	65560074 	ldrbvs	r0, [r6, #-116]	; 0xffffff8c
    19b0:	726f7463 	rsbvc	r7, pc, #1660944384	; 0x63000000
    19b4:	73614200 	cmnvc	r1, #0, 4
    19b8:	64644165 	strbtvs	r4, [r4], #-357	; 0xfffffe9b
    19bc:	72490072 	subvc	r0, r9, #114	; 0x72
    19c0:	73614d71 	cmnvc	r1, #7232	; 0x1c40
    19c4:	7473006b 	ldrbtvc	r0, [r3], #-107	; 0xffffff95
    19c8:	62646e61 	rsbvs	r6, r4, #1552	; 0x610
    19cc:	6e695f79 	mcrvs	15, 3, r5, cr9, cr9, {3}
    19d0:	65725f74 	ldrbvs	r5, [r2, #-3956]!	; 0xfffff08c
    19d4:	00745f67 	rsbseq	r5, r4, r7, ror #30
    19d8:	47706d74 			; <UNDEFINED> instruction: 0x47706d74
    19dc:	49007072 	stmdbmi	r0, {r1, r4, r5, r6, ip, sp, lr}
    19e0:	5263746e 	rsbpl	r7, r3, #1845493760	; 0x6e000000
    19e4:	49006765 	stmdbmi	r0, {r0, r2, r5, r6, r8, r9, sl, sp, lr}
    19e8:	65537172 	ldrbvs	r7, [r3, #-370]	; 0xfffffe8e
    19ec:	6765526c 	strbvs	r5, [r5, -ip, ror #4]!
    19f0:	61747300 	cmnvs	r4, r0, lsl #6
    19f4:	7962646e 	stmdbvc	r2!, {r1, r2, r3, r5, r6, sl, sp, lr}^
    19f8:	746e695f 	strbtvc	r6, [lr], #-2399	; 0xfffff6a1
    19fc:	7200632e 	andvc	r6, r0, #-1207959552	; 0xb8000000
    1a00:	72657365 	rsbvc	r7, r5, #-1811939327	; 0x94000001
    1a04:	35646576 	strbcc	r6, [r4, #-1398]!	; 0xfffffa8a
    1a08:	73657200 	cmnvc	r5, #0, 4
    1a0c:	65767265 	ldrbvs	r7, [r6, #-613]!	; 0xfffffd9b
    1a10:	72003664 	andvc	r3, r0, #100, 12	; 0x6400000
    1a14:	72657365 	rsbvc	r7, r5, #-1811939327	; 0x94000001
    1a18:	37646576 			; <UNDEFINED> instruction: 0x37646576
    1a1c:	61747300 	cmnvs	r4, r0, lsl #6
    1a20:	7962646e 	stmdbvc	r2!, {r1, r2, r3, r5, r6, sl, sp, lr}^
    1a24:	2e72695f 	mrccs	9, 3, r6, cr2, cr15, {2}
    1a28:	74730063 	ldrbtvc	r0, [r3], #-99	; 0xffffff9d
    1a2c:	62646e61 	rsbvs	r6, r4, #1552	; 0x610
    1a30:	72695f79 	rsbvc	r5, r9, #484	; 0x1e4
    1a34:	6978655f 	ldmdbvs	r8!, {r0, r1, r2, r3, r4, r6, r8, sl, sp, lr}^
    1a38:	74730074 	ldrbtvc	r0, [r3], #-116	; 0xffffff8c
    1a3c:	62646e61 	rsbvs	r6, r4, #1552	; 0x610
    1a40:	72695f79 	rsbvc	r5, r9, #484	; 0x1e4
    1a44:	7265765f 	rsbvc	r7, r5, #99614720	; 0x5f00000
    1a48:	00796669 	rsbseq	r6, r9, r9, ror #12
    1a4c:	6e617473 	mcrvs	4, 3, r7, cr1, cr3, {3}
    1a50:	5f796264 	svcpl	0x00796264
    1a54:	695f7269 	ldmdbvs	pc, {r0, r3, r5, r6, r9, ip, sp, lr}^	; <UNPREDICTABLE>
    1a58:	0074696e 	rsbseq	r6, r4, lr, ror #18
    1a5c:	6e617473 	mcrvs	4, 3, r7, cr1, cr3, {3}
    1a60:	5f796264 	svcpl	0x00796264
    1a64:	645f7269 	ldrbvs	r7, [pc], #-617	; 1a6c <__standby_start+0x1a6c>
    1a68:	63657465 	cmnvs	r5, #1694498816	; 0x65000000
    1a6c:	724c0074 	subvc	r0, ip, #116	; 0x74
    1a70:	5f636461 	svcpl	0x00636461
    1a74:	73746e49 	cmnvc	r4, #1168	; 0x490
    1a78:	735f5f00 	cmpvc	pc, #0, 30
    1a7c:	646e6174 	strbtvs	r6, [lr], #-372	; 0xfffffe8c
    1a80:	6b5f7962 	blvs	17e0010 <__standby_start+0x17e0010>
    1a84:	725f7965 	subsvc	r7, pc, #1654784	; 0x194000
    1a88:	745f6765 	ldrbvc	r6, [pc], #-1893	; 1a90 <__standby_start+0x1a90>
    1a8c:	79654b00 	stmdbvc	r5!, {r8, r9, fp, lr}^
    1a90:	73746e49 	cmnvc	r4, #1168	; 0x490
    1a94:	61747300 	cmnvs	r4, r0, lsl #6
    1a98:	7962646e 	stmdbvc	r2!, {r1, r2, r3, r5, r6, sl, sp, lr}^
    1a9c:	79656b5f 	stmdbvc	r5!, {r0, r1, r2, r3, r4, r6, r8, r9, fp, sp, lr}^
    1aa0:	4b00632e 	blmi	1a760 <__standby_start+0x1a760>
    1aa4:	65527965 	ldrbvs	r7, [r2, #-2405]	; 0xfffff69b
    1aa8:	724c0067 	subvc	r0, ip, #103	; 0x67
    1aac:	5f636461 	svcpl	0x00636461
    1ab0:	63746e49 	cmnvs	r4, #1168	; 0x490
    1ab4:	61747300 	cmnvs	r4, r0, lsl #6
    1ab8:	7962646e 	stmdbvc	r2!, {r1, r2, r3, r5, r6, sl, sp, lr}^
    1abc:	79656b5f 	stmdbvc	r5!, {r0, r1, r2, r3, r4, r6, r8, r9, fp, sp, lr}^
    1ac0:	6978655f 	ldmdbvs	r8!, {r0, r1, r2, r3, r4, r6, r8, sl, sp, lr}^
    1ac4:	654b0074 	strbvs	r0, [fp, #-116]	; 0xffffff8c
    1ac8:	74614479 	strbtvc	r4, [r1], #-1145	; 0xfffffb87
    1acc:	4b003061 	blmi	dc58 <__standby_start+0xdc58>
    1ad0:	61447965 	mrsvs	r7, SPSR
    1ad4:	00316174 	eorseq	r6, r1, r4, ror r1
    1ad8:	6461724c 	strbtvs	r7, [r1], #-588	; 0xfffffdb4
    1adc:	74435f63 	strbvc	r5, [r3], #-3939	; 0xfffff09d
    1ae0:	4c006c72 	stcmi	12, cr6, [r0], {114}	; 0x72
    1ae4:	63646172 	cmnvs	r4, #-2147483620	; 0x8000001c
    1ae8:	7461445f 	strbtvc	r4, [r1], #-1119	; 0xfffffba1
    1aec:	73003161 	movwvc	r3, #353	; 0x161
    1af0:	646e6174 	strbtvs	r6, [lr], #-372	; 0xfffffe8c
    1af4:	6b5f7962 	blvs	17e0084 <__standby_start+0x17e0084>
    1af8:	695f7965 	ldmdbvs	pc, {r0, r2, r5, r6, r8, fp, ip, sp, lr}^	; <UNPREDICTABLE>
    1afc:	0074696e 	rsbseq	r6, r4, lr, ror #18
    1b00:	4979654b 	ldmdbmi	r9!, {r0, r1, r3, r6, r8, sl, sp, lr}^
    1b04:	0063746e 	rsbeq	r7, r3, lr, ror #8
    1b08:	6e617473 	mcrvs	4, 3, r7, cr1, cr3, {3}
    1b0c:	5f796264 	svcpl	0x00796264
    1b10:	72657571 	rsbvc	r7, r5, #473956352	; 0x1c400000
    1b14:	656b5f79 	strbvs	r5, [fp, #-3961]!	; 0xfffff087
    1b18:	5f5f0079 	svcpl	0x005f0079
    1b1c:	4e415453 	mcrmi	4, 2, r5, cr1, cr3, {2}
    1b20:	5f594244 	svcpl	0x00594244
    1b24:	5f59454b 	svcpl	0x0059454b
    1b28:	00474552 	subeq	r4, r7, r2, asr r5
    1b2c:	6461724c 	strbtvs	r7, [r1], #-588	; 0xfffffdb4
    1b30:	61445f63 	mrsvs	r5, SPSR
    1b34:	00306174 	eorseq	r6, r0, r4, ror r1
    1b38:	4379654b 	cmnmi	r9, #314572800	; 0x12c00000
    1b3c:	006c7274 	rsbeq	r7, ip, r4, ror r2
    1b40:	6e617473 	mcrvs	4, 3, r7, cr1, cr3, {3}
    1b44:	5f796264 	svcpl	0x00796264
    1b48:	5f746567 	svcpl	0x00746567
    1b4c:	746c6f76 	strbtvc	r6, [ip], #-3958	; 0xfffff08a
    1b50:	00656761 	rsbeq	r6, r5, r1, ror #14
    1b54:	646e6966 	strbtvs	r6, [lr], #-2406	; 0xfffff69a
    1b58:	666e695f 			; <UNDEFINED> instruction: 0x666e695f
    1b5c:	7473006f 	ldrbtvc	r0, [r3], #-111	; 0xffffff91
    1b60:	62646e61 	rsbvs	r6, r4, #1552	; 0x610
    1b64:	6f705f79 	svcvs	0x00705f79
    1b68:	5f726577 	svcpl	0x00726577
    1b6c:	74696e69 	strbtvc	r6, [r9], #-3689	; 0xfffff197
    1b70:	78616d00 	stmdavc	r1!, {r8, sl, fp, sp, lr}^
    1b74:	0056755f 	subseq	r7, r6, pc, asr r5
    1b78:	6e617473 	mcrvs	4, 3, r7, cr1, cr3, {3}
    1b7c:	5f796264 	svcpl	0x00796264
    1b80:	65776f70 	ldrbvs	r6, [r7, #-3952]!	; 0xfffff090
    1b84:	00632e72 	rsbeq	r2, r3, r2, ror lr
    1b88:	6b73616d 	blvs	1cda144 <__standby_start+0x1cda144>
    1b8c:	49575400 	ldmdbmi	r7, {sl, ip, lr}^
    1b90:	5f504f5f 	svcpl	0x00504f5f
    1b94:	76005257 			; <UNDEFINED> instruction: 0x76005257
    1b98:	6e5f6c6f 	cdpvs	12, 5, cr6, cr15, cr15, {3}
    1b9c:	73746962 	cmnvc	r4, #1605632	; 0x188000
    1ba0:	61747300 	cmnvs	r4, r0, lsl #6
    1ba4:	7962646e 	stmdbvc	r2!, {r1, r2, r3, r5, r6, sl, sp, lr}^
    1ba8:	7465735f 	strbtvc	r7, [r5], #-863	; 0xfffffca1
    1bac:	6c6f765f 	stclvs	6, cr7, [pc], #-380	; 1a38 <__standby_start+0x1a38>
    1bb0:	65676174 	strbvs	r6, [r7, #-372]!	; 0xfffffe8c
    1bb4:	6c6f7600 	stclvs	6, cr7, [pc], #-0	; 1bbc <__standby_start+0x1bbc>
    1bb8:	6968735f 	stmdbvs	r8!, {r0, r1, r2, r3, r4, r6, r8, r9, ip, sp, lr}^
    1bbc:	61007466 	tstvs	r0, r6, ror #8
    1bc0:	30327078 	eorscc	r7, r2, r8, ror r0
    1bc4:	666e695f 			; <UNDEFINED> instruction: 0x666e695f
    1bc8:	7861006f 	stmdavc	r1!, {r0, r1, r2, r3, r5, r6}^
    1bcc:	6e695f70 	mcrvs	15, 3, r5, cr9, cr0, {3}
    1bd0:	54006f66 	strpl	r6, [r0], #-3942	; 0xfffff09a
    1bd4:	4f5f4957 	svcmi	0x005f4957
    1bd8:	44525f50 	ldrbmi	r5, [r2], #-3920	; 0xfffff0b0
    1bdc:	69777400 	ldmdbvs	r7!, {sl, ip, sp, lr}^
    1be0:	5f706f5f 	svcpl	0x00706f5f
    1be4:	65707974 	ldrbvs	r7, [r0, #-2420]!	; 0xfffff68c
    1be8:	7300655f 	movwvc	r6, #1375	; 0x55f
    1bec:	5f706574 	svcpl	0x00706574
    1bf0:	5f005675 	svcpl	0x00005675
    1bf4:	0038755f 	eorseq	r7, r8, pc, asr r5
    1bf8:	32707861 	rsbscc	r7, r0, #6356992	; 0x610000
    1bfc:	646c5f30 	strbtvs	r5, [ip], #-3888	; 0xfffff0d0
    1c00:	645f346f 	ldrbvs	r3, [pc], #-1135	; 1c08 <__standby_start+0x1c08>
    1c04:	00617461 	rsbeq	r7, r1, r1, ror #8
    1c08:	6e617473 	mcrvs	4, 3, r7, cr1, cr3, {3}
    1c0c:	5f796264 	svcpl	0x00796264
    1c10:	65776f70 	ldrbvs	r6, [r7, #-3952]!	; 0xfffff090
    1c14:	78655f72 	stmdavc	r5!, {r1, r4, r5, r6, r8, r9, sl, fp, ip, lr}^
    1c18:	76007469 	strvc	r7, [r0], -r9, ror #8
    1c1c:	725f6c6f 	subsvc	r6, pc, #28416	; 0x6f00
    1c20:	63006765 	movwvs	r6, #1893	; 0x765
    1c24:	6b636568 	blvs	18db1cc <__standby_start+0x18db1cc>
    1c28:	6e61725f 	mcrvs	2, 3, r7, cr1, cr15, {2}
    1c2c:	6d006567 	cfstr32vs	mvfx6, [r0, #-412]	; 0xfffffe64
    1c30:	755f6e69 	ldrbvc	r6, [pc, #-3689]	; dcf <__standby_start+0xdcf>
    1c34:	61720056 	cmnvs	r2, r6, asr r0
    1c38:	696c5f77 	stmdbvs	ip!, {r0, r1, r2, r4, r5, r6, r8, r9, sl, fp, ip, lr}^
    1c3c:	64755f62 	ldrbtvs	r5, [r5], #-3938	; 0xfffff09e
    1c40:	54007669 	strpl	r7, [r0], #-1641	; 0xfffff997
    1c44:	455f524d 	ldrbmi	r5, [pc, #-589]	; 19ff <__standby_start+0x19ff>
    1c48:	544e4556 	strbpl	r4, [lr], #-1366	; 0xfffffaaa
    1c4c:	574f505f 	smlsldpl	r5, pc, pc, r0	; <UNPREDICTABLE>
    1c50:	464f5245 	strbmi	r5, [pc], -r5, asr #4
    1c54:	6c410046 	mcrrvs	0, 4, r0, r1, cr6
    1c58:	576d7261 	strbpl	r7, [sp, -r1, ror #4]!
    1c5c:	00534d48 	subseq	r4, r3, r8, asr #26
    1c60:	72616c41 	rsbvc	r6, r1, #16640	; 0x4100
    1c64:	7172496d 	cmnvc	r2, sp, ror #18
    1c68:	00617453 	rsbeq	r7, r1, r3, asr r4
    1c6c:	5f524d54 	svcpl	0x00524d54
    1c70:	4e455645 	cdpmi	6, 4, cr5, cr5, cr5, {2}
    1c74:	4c415f54 	mcrrmi	15, 5, r5, r1, cr4
    1c78:	004d5241 	subeq	r5, sp, r1, asr #4
    1c7c:	31737641 	cmncc	r3, r1, asr #12
    1c80:	00746e43 	rsbseq	r6, r4, r3, asr #28
    1c84:	72616c41 	rsbvc	r6, r1, #16640	; 0x4100
    1c88:	7172496d 	cmnvc	r2, sp, ror #18
    1c8c:	52006e45 	andpl	r6, r0, #1104	; 0x450
    1c90:	48446374 	stmdami	r4, {r2, r4, r5, r6, r8, r9, sp, lr}^
    1c94:	4400534d 	strmi	r5, [r0], #-845	; 0xfffffcb3
    1c98:	7443676f 	strbvc	r6, [r3], #-1903	; 0xfffff891
    1c9c:	7452006c 	ldrbvc	r0, [r2], #-108	; 0xffffff94
    1ca0:	444d5963 	strbmi	r5, [sp], #-2403	; 0xfffff69d
    1ca4:	726d5400 	rsbvc	r5, sp, #0, 8
    1ca8:	746e4930 	strbtvc	r4, [lr], #-2352	; 0xfffff6d0
    1cac:	006c6156 	rsbeq	r6, ip, r6, asr r1
    1cb0:	48637452 	stmdami	r3!, {r1, r4, r6, sl, ip, sp, lr}^
    1cb4:	5f00534d 	svcpl	0x0000534d
    1cb8:	6174735f 	cmnvs	r4, pc, asr r3
    1cbc:	7962646e 	stmdbvc	r2!, {r1, r2, r3, r5, r6, sl, sp, lr}^
    1cc0:	726d745f 	rsbvc	r7, sp, #1593835520	; 0x5f000000
    1cc4:	6765725f 			; <UNDEFINED> instruction: 0x6765725f
    1cc8:	5400745f 	strpl	r7, [r0], #-1119	; 0xfffffba1
    1ccc:	4331726d 	teqmi	r1, #-805306362	; 0xd0000006
    1cd0:	54006c74 	strpl	r6, [r0], #-3188	; 0xfffff38c
    1cd4:	4330726d 	teqmi	r0, #-805306362	; 0xd0000006
    1cd8:	6156746e 	cmpvs	r6, lr, ror #8
    1cdc:	6d74006c 	ldclvs	0, cr0, [r4, #-432]!	; 0xfffffe50
    1ce0:	76655f72 	uqsub16vc	r5, r5, r2
    1ce4:	5f746e65 	svcpl	0x00746e65
    1ce8:	65707974 	ldrbvs	r7, [r0, #-2420]!	; 0xfffff68c
    1cec:	5400655f 	strpl	r6, [r0], #-1375	; 0xfffffaa1
    1cf0:	4335726d 	teqmi	r5, #-805306362	; 0xd0000006
    1cf4:	54006c74 	strpl	r6, [r0], #-3188	; 0xfffff38c
    1cf8:	4932726d 	ldmdbmi	r2!, {r0, r2, r3, r5, r6, r9, ip, sp, lr}
    1cfc:	6156746e 	cmpvs	r6, lr, ror #8
    1d00:	5f5f006c 	svcpl	0x005f006c
    1d04:	4e415453 	mcrmi	4, 2, r5, cr1, cr3, {2}
    1d08:	5f594244 	svcpl	0x00594244
    1d0c:	5f524d54 	svcpl	0x00524d54
    1d10:	00474552 	subeq	r4, r7, r2, asr r5
    1d14:	32726d54 	rsbscc	r6, r2, #84, 26	; 0x1500
    1d18:	56746e43 	ldrbtpl	r6, [r4], -r3, asr #28
    1d1c:	54006c61 	strpl	r6, [r0], #-3169	; 0xfffff39f
    1d20:	4934726d 	ldmdbmi	r4!, {r0, r2, r3, r5, r6, r9, ip, sp, lr}
    1d24:	6156746e 	cmpvs	r6, lr, ror #8
    1d28:	6d54006c 	ldclvs	0, cr0, [r4, #-432]	; 0xfffffe50
    1d2c:	6e433472 	mcrvs	4, 2, r3, cr3, cr2, {3}
    1d30:	6c615674 	stclvs	6, cr5, [r1], #-464	; 0xfffffe30
    1d34:	616c4100 	cmnvs	ip, r0, lsl #2
    1d38:	6e456d72 	mcrvs	13, 2, r6, cr5, cr2, {3}
    1d3c:	73657200 	cmnvc	r5, #0, 4
    1d40:	65767265 	ldrbvs	r7, [r6, #-613]!	; 0xfffffd9b
    1d44:	43003864 	movwmi	r3, #2148	; 0x864
    1d48:	3436746e 	ldrtcc	r7, [r6], #-1134	; 0xfffffb92
    1d4c:	54006948 	strpl	r6, [r0], #-2376	; 0xfffff6b8
    1d50:	4332726d 	teqmi	r2, #-805306362	; 0xd0000006
    1d54:	73006c74 	movwvc	r6, #3188	; 0xc74
    1d58:	646e6174 	strbtvs	r6, [lr], #-372	; 0xfffffe8c
    1d5c:	745f7962 	ldrbvc	r7, [pc], #-2402	; 1d64 <__standby_start+0x1d64>
    1d60:	645f726d 	ldrbvs	r7, [pc], #-621	; 1d68 <__standby_start+0x1d68>
    1d64:	62617369 	rsbvs	r7, r1, #-1543503871	; 0xa4000001
    1d68:	775f656c 	ldrbvc	r6, [pc, -ip, ror #10]
    1d6c:	68637461 	stmdavs	r3!, {r0, r5, r6, sl, ip, sp, lr}^
    1d70:	00676f64 	rsbeq	r6, r7, r4, ror #30
    1d74:	4d676f44 	stclmi	15, cr6, [r7, #-272]!	; 0xfffffef0
    1d78:	0065646f 	rsbeq	r6, r5, pc, ror #8
    1d7c:	36746e43 	ldrbtcc	r6, [r4], -r3, asr #28
    1d80:	006f4c34 	rsbeq	r4, pc, r4, lsr ip	; <UNPREDICTABLE>
    1d84:	6f636573 	svcvs	0x00636573
    1d88:	7300646e 	movwvc	r6, #1134	; 0x46e
    1d8c:	646e6174 	strbtvs	r6, [lr], #-372	; 0xfffffe8c
    1d90:	745f7962 	ldrbvc	r7, [pc], #-2402	; 1d98 <__standby_start+0x1d98>
    1d94:	655f726d 	ldrbvs	r7, [pc, #-621]	; 1b2f <__standby_start+0x1b2f>
    1d98:	00746978 	rsbseq	r6, r4, r8, ror r9
    1d9c:	36746e43 	ldrbtcc	r6, [r4], -r3, asr #28
    1da0:	6c744334 	ldclvs	3, cr4, [r4], #-208	; 0xffffff30
    1da4:	736f4c00 	cmnvc	pc, #0, 24
    1da8:	6c744363 	ldclvs	3, cr4, [r4], #-396	; 0xfffffe74
    1dac:	726d5400 	rsbvc	r5, sp, #0, 8
    1db0:	746e4931 	strbtvc	r4, [lr], #-2353	; 0xfffff6cf
    1db4:	006c6156 	rsbeq	r6, ip, r6, asr r1
    1db8:	44737641 	ldrbtmi	r7, [r3], #-1601	; 0xfffff9bf
    1dbc:	54007669 	strpl	r7, [r0], #-1641	; 0xfffff997
    1dc0:	4333726d 	teqmi	r3, #-805306362	; 0xd0000006
    1dc4:	41006c74 	tstmi	r0, r4, ror ip
    1dc8:	74437376 	strbvc	r7, [r3], #-886	; 0xfffffc8a
    1dcc:	6e49006c 	cdpvs	0, 4, cr0, cr9, cr12, {3}
    1dd0:	61745374 	cmnvs	r4, r4, ror r3
    1dd4:	726d5400 	rsbvc	r5, sp, #0, 8
    1dd8:	65527047 	ldrbvs	r7, [r2, #-71]	; 0xffffffb9
    1ddc:	6d540067 	ldclvs	0, cr0, [r4, #-412]	; 0xfffffe64
    1de0:	6e433172 	mcrvs	1, 2, r3, cr3, cr2, {3}
    1de4:	6c615674 	stclvs	6, cr5, [r1], #-464	; 0xfffffe30
    1de8:	61747300 	cmnvs	r4, r0, lsl #6
    1dec:	7962646e 	stmdbvc	r2!, {r1, r2, r3, r5, r6, sl, sp, lr}^
    1df0:	726d745f 	rsbvc	r7, sp, #1593835520	; 0x5f000000
    1df4:	6c646d5f 	stclvs	13, cr6, [r4], #-380	; 0xfffffe84
    1df8:	54007961 	strpl	r7, [r0], #-2401	; 0xfffff69f
    1dfc:	6e49726d 	cdpvs	2, 4, cr7, cr9, cr13, {3}
    1e00:	6c744374 	ldclvs	3, cr4, [r4], #-464	; 0xfffffe30
    1e04:	61747300 	cmnvs	r4, r0, lsl #6
    1e08:	7962646e 	stmdbvc	r2!, {r1, r2, r3, r5, r6, sl, sp, lr}^
    1e0c:	726d745f 	rsbvc	r7, sp, #1593835520	; 0x5f000000
    1e10:	696e695f 	stmdbvs	lr!, {r0, r1, r2, r3, r4, r6, r8, fp, sp, lr}^
    1e14:	6d540074 	ldclvs	0, cr0, [r4, #-464]	; 0xfffffe30
    1e18:	6e493372 	mcrvs	3, 2, r3, cr9, cr2, {3}
    1e1c:	6c615674 	stclvs	6, cr5, [r1], #-464	; 0xfffffe30
    1e20:	61747300 	cmnvs	r4, r0, lsl #6
    1e24:	7962646e 	stmdbvc	r2!, {r1, r2, r3, r5, r6, sl, sp, lr}^
    1e28:	726d745f 	rsbvc	r7, sp, #1593835520	; 0x5f000000
    1e2c:	7300632e 	movwvc	r6, #814	; 0x32e
    1e30:	646e6174 	strbtvs	r6, [lr], #-372	; 0xfffffe8c
    1e34:	745f7962 	ldrbvc	r7, [pc], #-2402	; 1e3c <__standby_start+0x1e3c>
    1e38:	655f726d 	ldrbvs	r7, [pc, #-621]	; 1bd3 <__standby_start+0x1bd3>
    1e3c:	6c62616e 	stfvse	f6, [r2], #-440	; 0xfffffe48
    1e40:	61775f65 	cmnvs	r7, r5, ror #30
    1e44:	64686374 	strbtvs	r6, [r8], #-884	; 0xfffffc8c
    1e48:	4100676f 	tstmi	r0, pc, ror #14
    1e4c:	43307376 	teqmi	r0, #-671088639	; 0xd8000001
    1e50:	5400746e 	strpl	r7, [r0], #-1134	; 0xfffffb92
    1e54:	4935726d 	ldmdbmi	r5!, {r0, r2, r3, r5, r6, r9, ip, sp, lr}
    1e58:	6156746e 	cmpvs	r6, lr, ror #8
    1e5c:	7473006c 	ldrbtvc	r0, [r3], #-108	; 0xffffff94
    1e60:	62646e61 	rsbvs	r6, r4, #1552	; 0x610
    1e64:	6d745f79 	ldclvs	15, cr5, [r4, #-484]!	; 0xfffffe1c
    1e68:	75715f72 	ldrbvc	r5, [r1, #-3954]!	; 0xfffff08e
    1e6c:	00797265 	rsbseq	r7, r9, r5, ror #4
    1e70:	35726d54 	ldrbcc	r6, [r2, #-3412]!	; 0xfffff2ac
    1e74:	56746e43 	ldrbtpl	r6, [r4], -r3, asr #28
    1e78:	54006c61 	strpl	r6, [r0], #-3169	; 0xfffff39f
    1e7c:	6552726d 	ldrbvs	r7, [r2, #-621]	; 0xfffffd93
    1e80:	6d540067 	ldclvs	0, cr0, [r4, #-412]	; 0xfffffe64
    1e84:	74433072 	strbvc	r3, [r3], #-114	; 0xffffff8e
    1e88:	6d54006c 	ldclvs	0, cr0, [r4, #-432]	; 0xfffffe50
    1e8c:	74433472 	strbvc	r3, [r3], #-1138	; 0xfffffb8e
    1e90:	6572006c 	ldrbvs	r0, [r2, #-108]!	; 0xffffff94
    1e94:	66655f67 	strbtvs	r5, [r5], -r7, ror #30
    1e98:	77540072 			; <UNDEFINED> instruction: 0x77540072
    1e9c:	6c744369 	ldclvs	3, cr4, [r4], #-420	; 0xfffffe5c
    1ea0:	42676552 	rsbmi	r6, r7, #343932928	; 0x14800000
    1ea4:	6e006b61 	vmlsvs.f64	d6, d0, d17
    1ea8:	725f706f 	subsvc	r7, pc, #111	; 0x6f
    1eac:	00646165 	rsbeq	r6, r4, r5, ror #2
    1eb0:	5f676572 	svcpl	0x00676572
    1eb4:	65736572 	ldrbvs	r6, [r3, #-1394]!	; 0xfffffa8e
    1eb8:	735f0074 	cmpvc	pc, #116	; 0x74
    1ebc:	646e6174 	strbtvs	r6, [lr], #-372	; 0xfffffe8c
    1ec0:	745f7962 	ldrbvc	r7, [pc], #-2402	; 1ec8 <__standby_start+0x1ec8>
    1ec4:	735f6977 	cmpvc	pc, #1949696	; 0x1dc000
    1ec8:	00706f74 	rsbseq	r6, r0, r4, ror pc
    1ecc:	756f7267 	strbvc	r7, [pc, #-615]!	; 1c6d <__standby_start+0x1c6d>
    1ed0:	77740070 			; <UNDEFINED> instruction: 0x77740070
    1ed4:	65725f69 	ldrbvs	r5, [r2, #-3945]!	; 0xfffff097
    1ed8:	5f5f0067 	svcpl	0x005f0067
    1edc:	63697774 	cmnvs	r9, #116, 14	; 0x1d00000
    1ee0:	6765725f 			; <UNDEFINED> instruction: 0x6765725f
    1ee4:	7200745f 	andvc	r7, r0, #1593835520	; 0x5f000000
    1ee8:	635f6765 	cmpvs	pc, #26476544	; 0x1940000
    1eec:	00726b6c 	rsbseq	r6, r2, ip, ror #22
    1ef0:	5f676572 	svcpl	0x00676572
    1ef4:	61746164 	cmnvs	r4, r4, ror #2
    1ef8:	49575400 	ldmdbmi	r7, {sl, ip, lr}^
    1efc:	4745525f 	smlsldmi	r5, r5, pc, r2	; <UNPREDICTABLE>
    1f00:	5341425f 	movtpl	r4, #4703	; 0x125f
    1f04:	74730045 	ldrbtvc	r0, [r3], #-69	; 0xffffffbb
    1f08:	62646e61 	rsbvs	r6, r4, #1552	; 0x610
    1f0c:	77745f79 			; <UNDEFINED> instruction: 0x77745f79
    1f10:	78655f69 	stmdavc	r5!, {r0, r3, r5, r6, r8, r9, sl, fp, ip, lr}^
    1f14:	72007469 	andvc	r7, r0, #1761607680	; 0x69000000
    1f18:	785f6765 	ldmdavc	pc, {r0, r2, r5, r6, r8, r9, sl, sp, lr}^	; <UNPREDICTABLE>
    1f1c:	64646173 	strbtvs	r6, [r4], #-371	; 0xfffffe8d
    1f20:	77540072 			; <UNDEFINED> instruction: 0x77540072
    1f24:	6b6c4369 	blvs	1b12cd0 <__standby_start+0x1b12cd0>
    1f28:	42676552 	rsbmi	r6, r7, #343932928	; 0x14800000
    1f2c:	73006b61 	movwvc	r6, #2913	; 0xb61
    1f30:	646e6174 	strbtvs	r6, [lr], #-372	; 0xfffffe8c
    1f34:	745f7962 	ldrbvc	r7, [pc], #-2402	; 1f3c <__standby_start+0x1f3c>
    1f38:	632e6977 	teqvs	lr, #1949696	; 0x1dc000
    1f3c:	69777400 	ldmdbvs	r7!, {sl, ip, sp, lr}^
    1f40:	7479625f 	ldrbtvc	r6, [r9], #-607	; 0xfffffda1
    1f44:	77725f65 	ldrbvc	r5, [r2, -r5, ror #30]!
    1f48:	64616200 	strbtvs	r6, [r1], #-512	; 0xfffffe00
    1f4c:	73007264 	movwvc	r7, #612	; 0x264
    1f50:	5f706f74 	svcpl	0x00706f74
    1f54:	0074756f 	rsbseq	r7, r4, pc, ror #10
    1f58:	656d6974 	strbvs	r6, [sp, #-2420]!	; 0xfffff68c
    1f5c:	0074756f 	rsbseq	r7, r4, pc, ror #10
    1f60:	5f676572 	svcpl	0x00676572
    1f64:	006c7463 	rsbeq	r7, ip, r3, ror #8
    1f68:	6e617473 	mcrvs	4, 3, r7, cr1, cr3, {3}
    1f6c:	5f796264 	svcpl	0x00796264
    1f70:	5f697774 	svcpl	0x00697774
    1f74:	74696e69 	strbtvc	r6, [r9], #-3689	; 0xfffff197
    1f78:	67617400 	strbvs	r7, [r1, -r0, lsl #8]!
    1f7c:	6977745f 	ldmdbvs	r7!, {r0, r1, r2, r3, r4, r6, sl, ip, sp, lr}^
    1f80:	65725f63 	ldrbvs	r5, [r2, #-3939]!	; 0xfffff09d
    1f84:	65720067 	ldrbvs	r0, [r2, #-103]!	; 0xffffff99
    1f88:	61735f67 	cmnvs	r3, r7, ror #30
    1f8c:	00726464 	rsbseq	r6, r2, r4, ror #8
    1f90:	5f676572 	svcpl	0x00676572
    1f94:	6c74636c 	ldclvs	3, cr6, [r4], #-432	; 0xfffffe50
    1f98:	67657200 	strbvs	r7, [r5, -r0, lsl #4]!
    1f9c:	6174735f 	cmnvs	r4, pc, asr r3
    1fa0:	00737574 	rsbseq	r7, r3, r4, ror r5
    1fa4:	74617473 	strbtvc	r7, [r1], #-1139	; 0xfffffb8d
    1fa8:	6d745f65 	ldclvs	15, cr5, [r4, #-404]!	; 0xfffffe6c
    1fac:	74730070 	ldrbtvc	r0, [r3], #-112	; 0xffffff90
    1fb0:	62646e61 	rsbvs	r6, r4, #1552	; 0x610
    1fb4:	73755f79 	cmnvc	r5, #484	; 0x1e4
    1fb8:	00632e62 	rsbeq	r2, r3, r2, ror #28
    1fbc:	6e617473 	mcrvs	4, 3, r7, cr1, cr3, {3}
    1fc0:	5f796264 	svcpl	0x00796264
    1fc4:	5f627375 	svcpl	0x00627375
    1fc8:	74697865 	strbtvc	r7, [r9], #-2149	; 0xfffff79b
    1fcc:	61747300 	cmnvs	r4, r0, lsl #6
    1fd0:	7962646e 	stmdbvc	r2!, {r1, r2, r3, r5, r6, sl, sp, lr}^
    1fd4:	5f73695f 	svcpl	0x0073695f
    1fd8:	5f627375 	svcpl	0x00627375
    1fdc:	74617473 	strbtvc	r7, [r1], #-1139	; 0xfffffb8d
    1fe0:	635f7375 	cmpvs	pc, #-738197503	; 0xd4000001
    1fe4:	676e6168 	strbvs	r6, [lr, -r8, ror #2]!
    1fe8:	74730065 	ldrbtvc	r0, [r3], #-101	; 0xffffff9b
    1fec:	62646e61 	rsbvs	r6, r4, #1552	; 0x610
    1ff0:	75715f79 	ldrbvc	r5, [r1, #-3961]!	; 0xfffff087
    1ff4:	5f797265 	svcpl	0x00797265
    1ff8:	5f627375 	svcpl	0x00627375
    1ffc:	6e657665 	cdpvs	6, 6, cr7, cr5, cr5, {3}
    2000:	74730074 	ldrbtvc	r0, [r3], #-116	; 0xffffff8c
    2004:	62646e61 	rsbvs	r6, r4, #1552	; 0x610
    2008:	73755f79 	cmnvc	r5, #484	; 0x1e4
    200c:	6e695f62 	cdpvs	15, 6, cr5, cr9, cr2, {3}
    2010:	Address 0x00002010 is out of bounds.


Disassembly of section .comment:

00000000 <.comment>:
   0:	3a434347 	bcc	10d0d24 <__standby_start+0x10d0d24>
   4:	6f532820 	svcvs	0x00532820
   8:	65637275 	strbvs	r7, [r3, #-629]!	; 0xfffffd8b
   c:	47207972 			; <UNDEFINED> instruction: 0x47207972
  10:	4c202b2b 	stcmi	11, cr2, [r0], #-172	; 0xffffff54
  14:	20657469 	rsbcs	r7, r5, r9, ror #8
  18:	30313032 	eorscc	r3, r1, r2, lsr r0
  1c:	2d39302e 	ldccs	0, cr3, [r9, #-184]!	; 0xffffff48
  20:	20293035 	eorcs	r3, r9, r5, lsr r0
  24:	2e352e34 	mrccs	14, 1, r2, cr5, cr4, {1}
  28:	Address 0x00000028 is out of bounds.


Disassembly of section .ARM.attributes:

00000000 <.ARM.attributes>:
   0:	00002c41 	andeq	r2, r0, r1, asr #24
   4:	61656100 	cmnvs	r5, r0, lsl #2
   8:	01006962 	tsteq	r0, r2, ror #18
   c:	00000022 	andeq	r0, r0, r2, lsr #32
  10:	412d3705 	teqmi	sp, r5, lsl #14
  14:	070a0600 	streq	r0, [sl, -r0, lsl #12]
  18:	09010841 	stmdbeq	r1, {r0, r6, fp}
  1c:	14041202 	strne	r1, [r4], #-514	; 0xfffffdfe
  20:	17011501 	strne	r1, [r1, -r1, lsl #10]
  24:	1a011803 	bne	46038 <__standby_start+0x46038>
  28:	2c041e02 	stccs	14, cr1, [r4], {2}
  2c:	Address 0x0000002c is out of bounds.


Disassembly of section .debug_frame:

00000000 <.debug_frame>:
   0:	0000000c 	andeq	r0, r0, ip
   4:	ffffffff 			; <UNDEFINED> instruction: 0xffffffff
   8:	7c020001 	stcvc	0, cr0, [r2], {1}
   c:	000d0c0e 	andeq	r0, sp, lr, lsl #24
  10:	0000001c 	andeq	r0, r0, ip, lsl r0
  14:	00000000 	andeq	r0, r0, r0
  18:	f0000000 			; <UNDEFINED> instruction: 0xf0000000
  1c:	00000350 	andeq	r0, r0, r0, asr r3
  20:	42180e42 	andsmi	r0, r8, #1056	; 0x420
  24:	0287018e 	addeq	r0, r7, #-2147483613	; 0x80000023
  28:	04850386 	streq	r0, [r5], #902	; 0x386
  2c:	06830584 	streq	r0, [r3], r4, lsl #11
  30:	0000000c 	andeq	r0, r0, ip
  34:	ffffffff 			; <UNDEFINED> instruction: 0xffffffff
  38:	7c020001 	stcvc	0, cr0, [r2], {1}
  3c:	000d0c0e 	andeq	r0, sp, lr, lsl #24
  40:	0000000c 	andeq	r0, r0, ip
  44:	00000030 	andeq	r0, r0, r0, lsr r0
  48:	f0000350 			; <UNDEFINED> instruction: 0xf0000350
  4c:	00000028 	andeq	r0, r0, r8, lsr #32
  50:	0000000c 	andeq	r0, r0, ip
  54:	00000030 	andeq	r0, r0, r0, lsr r0
  58:	f0000378 			; <UNDEFINED> instruction: 0xf0000378
  5c:	00000014 	andeq	r0, r0, r4, lsl r0
  60:	0000000c 	andeq	r0, r0, ip
  64:	ffffffff 			; <UNDEFINED> instruction: 0xffffffff
  68:	7c020001 	stcvc	0, cr0, [r2], {1}
  6c:	000d0c0e 	andeq	r0, sp, lr, lsl #24
  70:	0000000c 	andeq	r0, r0, ip
  74:	00000060 	andeq	r0, r0, r0, rrx
  78:	f00004b0 			; <UNDEFINED> instruction: 0xf00004b0
  7c:	00000094 	muleq	r0, r4, r0
  80:	0000000c 	andeq	r0, r0, ip
  84:	00000060 	andeq	r0, r0, r0, rrx
  88:	f0000544 			; <UNDEFINED> instruction: 0xf0000544
  8c:	0000004c 	andeq	r0, r0, ip, asr #32
  90:	0000000c 	andeq	r0, r0, ip
  94:	00000060 	andeq	r0, r0, r0, rrx
  98:	f0000590 			; <UNDEFINED> instruction: 0xf0000590
  9c:	00000030 	andeq	r0, r0, r0, lsr r0
  a0:	0000000c 	andeq	r0, r0, ip
  a4:	00000060 	andeq	r0, r0, r0, rrx
  a8:	f00005c0 			; <UNDEFINED> instruction: 0xf00005c0
  ac:	00000034 	andeq	r0, r0, r4, lsr r0
  b0:	0000000c 	andeq	r0, r0, ip
  b4:	00000060 	andeq	r0, r0, r0, rrx
  b8:	f00005f4 			; <UNDEFINED> instruction: 0xf00005f4
  bc:	00000034 	andeq	r0, r0, r4, lsr r0
  c0:	0000000c 	andeq	r0, r0, ip
  c4:	00000060 	andeq	r0, r0, r0, rrx
  c8:	f0000628 			; <UNDEFINED> instruction: 0xf0000628
  cc:	00000068 	andeq	r0, r0, r8, rrx
  d0:	0000000c 	andeq	r0, r0, ip
  d4:	00000060 	andeq	r0, r0, r0, rrx
  d8:	f0000690 			; <UNDEFINED> instruction: 0xf0000690
  dc:	00000068 	andeq	r0, r0, r8, rrx
  e0:	0000000c 	andeq	r0, r0, ip
  e4:	00000060 	andeq	r0, r0, r0, rrx
  e8:	f00006f8 			; <UNDEFINED> instruction: 0xf00006f8
  ec:	00000020 	andeq	r0, r0, r0, lsr #32
  f0:	0000000c 	andeq	r0, r0, ip
  f4:	00000060 	andeq	r0, r0, r0, rrx
  f8:	f0000718 			; <UNDEFINED> instruction: 0xf0000718
  fc:	00000020 	andeq	r0, r0, r0, lsr #32
 100:	0000000c 	andeq	r0, r0, ip
 104:	00000060 	andeq	r0, r0, r0, rrx
 108:	f0000738 			; <UNDEFINED> instruction: 0xf0000738
 10c:	00000048 	andeq	r0, r0, r8, asr #32
 110:	0000000c 	andeq	r0, r0, ip
 114:	00000060 	andeq	r0, r0, r0, rrx
 118:	f0000780 			; <UNDEFINED> instruction: 0xf0000780
 11c:	00000048 	andeq	r0, r0, r8, asr #32
 120:	0000000c 	andeq	r0, r0, ip
 124:	00000060 	andeq	r0, r0, r0, rrx
 128:	f00007c8 			; <UNDEFINED> instruction: 0xf00007c8
 12c:	00000060 	andeq	r0, r0, r0, rrx
 130:	0000000c 	andeq	r0, r0, ip
 134:	00000060 	andeq	r0, r0, r0, rrx
 138:	f0000828 			; <UNDEFINED> instruction: 0xf0000828
 13c:	00000058 	andeq	r0, r0, r8, asr r0
 140:	0000000c 	andeq	r0, r0, ip
 144:	00000060 	andeq	r0, r0, r0, rrx
 148:	f0000880 			; <UNDEFINED> instruction: 0xf0000880
 14c:	00000030 	andeq	r0, r0, r0, lsr r0
 150:	0000000c 	andeq	r0, r0, ip
 154:	00000060 	andeq	r0, r0, r0, rrx
 158:	f00008b0 			; <UNDEFINED> instruction: 0xf00008b0
 15c:	00000024 	andeq	r0, r0, r4, lsr #32
 160:	0000000c 	andeq	r0, r0, ip
 164:	00000060 	andeq	r0, r0, r0, rrx
 168:	f00008d4 			; <UNDEFINED> instruction: 0xf00008d4
 16c:	00000020 	andeq	r0, r0, r0, lsr #32
 170:	0000000c 	andeq	r0, r0, ip
 174:	ffffffff 			; <UNDEFINED> instruction: 0xffffffff
 178:	7c020001 	stcvc	0, cr0, [r2], {1}
 17c:	000d0c0e 	andeq	r0, sp, lr, lsl #24
 180:	0000000c 	andeq	r0, r0, ip
 184:	00000170 	andeq	r0, r0, r0, ror r1
 188:	f00008f4 			; <UNDEFINED> instruction: 0xf00008f4
 18c:	0000002c 	andeq	r0, r0, ip, lsr #32
 190:	0000000c 	andeq	r0, r0, ip
 194:	00000170 	andeq	r0, r0, r0, ror r1
 198:	f0000920 			; <UNDEFINED> instruction: 0xf0000920
 19c:	0000002c 	andeq	r0, r0, ip, lsr #32
 1a0:	0000000c 	andeq	r0, r0, ip
 1a4:	00000170 	andeq	r0, r0, r0, ror r1
 1a8:	f000094c 			; <UNDEFINED> instruction: 0xf000094c
 1ac:	0000002c 	andeq	r0, r0, ip, lsr #32
 1b0:	0000000c 	andeq	r0, r0, ip
 1b4:	00000170 	andeq	r0, r0, r0, ror r1
 1b8:	f0000978 			; <UNDEFINED> instruction: 0xf0000978
 1bc:	00000004 	andeq	r0, r0, r4
 1c0:	0000000c 	andeq	r0, r0, ip
 1c4:	00000170 	andeq	r0, r0, r0, ror r1
 1c8:	f000097c 			; <UNDEFINED> instruction: 0xf000097c
 1cc:	00000028 	andeq	r0, r0, r8, lsr #32
 1d0:	00000014 	andeq	r0, r0, r4, lsl r0
 1d4:	00000170 	andeq	r0, r0, r0, ror r1
 1d8:	f00009a4 			; <UNDEFINED> instruction: 0xf00009a4
 1dc:	00000064 	andeq	r0, r0, r4, rrx
 1e0:	8e080e42 	cdphi	14, 0, cr0, cr8, cr2, {2}
 1e4:	00028401 	andeq	r8, r2, r1, lsl #8
 1e8:	00000014 	andeq	r0, r0, r4, lsl r0
 1ec:	00000170 	andeq	r0, r0, r0, ror r1
 1f0:	f0000a08 			; <UNDEFINED> instruction: 0xf0000a08
 1f4:	00000060 	andeq	r0, r0, r0, rrx
 1f8:	42080e42 	andmi	r0, r8, #1056	; 0x420
 1fc:	0284018e 	addeq	r0, r4, #-2147483613	; 0x80000023
 200:	0000000c 	andeq	r0, r0, ip
 204:	00000170 	andeq	r0, r0, r0, ror r1
 208:	f0000a68 			; <UNDEFINED> instruction: 0xf0000a68
 20c:	00000020 	andeq	r0, r0, r0, lsr #32
 210:	00000014 	andeq	r0, r0, r4, lsl r0
 214:	00000170 	andeq	r0, r0, r0, ror r1
 218:	f0000a88 			; <UNDEFINED> instruction: 0xf0000a88
 21c:	00000048 	andeq	r0, r0, r8, asr #32
 220:	42080e44 	andmi	r0, r8, #68, 28	; 0x440
 224:	0284018e 	addeq	r0, r4, #-2147483613	; 0x80000023
 228:	00000014 	andeq	r0, r0, r4, lsl r0
 22c:	00000170 	andeq	r0, r0, r0, ror r1
 230:	f0000ad0 			; <UNDEFINED> instruction: 0xf0000ad0
 234:	00000030 	andeq	r0, r0, r0, lsr r0
 238:	44080e42 	strmi	r0, [r8], #-3650	; 0xfffff1be
 23c:	0284018e 	addeq	r0, r4, #-2147483613	; 0x80000023
 240:	00000028 	andeq	r0, r0, r8, lsr #32
 244:	00000170 	andeq	r0, r0, r0, ror r1
 248:	f0000b00 			; <UNDEFINED> instruction: 0xf0000b00
 24c:	00000128 	andeq	r0, r0, r8, lsr #2
 250:	42240e44 	eormi	r0, r4, #68, 28	; 0x440
 254:	8e48380e 	cdphi	8, 4, cr3, cr8, cr14, {0}
 258:	8a028b01 	bhi	a2e64 <__standby_start+0xa2e64>
 25c:	88048903 	stmdahi	r4, {r0, r1, r8, fp, pc}
 260:	86068705 	strhi	r8, [r6], -r5, lsl #14
 264:	84088507 	strhi	r8, [r8], #-1287	; 0xfffffaf9
 268:	00000009 	andeq	r0, r0, r9
 26c:	00000014 	andeq	r0, r0, r4, lsl r0
 270:	00000170 	andeq	r0, r0, r0, ror r1
 274:	f0000c28 			; <UNDEFINED> instruction: 0xf0000c28
 278:	0000001c 	andeq	r0, r0, ip, lsl r0
 27c:	8e080e42 	cdphi	14, 0, cr0, cr8, cr2, {2}
 280:	00028401 	andeq	r8, r2, r1, lsl #8
 284:	00000014 	andeq	r0, r0, r4, lsl r0
 288:	00000170 	andeq	r0, r0, r0, ror r1
 28c:	f0000c44 			; <UNDEFINED> instruction: 0xf0000c44
 290:	00000040 	andeq	r0, r0, r0, asr #32
 294:	8e080e42 	cdphi	14, 0, cr0, cr8, cr2, {2}
 298:	00028401 	andeq	r8, r2, r1, lsl #8
 29c:	0000000c 	andeq	r0, r0, ip
 2a0:	00000170 	andeq	r0, r0, r0, ror r1
 2a4:	f0000c84 			; <UNDEFINED> instruction: 0xf0000c84
 2a8:	00000004 	andeq	r0, r0, r4
 2ac:	0000000c 	andeq	r0, r0, ip
 2b0:	00000170 	andeq	r0, r0, r0, ror r1
 2b4:	f0000c88 			; <UNDEFINED> instruction: 0xf0000c88
 2b8:	00000004 	andeq	r0, r0, r4
 2bc:	0000000c 	andeq	r0, r0, ip
 2c0:	00000170 	andeq	r0, r0, r0, ror r1
 2c4:	f0000c8c 			; <UNDEFINED> instruction: 0xf0000c8c
 2c8:	00000004 	andeq	r0, r0, r4
 2cc:	0000000c 	andeq	r0, r0, ip
 2d0:	00000170 	andeq	r0, r0, r0, ror r1
 2d4:	f0000c90 			; <UNDEFINED> instruction: 0xf0000c90
 2d8:	00000004 	andeq	r0, r0, r4
 2dc:	0000000c 	andeq	r0, r0, ip
 2e0:	00000170 	andeq	r0, r0, r0, ror r1
 2e4:	f0000c94 			; <UNDEFINED> instruction: 0xf0000c94
 2e8:	00000004 	andeq	r0, r0, r4
 2ec:	0000000c 	andeq	r0, r0, ip
 2f0:	00000170 	andeq	r0, r0, r0, ror r1
 2f4:	f0000c98 			; <UNDEFINED> instruction: 0xf0000c98
 2f8:	00000004 	andeq	r0, r0, r4
 2fc:	0000000c 	andeq	r0, r0, ip
 300:	00000170 	andeq	r0, r0, r0, ror r1
 304:	f0000c9c 			; <UNDEFINED> instruction: 0xf0000c9c
 308:	00000004 	andeq	r0, r0, r4
 30c:	0000000c 	andeq	r0, r0, ip
 310:	ffffffff 			; <UNDEFINED> instruction: 0xffffffff
 314:	7c020001 	stcvc	0, cr0, [r2], {1}
 318:	000d0c0e 	andeq	r0, sp, lr, lsl #24
 31c:	00000014 	andeq	r0, r0, r4, lsl r0
 320:	0000030c 	andeq	r0, r0, ip, lsl #6
 324:	f0000ca0 			; <UNDEFINED> instruction: 0xf0000ca0
 328:	0000006c 	andeq	r0, r0, ip, rrx
 32c:	46080e46 	strmi	r0, [r8], -r6, asr #28
 330:	0284018e 	addeq	r0, r4, #-2147483613	; 0x80000023
 334:	0000000c 	andeq	r0, r0, ip
 338:	0000030c 	andeq	r0, r0, ip, lsl #6
 33c:	f0000d0c 			; <UNDEFINED> instruction: 0xf0000d0c
 340:	00000020 	andeq	r0, r0, r0, lsr #32
 344:	0000000c 	andeq	r0, r0, ip
 348:	0000030c 	andeq	r0, r0, ip, lsl #6
 34c:	f0000d2c 			; <UNDEFINED> instruction: 0xf0000d2c
 350:	00000018 	andeq	r0, r0, r8, lsl r0
 354:	0000000c 	andeq	r0, r0, ip
 358:	0000030c 	andeq	r0, r0, ip, lsl #6
 35c:	f0000d44 			; <UNDEFINED> instruction: 0xf0000d44
 360:	00000018 	andeq	r0, r0, r8, lsl r0
 364:	00000014 	andeq	r0, r0, r4, lsl r0
 368:	0000030c 	andeq	r0, r0, ip, lsl #6
 36c:	f0000d5c 			; <UNDEFINED> instruction: 0xf0000d5c
 370:	00000054 	andeq	r0, r0, r4, asr r0
 374:	44080e42 	strmi	r0, [r8], #-3650	; 0xfffff1be
 378:	0284018e 	addeq	r0, r4, #-2147483613	; 0x80000023
 37c:	00000014 	andeq	r0, r0, r4, lsl r0
 380:	0000030c 	andeq	r0, r0, ip, lsl #6
 384:	f0000db0 			; <UNDEFINED> instruction: 0xf0000db0
 388:	000000a4 	andeq	r0, r0, r4, lsr #1
 38c:	54080e44 	strpl	r0, [r8], #-3652	; 0xfffff1bc
 390:	0284018e 	addeq	r0, r4, #-2147483613	; 0x80000023
 394:	0000000c 	andeq	r0, r0, ip
 398:	0000030c 	andeq	r0, r0, ip, lsl #6
 39c:	f0000e54 			; <UNDEFINED> instruction: 0xf0000e54
 3a0:	0000005c 	andeq	r0, r0, ip, asr r0
 3a4:	0000000c 	andeq	r0, r0, ip
 3a8:	0000030c 	andeq	r0, r0, ip, lsl #6
 3ac:	f0000eb0 			; <UNDEFINED> instruction: 0xf0000eb0
 3b0:	00000034 	andeq	r0, r0, r4, lsr r0
 3b4:	0000001c 	andeq	r0, r0, ip, lsl r0
 3b8:	0000030c 	andeq	r0, r0, ip, lsl #6
 3bc:	f0000ee4 			; <UNDEFINED> instruction: 0xf0000ee4
 3c0:	00000120 	andeq	r0, r0, r0, lsr #2
 3c4:	42180e46 	andsmi	r0, r8, #1120	; 0x460
 3c8:	0288018e 	addeq	r0, r8, #-2147483613	; 0x80000023
 3cc:	04860387 	streq	r0, [r6], #903	; 0x387
 3d0:	06840585 	streq	r0, [r4], r5, lsl #11
 3d4:	0000000c 	andeq	r0, r0, ip
 3d8:	0000030c 	andeq	r0, r0, ip, lsl #6
 3dc:	f0001004 			; <UNDEFINED> instruction: 0xf0001004
 3e0:	00000008 	andeq	r0, r0, r8
 3e4:	0000000c 	andeq	r0, r0, ip
 3e8:	0000030c 	andeq	r0, r0, ip, lsl #6
 3ec:	f000100c 			; <UNDEFINED> instruction: 0xf000100c
 3f0:	00000034 	andeq	r0, r0, r4, lsr r0
 3f4:	0000000c 	andeq	r0, r0, ip
 3f8:	0000030c 	andeq	r0, r0, ip, lsl #6
 3fc:	f0001040 			; <UNDEFINED> instruction: 0xf0001040
 400:	00000020 	andeq	r0, r0, r0, lsr #32
 404:	0000000c 	andeq	r0, r0, ip
 408:	0000030c 	andeq	r0, r0, ip, lsl #6
 40c:	f0001060 			; <UNDEFINED> instruction: 0xf0001060
 410:	0000005c 	andeq	r0, r0, ip, asr r0
 414:	0000000c 	andeq	r0, r0, ip
 418:	0000030c 	andeq	r0, r0, ip, lsl #6
 41c:	f00010bc 			; <UNDEFINED> instruction: 0xf00010bc
 420:	00000074 	andeq	r0, r0, r4, ror r0
 424:	00000018 	andeq	r0, r0, r8, lsl r0
 428:	0000030c 	andeq	r0, r0, ip, lsl #6
 42c:	f0001130 			; <UNDEFINED> instruction: 0xf0001130
 430:	000001dc 	ldrdeq	r0, [r0], -ip
 434:	42100e42 	andsmi	r0, r0, #1056	; 0x420
 438:	0286018e 	addeq	r0, r6, #-2147483613	; 0x80000023
 43c:	04840385 	streq	r0, [r4], #901	; 0x385
 440:	0000000c 	andeq	r0, r0, ip
 444:	0000030c 	andeq	r0, r0, ip, lsl #6
 448:	f000130c 			; <UNDEFINED> instruction: 0xf000130c
 44c:	00000008 	andeq	r0, r0, r8
 450:	0000000c 	andeq	r0, r0, ip
 454:	0000030c 	andeq	r0, r0, ip, lsl #6
 458:	f0001314 			; <UNDEFINED> instruction: 0xf0001314
 45c:	00000008 	andeq	r0, r0, r8
 460:	0000000c 	andeq	r0, r0, ip
 464:	0000030c 	andeq	r0, r0, ip, lsl #6
 468:	f000131c 			; <UNDEFINED> instruction: 0xf000131c
 46c:	00000004 	andeq	r0, r0, r4
 470:	0000000c 	andeq	r0, r0, ip
 474:	0000030c 	andeq	r0, r0, ip, lsl #6
 478:	f0001320 			; <UNDEFINED> instruction: 0xf0001320
 47c:	00000004 	andeq	r0, r0, r4
 480:	0000000c 	andeq	r0, r0, ip
 484:	0000030c 	andeq	r0, r0, ip, lsl #6
 488:	f0001324 			; <UNDEFINED> instruction: 0xf0001324
 48c:	00000004 	andeq	r0, r0, r4
 490:	0000000c 	andeq	r0, r0, ip
 494:	0000030c 	andeq	r0, r0, ip, lsl #6
 498:	f0001328 			; <UNDEFINED> instruction: 0xf0001328
 49c:	00000004 	andeq	r0, r0, r4
 4a0:	0000000c 	andeq	r0, r0, ip
 4a4:	0000030c 	andeq	r0, r0, ip, lsl #6
 4a8:	f000132c 			; <UNDEFINED> instruction: 0xf000132c
 4ac:	00000004 	andeq	r0, r0, r4
 4b0:	0000000c 	andeq	r0, r0, ip
 4b4:	ffffffff 			; <UNDEFINED> instruction: 0xffffffff
 4b8:	7c020001 	stcvc	0, cr0, [r2], {1}
 4bc:	000d0c0e 	andeq	r0, sp, lr, lsl #24
 4c0:	0000000c 	andeq	r0, r0, ip
 4c4:	000004b0 			; <UNDEFINED> instruction: 0x000004b0
 4c8:	f0001330 			; <UNDEFINED> instruction: 0xf0001330
 4cc:	00000094 	muleq	r0, r4, r0
 4d0:	0000000c 	andeq	r0, r0, ip
 4d4:	000004b0 			; <UNDEFINED> instruction: 0x000004b0
 4d8:	f00013c4 			; <UNDEFINED> instruction: 0xf00013c4
 4dc:	0000005c 	andeq	r0, r0, ip, asr r0
 4e0:	00000014 	andeq	r0, r0, r4, lsl r0
 4e4:	000004b0 			; <UNDEFINED> instruction: 0x000004b0
 4e8:	f0001420 			; <UNDEFINED> instruction: 0xf0001420
 4ec:	00000048 	andeq	r0, r0, r8, asr #32
 4f0:	42080e4a 	andmi	r0, r8, #1184	; 0x4a0
 4f4:	0284018e 	addeq	r0, r4, #-2147483613	; 0x80000023
 4f8:	0000000c 	andeq	r0, r0, ip
 4fc:	000004b0 			; <UNDEFINED> instruction: 0x000004b0
 500:	f0001468 			; <UNDEFINED> instruction: 0xf0001468
 504:	00000030 	andeq	r0, r0, r0, lsr r0
 508:	0000000c 	andeq	r0, r0, ip
 50c:	ffffffff 			; <UNDEFINED> instruction: 0xffffffff
 510:	7c020001 	stcvc	0, cr0, [r2], {1}
 514:	000d0c0e 	andeq	r0, sp, lr, lsl #24
 518:	0000000c 	andeq	r0, r0, ip
 51c:	00000508 	andeq	r0, r0, r8, lsl #10
 520:	f0001498 			; <UNDEFINED> instruction: 0xf0001498
 524:	00000008 	andeq	r0, r0, r8
 528:	0000000c 	andeq	r0, r0, ip
 52c:	00000508 	andeq	r0, r0, r8, lsl #10
 530:	f00014a0 			; <UNDEFINED> instruction: 0xf00014a0
 534:	00000008 	andeq	r0, r0, r8
 538:	0000000c 	andeq	r0, r0, ip
 53c:	00000508 	andeq	r0, r0, r8, lsl #10
 540:	f00014a8 			; <UNDEFINED> instruction: 0xf00014a8
 544:	00000008 	andeq	r0, r0, r8
 548:	0000000c 	andeq	r0, r0, ip
 54c:	00000508 	andeq	r0, r0, r8, lsl #10
 550:	f00014b0 			; <UNDEFINED> instruction: 0xf00014b0
 554:	00000008 	andeq	r0, r0, r8
 558:	0000000c 	andeq	r0, r0, ip
 55c:	ffffffff 			; <UNDEFINED> instruction: 0xffffffff
 560:	7c020001 	stcvc	0, cr0, [r2], {1}
 564:	000d0c0e 	andeq	r0, sp, lr, lsl #24
 568:	00000018 	andeq	r0, r0, r8, lsl r0
 56c:	00000558 	andeq	r0, r0, r8, asr r5
 570:	f00014b8 			; <UNDEFINED> instruction: 0xf00014b8
 574:	00000058 	andeq	r0, r0, r8, asr r0
 578:	44100e42 	ldrmi	r0, [r0], #-3650	; 0xfffff1be
 57c:	0285018e 	addeq	r0, r5, #-2147483613	; 0x80000023
 580:	04830384 	streq	r0, [r3], #900	; 0x384
 584:	0000000c 	andeq	r0, r0, ip
 588:	00000558 	andeq	r0, r0, r8, asr r5
 58c:	f0001510 			; <UNDEFINED> instruction: 0xf0001510
 590:	00000020 	andeq	r0, r0, r0, lsr #32
 594:	0000000c 	andeq	r0, r0, ip
 598:	00000558 	andeq	r0, r0, r8, asr r5
 59c:	f0001530 			; <UNDEFINED> instruction: 0xf0001530
 5a0:	00000028 	andeq	r0, r0, r8, lsr #32
 5a4:	0000000c 	andeq	r0, r0, ip
 5a8:	ffffffff 			; <UNDEFINED> instruction: 0xffffffff
 5ac:	7c020001 	stcvc	0, cr0, [r2], {1}
 5b0:	000d0c0e 	andeq	r0, sp, lr, lsl #24
 5b4:	0000000c 	andeq	r0, r0, ip
 5b8:	000005a4 	andeq	r0, r0, r4, lsr #11
 5bc:	f0001558 			; <UNDEFINED> instruction: 0xf0001558
 5c0:	00000050 	andeq	r0, r0, r0, asr r0
 5c4:	0000000c 	andeq	r0, r0, ip
 5c8:	000005a4 	andeq	r0, r0, r4, lsr #11
 5cc:	f00015a8 			; <UNDEFINED> instruction: 0xf00015a8
 5d0:	00000044 	andeq	r0, r0, r4, asr #32
 5d4:	00000018 	andeq	r0, r0, r8, lsl r0
 5d8:	000005a4 	andeq	r0, r0, r4, lsr #11
 5dc:	f00015ec 			; <UNDEFINED> instruction: 0xf00015ec
 5e0:	00000098 	muleq	r0, r8, r0
 5e4:	42100e42 	andsmi	r0, r0, #1056	; 0x420
 5e8:	0282018e 	addeq	r0, r2, #-2147483613	; 0x80000023
 5ec:	04800381 	streq	r0, [r0], #897	; 0x381
 5f0:	00000018 	andeq	r0, r0, r8, lsl r0
 5f4:	000005a4 	andeq	r0, r0, r4, lsr #11
 5f8:	f0001684 			; <UNDEFINED> instruction: 0xf0001684
 5fc:	00000078 	andeq	r0, r0, r8, ror r0
 600:	42100e42 	andsmi	r0, r0, #1056	; 0x420
 604:	0282018e 	addeq	r0, r2, #-2147483613	; 0x80000023
 608:	04800381 	streq	r0, [r0], #897	; 0x381
 60c:	00000020 	andeq	r0, r0, r0, lsr #32
 610:	000005a4 	andeq	r0, r0, r4, lsr #11
 614:	f00016fc 			; <UNDEFINED> instruction: 0xf00016fc
 618:	00000128 	andeq	r0, r0, r8, lsr #2
 61c:	42200e42 	eormi	r0, r0, #1056	; 0x420
 620:	0287018e 	addeq	r0, r7, #-2147483613	; 0x80000023
 624:	04850386 	streq	r0, [r5], #902	; 0x386
 628:	06820584 	streq	r0, [r2], r4, lsl #11
 62c:	08800781 	stmeq	r0, {r0, r7, r8, r9, sl}
 630:	0000001c 	andeq	r0, r0, ip, lsl r0
 634:	000005a4 	andeq	r0, r0, r4, lsr #11
 638:	f0001824 			; <UNDEFINED> instruction: 0xf0001824
 63c:	00000074 	andeq	r0, r0, r4, ror r0
 640:	42180e42 	andsmi	r0, r8, #1056	; 0x420
 644:	0285018e 	addeq	r0, r5, #-2147483613	; 0x80000023
 648:	04820384 	streq	r0, [r2], #900	; 0x384
 64c:	06800581 	streq	r0, [r0], r1, lsl #11
 650:	0000000c 	andeq	r0, r0, ip
 654:	ffffffff 			; <UNDEFINED> instruction: 0xffffffff
 658:	7c020001 	stcvc	0, cr0, [r2], {1}
 65c:	000d0c0e 	andeq	r0, sp, lr, lsl #24
 660:	00000018 	andeq	r0, r0, r8, lsl r0
 664:	00000650 	andeq	r0, r0, r0, asr r6
 668:	f0001898 			; <UNDEFINED> instruction: 0xf0001898
 66c:	00000088 	andeq	r0, r0, r8, lsl #1
 670:	44100e42 	ldrmi	r0, [r0], #-3650	; 0xfffff1be
 674:	0285018e 	addeq	r0, r5, #-2147483613	; 0x80000023
 678:	04830384 	streq	r0, [r3], #900	; 0x384
 67c:	0000000c 	andeq	r0, r0, ip
 680:	00000650 	andeq	r0, r0, r0, asr r6
 684:	f0001920 			; <UNDEFINED> instruction: 0xf0001920
 688:	0000004c 	andeq	r0, r0, ip, asr #32
 68c:	0000000c 	andeq	r0, r0, ip
 690:	00000650 	andeq	r0, r0, r0, asr r6
 694:	f000196c 			; <UNDEFINED> instruction: 0xf000196c
 698:	00000050 	andeq	r0, r0, r0, asr r0
 69c:	0000000c 	andeq	r0, r0, ip
 6a0:	00000650 	andeq	r0, r0, r0, asr r6
 6a4:	f00019bc 			; <UNDEFINED> instruction: 0xf00019bc
 6a8:	00000024 	andeq	r0, r0, r4, lsr #32
 6ac:	0000000c 	andeq	r0, r0, ip
 6b0:	00000650 	andeq	r0, r0, r0, asr r6
 6b4:	f00019e0 			; <UNDEFINED> instruction: 0xf00019e0
 6b8:	00000028 	andeq	r0, r0, r8, lsr #32
 6bc:	0000000c 	andeq	r0, r0, ip
 6c0:	00000650 	andeq	r0, r0, r0, asr r6
 6c4:	f0001a08 			; <UNDEFINED> instruction: 0xf0001a08
 6c8:	00000030 	andeq	r0, r0, r0, lsr r0
 6cc:	00000014 	andeq	r0, r0, r4, lsl r0
 6d0:	00000650 	andeq	r0, r0, r0, asr r6
 6d4:	f0001a38 			; <UNDEFINED> instruction: 0xf0001a38
 6d8:	00000050 	andeq	r0, r0, r0, asr r0
 6dc:	46080e42 	strmi	r0, [r8], -r2, asr #28
 6e0:	0284018e 	addeq	r0, r4, #-2147483613	; 0x80000023
 6e4:	0000000c 	andeq	r0, r0, ip
 6e8:	ffffffff 			; <UNDEFINED> instruction: 0xffffffff
 6ec:	7c020001 	stcvc	0, cr0, [r2], {1}
 6f0:	000d0c0e 	andeq	r0, sp, lr, lsl #24
 6f4:	0000000c 	andeq	r0, r0, ip
 6f8:	000006e4 	andeq	r0, r0, r4, ror #13
 6fc:	f0001a88 			; <UNDEFINED> instruction: 0xf0001a88
 700:	00000048 	andeq	r0, r0, r8, asr #32
 704:	00000014 	andeq	r0, r0, r4, lsl r0
 708:	000006e4 	andeq	r0, r0, r4, ror #13
 70c:	f0001ad0 			; <UNDEFINED> instruction: 0xf0001ad0
 710:	00000048 	andeq	r0, r0, r8, asr #32
 714:	44080e42 	strmi	r0, [r8], #-3650	; 0xfffff1be
 718:	0284018e 	addeq	r0, r4, #-2147483613	; 0x80000023
 71c:	00000018 	andeq	r0, r0, r8, lsl r0
 720:	000006e4 	andeq	r0, r0, r4, ror #13
 724:	f0001b18 			; <UNDEFINED> instruction: 0xf0001b18
 728:	000002a8 	andeq	r0, r0, r8, lsr #5
 72c:	420c0e44 	andmi	r0, ip, #68, 28	; 0x440
 730:	0285018e 	addeq	r0, r5, #-2147483613	; 0x80000023
 734:	00000384 	andeq	r0, r0, r4, lsl #7
 738:	0000000c 	andeq	r0, r0, ip
 73c:	ffffffff 			; <UNDEFINED> instruction: 0xffffffff
 740:	7c020001 	stcvc	0, cr0, [r2], {1}
 744:	000d0c0e 	andeq	r0, sp, lr, lsl #24
 748:	0000000c 	andeq	r0, r0, ip
 74c:	00000738 	andeq	r0, r0, r8, lsr r7
 750:	f0001dc0 			; <UNDEFINED> instruction: 0xf0001dc0
 754:	00000008 	andeq	r0, r0, r8
 758:	0000000c 	andeq	r0, r0, ip
 75c:	00000738 	andeq	r0, r0, r8, lsr r7
 760:	f0001dc8 			; <UNDEFINED> instruction: 0xf0001dc8
 764:	00000008 	andeq	r0, r0, r8
 768:	0000000c 	andeq	r0, r0, ip
 76c:	00000738 	andeq	r0, r0, r8, lsr r7
 770:	f0001dd0 			; <UNDEFINED> instruction: 0xf0001dd0
 774:	00000008 	andeq	r0, r0, r8
 778:	0000000c 	andeq	r0, r0, ip
 77c:	00000738 	andeq	r0, r0, r8, lsr r7
 780:	f0001dd8 			; <UNDEFINED> instruction: 0xf0001dd8
 784:	00000008 	andeq	r0, r0, r8
